TN:Supercomputer_Simulation_test_coverage
SF:/mnt/7AAA6049AA60044B/GitHub/supercomputer-simulation/supercomputer/src/configuration/configuration.cpp
FN:6,_ZN13ConfigurationC2Ev
FN:42,_ZN13Configuration12get_users_nrEv
FN:53,_ZN13Configuration16get_users_nr_minEv
FN:60,_ZN13Configuration16get_users_nr_maxEv
FN:67,_ZN13Configuration18is_users_nr_randomEv
FN:74,_ZN13Configuration11get_jobs_nrEv
FN:85,_ZN13Configuration15get_jobs_nr_minEv
FN:92,_ZN13Configuration15get_jobs_nr_maxEv
FN:99,_ZN13Configuration17is_jobs_nr_randomEv
FN:106,_ZN13Configuration12get_cores_nrEv
FN:113,_ZN13Configuration12get_nodes_nrEv
FN:120,_ZN13Configuration18get_student_budgetEv
FN:131,_ZN13Configuration22get_student_budget_minEv
FN:138,_ZN13Configuration22get_student_budget_maxEv
FN:145,_ZN13Configuration24is_student_budget_randomEv
FN:153,_ZN13Configuration21get_researcher_budgetEv
FN:164,_ZN13Configuration25get_researcher_budget_minEv
FN:171,_ZN13Configuration25get_researcher_budget_maxEv
FN:178,_ZN13Configuration27is_researcher_budget_randomEv
FN:185,_ZN13Configuration15get_usage_priceEv
FN:192,_ZN13Configuration20get_operational_costEv
FN:199,_ZN13Configuration17get_requests_spanEv
FN:206,_ZN13Configuration18set_student_randomEb
FN:213,_ZN13Configuration21set_researcher_randomEb
FN:220,_ZN13Configuration16set_users_randomEb
FN:227,_ZN13Configuration15set_jobs_randomEb
FN:234,_ZN13Configuration15set_usage_priceEd
FN:241,_ZN13Configuration20set_operational_costEd
FN:248,_ZN13Configuration12set_nodes_nrEj
FN:261,_ZN13Configuration12set_cores_nrEj
FN:274,_ZN13Configuration18set_student_budgetEd
FN:281,_ZN13Configuration22set_student_budget_minEd
FN:292,_ZN13Configuration22set_student_budget_maxEd
FN:303,_ZN13Configuration21set_researcher_budgetEd
FN:310,_ZN13Configuration25set_researcher_budget_minEd
FN:321,_ZN13Configuration25set_researcher_budget_maxEd
FN:332,_ZN13Configuration11set_jobs_nrEj
FN:339,_ZN13Configuration15set_jobs_nr_minEj
FN:350,_ZN13Configuration15set_jobs_nr_maxEj
FN:361,_ZN13Configuration12set_users_nrEj
FN:368,_ZN13Configuration16set_users_nr_minEj
FN:379,_ZN13Configuration16set_users_nr_maxEj
FN:390,_ZN13Configuration17set_requests_spanEy
FN:397,_ZN13Configuration7set_nowEb
FN:404,_ZN13Configuration8set_timeEl
FN:411,_ZN13Configuration8get_timeEv
FN:417,_Z41__static_initialization_and_destruction_0ii
FN:417,_GLOBAL__sub_I__ZN13ConfigurationC2Ev
FNDA:2,_ZN13Configuration22set_student_budget_minEd
FNDA:1,_Z41__static_initialization_and_destruction_0ii
FNDA:4,_ZN13Configuration22get_student_budget_minEv
FNDA:2,_ZN13Configuration8set_timeEl
FNDA:502,_ZN13Configuration8get_timeEv
FNDA:4,_ZN13Configuration25get_researcher_budget_minEv
FNDA:1,_ZN13Configuration18set_student_randomEb
FNDA:2,_ZN13Configuration18is_users_nr_randomEv
FNDA:2,_ZN13Configuration16set_users_nr_minEj
FNDA:1004,_ZN13Configuration11get_jobs_nrEv
FNDA:969791,_ZN13Configuration15get_usage_priceEv
FNDA:1,_ZN13Configuration15set_jobs_randomEb
FNDA:2,_ZN13Configuration22set_student_budget_maxEd
FNDA:83270,_ZN13Configuration21get_researcher_budgetEv
FNDA:2,_ZN13Configuration25set_researcher_budget_maxEd
FNDA:4,_ZN13Configuration25get_researcher_budget_maxEv
FNDA:5,_ZN13Configuration16get_users_nr_minEv
FNDA:1,_ZN13Configuration17set_requests_spanEy
FNDA:2,_ZN13Configuration15set_jobs_nr_minEj
FNDA:1,_ZN13Configuration21set_researcher_randomEb
FNDA:3,_ZN13Configuration11set_jobs_nrEj
FNDA:2,_ZN13Configuration24is_student_budget_randomEv
FNDA:6,_ZN13ConfigurationC2Ev
FNDA:1,_ZN13Configuration20set_operational_costEd
FNDA:4,_ZN13Configuration15get_jobs_nr_maxEv
FNDA:1,_ZN13Configuration15set_usage_priceEd
FNDA:4,_ZN13Configuration16get_users_nr_maxEv
FNDA:4,_ZN13Configuration12get_users_nrEv
FNDA:1,_ZN13Configuration16set_users_randomEb
FNDA:5,_ZN13Configuration15get_jobs_nr_minEv
FNDA:4,_ZN13Configuration22get_student_budget_maxEv
FNDA:2,_ZN13Configuration25set_researcher_budget_minEd
FNDA:1,_ZN13Configuration12set_users_nrEj
FNDA:3,_ZN13Configuration12set_nodes_nrEj
FNDA:2,_ZN13Configuration17is_jobs_nr_randomEv
FNDA:250516,_ZN13Configuration12get_nodes_nrEv
FNDA:83196,_ZN13Configuration18get_student_budgetEv
FNDA:2,_ZN13Configuration27is_researcher_budget_randomEv
FNDA:2,_ZN13Configuration7set_nowEb
FNDA:503,_ZN13Configuration20get_operational_costEv
FNDA:2,_ZN13Configuration16set_users_nr_maxEj
FNDA:1,_GLOBAL__sub_I__ZN13ConfigurationC2Ev
FNDA:1,_ZN13Configuration21set_researcher_budgetEd
FNDA:250002,_ZN13Configuration17get_requests_spanEv
FNDA:1,_ZN13Configuration18set_student_budgetEd
FNDA:3,_ZN13Configuration12set_cores_nrEj
FNDA:250518,_ZN13Configuration12get_cores_nrEv
FNDA:2,_ZN13Configuration15set_jobs_nr_maxEj
FNF:48
FNH:48
DA:6,6
DA:7,6
DA:8,6
DA:9,6
DA:10,6
DA:12,6
DA:13,6
DA:14,6
DA:15,6
DA:17,6
DA:18,6
DA:20,6
DA:21,6
DA:23,6
DA:24,6
DA:25,6
DA:26,6
DA:28,6
DA:29,6
DA:30,6
DA:31,6
DA:33,6
DA:35,6
DA:36,6
DA:37,6
DA:42,4
DA:43,4
DA:44,2
DA:46,2
DA:53,5
DA:54,5
DA:60,4
DA:61,4
DA:67,2
DA:68,2
DA:74,1004
DA:75,1004
DA:76,1002
DA:78,2
DA:85,5
DA:86,5
DA:92,4
DA:93,4
DA:99,2
DA:100,2
DA:106,250518
DA:107,250518
DA:113,250516
DA:114,250516
DA:120,83196
DA:121,83196
DA:122,83194
DA:124,2
DA:131,4
DA:132,4
DA:138,4
DA:139,4
DA:145,2
DA:146,2
DA:153,83270
DA:154,83270
DA:155,83268
DA:157,2
DA:164,4
DA:165,4
DA:171,4
DA:172,4
DA:178,2
DA:179,2
DA:185,969791
DA:186,969791
DA:192,503
DA:193,503
DA:199,250002
DA:200,250002
DA:206,1
DA:207,1
DA:208,1
DA:213,1
DA:214,1
DA:215,1
DA:220,1
DA:221,1
DA:222,1
DA:227,1
DA:228,1
DA:229,1
DA:234,1
DA:235,1
DA:236,1
DA:241,1
DA:242,1
DA:243,1
DA:248,3
DA:249,3
DA:250,1
DA:251,2
DA:252,1
DA:254,1
DA:256,3
DA:261,3
DA:262,3
DA:263,1
DA:264,2
DA:265,1
DA:267,1
DA:269,3
DA:274,1
DA:275,1
DA:276,1
DA:281,2
DA:282,2
DA:283,1
DA:285,1
DA:287,2
DA:292,2
DA:293,2
DA:294,1
DA:296,1
DA:298,2
DA:303,1
DA:304,1
DA:305,1
DA:310,2
DA:311,2
DA:312,1
DA:314,1
DA:316,2
DA:321,2
DA:322,2
DA:323,1
DA:325,1
DA:327,2
DA:332,3
DA:333,3
DA:334,3
DA:339,2
DA:340,2
DA:341,1
DA:343,1
DA:345,2
DA:350,2
DA:351,2
DA:352,1
DA:354,1
DA:356,2
DA:361,1
DA:362,1
DA:363,1
DA:368,2
DA:369,2
DA:370,1
DA:372,1
DA:374,2
DA:379,2
DA:380,2
DA:381,1
DA:383,1
DA:385,2
DA:390,1
DA:391,1
DA:392,1
DA:397,2
DA:398,2
DA:399,2
DA:404,2
DA:405,2
DA:406,2
DA:411,502
DA:412,502
DA:413,501
DA:415,1
DA:417,3
LF:173
LH:173
end_of_record
TN:Supercomputer_Simulation_test_coverage
SF:/mnt/7AAA6049AA60044B/GitHub/supercomputer-simulation/supercomputer/src/jobs/job.cpp
FN:6,_ZN3JobC2EP13Configurationly
FN:29,_ZN3Job8is_shortEv
FN:34,_ZN3Job9is_mediumEv
FN:39,_ZN3Job8is_largeEv
FN:44,_ZN3Job7is_hugeEv
FN:49,_ZN3Job8get_timeEv
FN:56,_ZN3Job9get_coresEv
FN:63,_ZN3Job9get_priceEv
FN:70,_ZN3Job8set_userEP4User
FN:77,_ZN3Job12get_durationEv
FN:84,_ZltRK3JobS1_
FN:86,_Z41__static_initialization_and_destruction_0ii
FN:86,_GLOBAL__sub_I__ZN3JobC2EP13Configurationly
FNDA:21655976,_ZN3Job8is_largeEv
FNDA:770477,_ZN3Job7is_hugeEv
FNDA:87926639,_ZN3Job8is_shortEv
FNDA:85194528,_ZN3Job9is_mediumEv
FNDA:1,_Z41__static_initialization_and_destruction_0ii
FNDA:1805029,_ZltRK3JobS1_
FNDA:88473651,_ZN3Job9get_coresEv
FNDA:250007,_ZN3Job8set_userEP4User
FNDA:1,_GLOBAL__sub_I__ZN3JobC2EP13Configurationly
FNDA:500018,_ZN3Job8get_timeEv
FNDA:969785,_ZN3Job9get_priceEv
FNDA:73807800,_ZN3Job12get_durationEv
FNDA:250012,_ZN3JobC2EP13Configurationly
FNF:13
FNH:13
DA:6,250012
DA:7,250012
DA:8,250012
DA:9,250012
DA:10,250012
DA:11,35925
DA:12,35925
DA:13,214087
DA:14,142535
DA:15,142535
DA:16,71552
DA:17,51095
DA:18,51095
DA:20,20457
DA:21,20457
DA:23,250012
DA:24,250012
DA:29,87926639
DA:34,85194528
DA:39,21655976
DA:44,770477
DA:49,500018
DA:50,500018
DA:56,88473651
DA:57,88473651
DA:63,969785
DA:64,969785
DA:70,250007
DA:71,250007
DA:72,250007
DA:77,73807800
DA:78,73807800
DA:84,1805029
DA:85,1805029
DA:86,3
LF:35
LH:35
end_of_record
TN:Supercomputer_Simulation_test_coverage
SF:/mnt/7AAA6049AA60044B/GitHub/supercomputer-simulation/supercomputer/src/statistics/statistics.cpp
FN:6,_ZN10StatisticsC2EP13Configuration
FN:16,_ZN10Statistics15add_usage_priceEd
FN:23,_ZN10Statistics20add_operational_costEd
FN:30,_ZN10Statistics16add_machine_timeEy
FN:38,_ZN10Statistics7add_jobEl3Job
FN:92,_ZN10Statistics12get_short_taB5cxx11Ev
FN:104,_ZN10Statistics13get_medium_taB5cxx11Ev
FN:116,_ZN10Statistics12get_large_taB5cxx11Ev
FN:128,_ZN10Statistics11get_huge_taB5cxx11Ev
FN:140,_ZN10Statistics12get_short_wtB5cxx11Ev
FN:152,_ZN10Statistics13get_medium_wtB5cxx11Ev
FN:164,_ZN10Statistics12get_large_wtB5cxx11Ev
FN:176,_ZN10Statistics11get_huge_wtB5cxx11Ev
FN:188,_ZN10Statistics20get_operational_costB5cxx11Ev
FN:197,_ZN10Statistics20get_economic_balanceB5cxx11Ev
FN:206,_ZN10Statistics16get_machine_timeB5cxx11Ev
FN:222,_ZN10Statistics15get_usage_priceB5cxx11Ev
FN:231,_ZN10Statistics16get_weekly_usageB5cxx11Ev
FN:237,_Z41__static_initialization_and_destruction_0ii
FN:237,_GLOBAL__sub_I__ZN10StatisticsC2EP13Configuration
FNDA:501,_ZN10Statistics13get_medium_taB5cxx11Ev
FNDA:501,_ZN10Statistics12get_short_wtB5cxx11Ev
FNDA:501,_ZN10Statistics16get_machine_timeB5cxx11Ev
FNDA:501,_ZN10Statistics13get_medium_wtB5cxx11Ev
FNDA:501,_ZN10Statistics12get_large_wtB5cxx11Ev
FNDA:501,_ZN10Statistics11get_huge_wtB5cxx11Ev
FNDA:501,_ZN10Statistics20get_operational_costB5cxx11Ev
FNDA:27013,_ZN10Statistics16add_machine_timeEy
FNDA:501,_ZN10Statistics16get_weekly_usageB5cxx11Ev
FNDA:501,_ZN10Statistics15get_usage_priceB5cxx11Ev
FNDA:501,_ZN10Statistics12get_short_taB5cxx11Ev
FNDA:501,_ZN10StatisticsC2EP13Configuration
FNDA:501,_ZN10Statistics11get_huge_taB5cxx11Ev
FNDA:501,_ZN10Statistics20get_economic_balanceB5cxx11Ev
FNDA:501,_ZN10Statistics20add_operational_costEd
FNDA:250007,_ZN10Statistics15add_usage_priceEd
FNDA:1,_Z41__static_initialization_and_destruction_0ii
FNDA:1,_GLOBAL__sub_I__ZN10StatisticsC2EP13Configuration
FNDA:501,_ZN10Statistics12get_large_taB5cxx11Ev
FNDA:250007,_ZN10Statistics7add_jobEl3Job
FNF:20
FNH:20
DA:6,501
DA:7,501
DA:8,501
DA:9,501
DA:10,501
DA:11,501
DA:16,250007
DA:17,250007
DA:18,250007
DA:23,501
DA:24,501
DA:25,501
DA:30,27013
DA:31,27013
DA:32,27013
DA:38,250007
DA:39,250007
DA:40,250007
DA:41,250007
DA:42,35924
DA:43,35924
DA:44,214083
DA:45,142534
DA:46,142534
DA:47,71549
DA:48,51094
DA:49,51094
DA:51,20455
DA:52,20455
DA:58,250007
DA:59,5391233
DA:60,5141226
DA:61,5141226
DA:62,229502
DA:63,229502
DA:64,4911724
DA:65,50
DA:66,50
DA:67,50
DA:74,250007
DA:76,20455
DA:77,20455
DA:78,501
DA:80,19954
DA:82,20455
DA:83,20455
DA:84,20455
DA:85,20455
DA:87,250007
DA:92,501
DA:93,501
DA:95,501
DA:96,1002
DA:97,501
DA:98,501
DA:104,501
DA:105,501
DA:107,501
DA:108,1002
DA:109,501
DA:110,501
DA:116,501
DA:117,501
DA:119,501
DA:120,1002
DA:121,501
DA:122,501
DA:128,501
DA:129,501
DA:131,501
DA:132,1002
DA:133,501
DA:134,501
DA:140,501
DA:141,501
DA:143,501
DA:144,1002
DA:145,501
DA:146,501
DA:152,501
DA:153,501
DA:155,501
DA:156,1002
DA:157,501
DA:158,501
DA:164,501
DA:165,501
DA:167,501
DA:168,1002
DA:169,501
DA:170,501
DA:176,501
DA:177,501
DA:179,501
DA:180,1002
DA:181,501
DA:182,501
DA:188,501
DA:189,1002
DA:190,501
DA:191,1002
DA:197,501
DA:198,1002
DA:199,501
DA:200,1002
DA:206,501
DA:207,501
DA:208,501
DA:209,501
DA:210,501
DA:211,1002
DA:212,1002
DA:213,1503
DA:214,1503
DA:215,1503
DA:216,1002
DA:222,501
DA:223,1002
DA:224,501
DA:225,1002
DA:231,501
DA:232,1002
DA:233,20956
DA:234,20455
DA:236,1002
DA:237,3
LF:126
LH:126
end_of_record
TN:Supercomputer_Simulation_test_coverage
SF:/mnt/7AAA6049AA60044B/GitHub/supercomputer-simulation/supercomputer/src/statistics/week.cpp
FN:6,_ZN4WeekC2Ell
FN:19,_ZN4Week9get_startEv
FN:26,_ZN4Week7get_endEv
FN:33,_ZN4Week9set_startEl
FN:40,_ZN4Week7add_jobE3Job
FN:55,_ZlsRSoRK4Week
FN:72,_Z41__static_initialization_and_destruction_0ii
FN:72,_GLOBAL__sub_I__ZN4WeekC2Ell
FNDA:907924,_ZN4Week7get_endEv
FNDA:10052950,_ZN4Week9get_startEv
FNDA:50,_ZN4Week9set_startEl
FNDA:20455,_ZN4WeekC2Ell
FNDA:20455,_ZlsRSoRK4Week
FNDA:1,_GLOBAL__sub_I__ZN4WeekC2Ell
FNDA:250007,_ZN4Week7add_jobE3Job
FNDA:1,_Z41__static_initialization_and_destruction_0ii
FNF:8
FNH:8
DA:6,20455
DA:7,20455
DA:8,20455
DA:10,20455
DA:11,20455
DA:12,20455
DA:13,20455
DA:14,20455
DA:19,10052950
DA:20,10052950
DA:26,907924
DA:27,907924
DA:33,50
DA:34,50
DA:35,50
DA:40,250007
DA:41,250007
DA:42,35924
DA:43,214083
DA:44,142534
DA:45,71549
DA:46,51094
DA:48,20455
DA:50,250007
DA:55,20455
DA:56,20455
DA:58,20455
DA:60,20455
DA:62,20455
DA:64,20455
DA:66,20455
DA:67,20455
DA:68,20455
DA:69,20455
DA:70,20455
DA:71,20455
DA:72,3
LF:37
LH:37
end_of_record
TN:Supercomputer_Simulation_test_coverage
SF:/mnt/7AAA6049AA60044B/GitHub/supercomputer-simulation/supercomputer/src/system/state.cpp
FN:6,_ZN5StateC2Exl9StateType
FN:20,_ZN5StateC2ES_l9StateType
FN:34,_ZN5State10insert_jobE3Job
FN:52,_ZN5State14can_insert_jobE3Job
FN:66,_ZN5State8get_timeEv
FN:73,_ZN5State8get_typeEv
FN:80,_ZN5State15get_short_coresEv
FN:85,_ZN5State16get_medium_coresEv
FN:90,_ZN5State15get_large_coresEv
FN:95,_ZN5State15get_total_coresEv
FN:100,_ZN5State14get_used_coresEv
FN:100,_Z41__static_initialization_and_destruction_0ii
FN:100,_GLOBAL__sub_I__ZN5StateC2Exl9StateType
FNDA:1,_Z41__static_initialization_and_destruction_0ii
FNDA:478507,_ZN5State14get_used_coresEv
FNDA:101995223,_ZN5State8get_timeEv
FNDA:478507,_ZN5StateC2ES_l9StateType
FNDA:478507,_ZN5State15get_large_coresEv
FNDA:21507,_ZN5StateC2Exl9StateType
FNDA:478507,_ZN5State15get_short_coresEv
FNDA:478507,_ZN5State15get_total_coresEv
FNDA:1,_GLOBAL__sub_I__ZN5StateC2Exl9StateType
FNDA:478507,_ZN5State16get_medium_coresEv
FNDA:500014,_ZN5State8get_typeEv
FNDA:86359146,_ZN5State14can_insert_jobE3Job
FNDA:1067478,_ZN5State10insert_jobE3Job
FNF:13
FNH:13
DA:6,21507
DA:7,21507
DA:8,21507
DA:9,21507
DA:10,21507
DA:11,21507
DA:13,21507
DA:14,21507
DA:15,21507
DA:20,478507
DA:21,478507
DA:22,478507
DA:23,478507
DA:24,478507
DA:25,478507
DA:27,478507
DA:28,478507
DA:29,478507
DA:34,1067478
DA:35,1067478
DA:36,307651
DA:37,759827
DA:38,555756
DA:39,204071
DA:40,183616
DA:41,20455
DA:42,20455
DA:43,20455
DA:44,20455
DA:46,1067478
DA:47,1067478
DA:52,86359146
DA:53,86359146
DA:54,86359146
DA:55,2352612
DA:56,84006534
DA:57,62697728
DA:58,21308806
DA:59,21308806
DA:61,86359146
DA:66,101995223
DA:67,101995223
DA:73,500014
DA:74,500014
DA:80,478507
DA:85,478507
DA:90,478507
DA:95,478507
DA:100,478510
LF:49
LH:49
end_of_record
TN:Supercomputer_Simulation_test_coverage
SF:/mnt/7AAA6049AA60044B/GitHub/supercomputer-simulation/supercomputer/src/system/system.cpp
FN:6,_ZN6SystemC2EP13Configuration
FN:19,_ZN6SystemC2EP13ConfigurationSt6vectorIP4UserSaIS4_EES2_I3JobSaIS7_EE
FN:41,_ZN6System12create_usersEv
FN:52,_ZN6System11create_jobsEv
FN:91,_ZN6System23insert_state_and_updateEmmll3Job
FN:109,_ZN6System17insert_week_stateElm3Job
FN:152,_ZN6System20insert_weekend_stateElm3Job
FN:171,_ZN6System12insert_stateERm3Job
FN:189,_ZN6System8scheduleEv
FN:199,_ZN6System17calculate_op_costEv
FN:223,_ZN6System11get_resultsB5cxx11Ev
FN:234,_GLOBAL__sub_I__ZN6SystemC2EP13Configuration
FN:234,_Z41__static_initialization_and_destruction_0ii
FNDA:229552,_ZN6System17insert_week_stateElm3Job
FNDA:500,_ZN6System12create_usersEv
FNDA:1,_Z41__static_initialization_and_destruction_0ii
FNDA:501,_ZN6System17calculate_op_costEv
FNDA:501,_ZN6System8scheduleEv
FNDA:250007,_ZN6System12insert_stateERm3Job
FNDA:1,_GLOBAL__sub_I__ZN6SystemC2EP13Configuration
FNDA:20455,_ZN6System20insert_weekend_stateElm3Job
FNDA:501,_ZN6System11get_resultsB5cxx11Ev
FNDA:500,_ZN6System11create_jobsEv
FNDA:250007,_ZN6System23insert_state_and_updateEmmll3Job
FNDA:500,_ZN6SystemC2EP13Configuration
FNDA:1,_ZN6SystemC2EP13ConfigurationSt6vectorIP4UserSaIS4_EES2_I3JobSaIS7_EE
FNF:13
FNH:13
DA:6,500
DA:7,500
DA:8,500
DA:9,500
DA:10,500
DA:11,500
DA:12,500
DA:13,500
DA:14,500
DA:19,1
DA:20,1
DA:21,1
DA:22,1
DA:23,1
DA:24,1
DA:25,8
DA:26,7
DA:27,17
DA:28,5
DA:30,7
DA:31,7
DA:32,7
DA:34,1
DA:35,1
DA:36,1
DA:41,500
DA:42,500
DA:43,250500
DA:44,250000
DA:46,500
DA:47,500
DA:52,500
DA:53,500
DA:54,500
DA:56,1000
DA:57,500
DA:58,500
DA:60,250500
DA:61,250000
DA:64,250056
DA:65,28
DA:69,250028
DA:70,14
DA:72,250000
DA:73,250000
DA:74,250000
DA:75,250000
DA:76,1161916
DA:77,455958
DA:79,250000
DA:80,250000
DA:81,250000
DA:83,250000
DA:85,500
DA:86,500
DA:91,250007
DA:92,250007
DA:94,250007
DA:95,250007
DA:96,250007
DA:97,1067478
DA:98,817471
DA:100,250007
DA:101,250007
DA:102,250007
DA:109,229552
DA:110,229552
DA:111,24523816
DA:112,12147132
DA:113,12147132
DA:114,12147132
DA:115,12147132
DA:116,48
DA:117,48
DA:118,2414
DA:119,1183
DA:123,229552
DA:124,36679988
DA:125,18225218
DA:126,11965352
DA:127,11965352
DA:128,11965352
DA:129,99550138
DA:130,43792393
DA:131,43792393
DA:132,43792393
DA:133,43792393
DA:134,261631
DA:135,261631
DA:136,9192115
DA:137,4465242
DA:141,11965352
DA:143,6259866
DA:146,229552
DA:147,229552
DA:152,20455
DA:153,20455
DA:154,20455
DA:155,10185405
DA:156,5082475
DA:158,853941
DA:159,416743
DA:160,9773807
DA:161,4678532
DA:164,20455
DA:165,20455
DA:166,20455
DA:171,250007
DA:172,250007
DA:173,250007
DA:174,229552
DA:176,270623
DA:177,10308
DA:179,250007
DA:180,229552
DA:182,20455
DA:184,250007
DA:189,501
DA:190,501
DA:191,250508
DA:192,250007
DA:194,501
DA:199,501
DA:200,501
DA:201,501
DA:202,500515
DA:203,500014
DA:204,250007
DA:205,27013
DA:207,250007
DA:209,250007
DA:210,250007
DA:211,27013
DA:215,501
DA:216,501
DA:218,501
DA:223,501
DA:224,1002
DA:225,501
DA:226,501
DA:227,501
DA:228,501
DA:229,501
DA:230,501
DA:231,501
DA:232,501
DA:233,1002
DA:234,3
LF:148
LH:148
end_of_record
TN:Supercomputer_Simulation_test_coverage
SF:/mnt/7AAA6049AA60044B/GitHub/supercomputer-simulation/supercomputer/src/users/user.cpp
FN:7,_ZN4UserC2EP13Configurationib
FN:16,_ZN4User14generate_groupEb
FN:33,_ZN4User10can_affordEP3Job
FN:40,_ZN4User3payEP3Job
FN:44,_Z41__static_initialization_and_destruction_0ii
FN:44,_GLOBAL__sub_I__ZN4UserC2EP13Configurationib
FNDA:1,_GLOBAL__sub_I__ZN4UserC2EP13Configurationib
FNDA:250027,_ZN4User3payEP3Job
FNDA:705971,_ZN4User10can_affordEP3Job
FNDA:250503,_ZN4User14generate_groupEb
FNDA:250503,_ZN4UserC2EP13Configurationib
FNDA:1,_Z41__static_initialization_and_destruction_0ii
FNF:6
FNH:6
DA:7,250503
DA:8,250503
DA:9,250503
DA:10,250503
DA:11,250503
DA:16,250503
DA:17,250503
DA:18,250503
DA:19,84045
DA:20,84045
DA:21,166458
DA:22,83266
DA:23,83266
DA:25,83192
DA:26,83192
DA:28,250503
DA:33,705971
DA:34,705971
DA:40,250027
DA:41,250027
DA:42,13803
DA:44,250030
LF:22
LH:22
end_of_record
TN:Supercomputer_Simulation_test_coverage
SF:/mnt/7AAA6049AA60044B/GitHub/supercomputer-simulation/supercomputer/src/utils/utils.cpp
FN:8,_Z15generate_randomii
FN:18,_Z15generate_randomjj
FN:28,_Z15generate_randomdd
FN:37,_Z10is_weekendll
FN:51,_Z10is_weekendl
FN:64,_Z15advance_weekendl
FN:84,_Z17advance_to_fridayl
FN:103,_Z18get_back_to_mondayl
FN:113,_Z41__static_initialization_and_destruction_0ii
FN:113,_GLOBAL__sub_I__Z15generate_randomii
FNDA:4,_Z15generate_randomjj
FNDA:479556,_Z15generate_randomii
FNDA:1,_Z41__static_initialization_and_destruction_0ii
FNDA:250007,_Z10is_weekendl
FNDA:1,_GLOBAL__sub_I__Z15generate_randomii
FNDA:4,_Z15generate_randomdd
FNDA:511686,_Z15advance_weekendl
FNDA:55939525,_Z10is_weekendll
FNDA:5348922,_Z17advance_to_fridayl
FNDA:19954,_Z18get_back_to_mondayl
FNF:10
FNH:10
DA:8,479556
DA:9,479556
DA:10,479556
DA:11,479556
DA:12,479556
DA:18,4
DA:19,4
DA:20,4
DA:21,4
DA:22,4
DA:28,4
DA:29,4
DA:30,4
DA:31,4
DA:37,55939525
DA:38,55939525
DA:39,55939525
DA:40,55939525
DA:41,55931045
DA:42,55931045
DA:43,62205784
DA:44,71728363
DA:45,55939525
DA:51,250007
DA:52,250007
DA:53,250007
DA:54,250007
DA:55,7
DA:56,500021
DA:57,250007
DA:58,250007
DA:64,511686
DA:65,511686
DA:66,511686
DA:67,20405
DA:68,20405
DA:71,2786036
DA:72,1137175
DA:73,1137175
DA:75,511686
DA:76,511686
DA:77,511686
DA:78,511686
DA:84,5348922
DA:85,5348922
DA:86,5348922
DA:87,833490
DA:88,833490
DA:90,36895888
DA:91,15773483
DA:92,15773483
DA:94,5348922
DA:95,5348922
DA:96,5348922
DA:97,5348922
DA:103,19954
DA:104,19954
DA:105,179530
DA:106,79788
DA:107,79788
DA:109,19954
DA:110,19954
DA:111,19954
DA:112,19954
DA:113,3
LF:65
LH:65
end_of_record
TN:Supercomputer_Simulation_test_coverage
SF:/mnt/7AAA6049AA60044B/GitHub/supercomputer-simulation/testing/test_config.cpp
FN:3,_ZL29____C_A_T_C_H____T_E_S_T____0v
FN:36,_ZL29____C_A_T_C_H____T_E_S_T____2v
FN:122,_Z41__static_initialization_and_destruction_0ii
FN:122,_GLOBAL__sub_I_test_config.cpp
FNDA:1,_ZL29____C_A_T_C_H____T_E_S_T____2v
FNDA:1,_Z41__static_initialization_and_destruction_0ii
FNDA:1,_GLOBAL__sub_I_test_config.cpp
FNDA:1,_ZL29____C_A_T_C_H____T_E_S_T____0v
FNF:4
FNH:4
DA:3,2
DA:4,1
DA:6,1
DA:7,1
DA:8,1
DA:9,1
DA:11,1
DA:12,1
DA:13,1
DA:14,1
DA:16,1
DA:17,1
DA:19,1
DA:20,1
DA:22,1
DA:23,1
DA:24,1
DA:25,1
DA:27,1
DA:28,1
DA:29,1
DA:30,1
DA:32,1
DA:33,1
DA:34,1
DA:36,2
DA:37,1
DA:39,1
DA:40,1
DA:41,1
DA:42,1
DA:43,1
DA:44,1
DA:45,1
DA:46,1
DA:47,1
DA:48,1
DA:49,1
DA:51,1
DA:52,1
DA:54,1
DA:55,1
DA:56,1
DA:57,1
DA:58,1
DA:59,1
DA:60,1
DA:61,1
DA:62,1
DA:63,1
DA:64,1
DA:66,1
DA:67,1
DA:69,1
DA:70,1
DA:71,1
DA:72,1
DA:73,1
DA:74,1
DA:75,1
DA:76,1
DA:77,1
DA:78,1
DA:79,1
DA:80,1
DA:82,1
DA:83,1
DA:84,1
DA:85,1
DA:87,1
DA:88,1
DA:89,1
DA:90,1
DA:91,1
DA:92,1
DA:93,1
DA:94,1
DA:95,1
DA:96,1
DA:98,1
DA:99,1
DA:101,1
DA:102,1
DA:103,1
DA:104,1
DA:105,1
DA:106,1
DA:107,1
DA:108,1
DA:109,1
DA:110,1
DA:112,1
DA:113,1
DA:115,1
DA:116,1
DA:118,1
DA:119,1
DA:120,1
DA:121,1
DA:122,4
LF:100
LH:100
end_of_record
TN:Supercomputer_Simulation_test_coverage
SF:/mnt/7AAA6049AA60044B/GitHub/supercomputer-simulation/testing/test_job.cpp
FN:3,_ZL29____C_A_T_C_H____T_E_S_T____0v
FN:26,_GLOBAL__sub_I_test_job.cpp
FN:26,_Z41__static_initialization_and_destruction_0ii
FNDA:1,_GLOBAL__sub_I_test_job.cpp
FNDA:1,_ZL29____C_A_T_C_H____T_E_S_T____0v
FNDA:1,_Z41__static_initialization_and_destruction_0ii
FNF:3
FNH:3
DA:3,2
DA:4,1
DA:5,1
DA:7,1
DA:8,1
DA:9,1
DA:10,1
DA:12,1
DA:13,1
DA:14,1
DA:15,1
DA:17,1
DA:18,1
DA:19,1
DA:20,1
DA:22,1
DA:23,1
DA:24,1
DA:25,1
DA:26,4
LF:20
LH:20
end_of_record
TN:Supercomputer_Simulation_test_coverage
SF:/mnt/7AAA6049AA60044B/GitHub/supercomputer-simulation/testing/test_supercomputer.cpp
FN:7,_ZL29____C_A_T_C_H____T_E_S_T____0v
FN:29,_ZL29____C_A_T_C_H____T_E_S_T____2v
FN:46,_GLOBAL__sub_I_leakDetector
FNDA:1,_GLOBAL__sub_I_leakDetector
FNDA:1,_Z41__static_initialization_and_destruction_0ii
FNDA:1,_ZL29____C_A_T_C_H____T_E_S_T____0v
FNDA:1,_ZL29____C_A_T_C_H____T_E_S_T____2v
FNF:4
FNH:4
DA:7,2
DA:8,1
DA:9,1
DA:10,1
DA:11,1
DA:12,1
DA:13,2
DA:14,2
DA:15,1
DA:18,2
DA:19,4
DA:20,4
DA:21,4
DA:22,4
DA:23,4
DA:25,2
DA:26,1
DA:27,1
DA:29,2
DA:30,1
DA:31,1
DA:34,2
DA:35,4
DA:36,4
DA:37,4
DA:38,4
DA:39,4
DA:41,2
DA:42,501
DA:43,500
DA:44,500
DA:46,4
LF:32
LH:32
end_of_record
TN:Supercomputer_Simulation_test_coverage
SF:/mnt/7AAA6049AA60044B/GitHub/supercomputer-simulation/testing/test_user.cpp
FN:3,_ZL29____C_A_T_C_H____T_E_S_T____0v
FN:13,_Z41__static_initialization_and_destruction_0ii
FN:13,_GLOBAL__sub_I_test_user.cpp
FNDA:1,_GLOBAL__sub_I_test_user.cpp
FNDA:1,_ZL29____C_A_T_C_H____T_E_S_T____0v
FNDA:1,_Z41__static_initialization_and_destruction_0ii
FNF:3
FNH:3
DA:3,2
DA:4,1
DA:5,1
DA:6,1
DA:8,1
DA:9,21
DA:10,20
DA:12,1
DA:13,4
LF:9
LH:9
end_of_record
