TN:Supercomputer_Simulation_test_coverage
SF:/usr/include/c++/5/iostream
DA:74,1
LF:1
LH:1
end_of_record
SF:/mnt/7AAA6049AA60044B/GitHub/supercomputer-simulation/supercomputer/src/configuration/configuration.cpp
FN:6,_ZN13ConfigurationC2Ev
FN:42,_ZN13Configuration12get_users_nrEv
FN:53,_ZN13Configuration16get_users_nr_minEv
FN:60,_ZN13Configuration16get_users_nr_maxEv
FN:67,_ZN13Configuration18is_users_nr_randomEv
FN:74,_ZN13Configuration11get_jobs_nrEv
FN:85,_ZN13Configuration15get_jobs_nr_minEv
FN:92,_ZN13Configuration15get_jobs_nr_maxEv
FN:99,_ZN13Configuration17is_jobs_nr_randomEv
FN:106,_ZN13Configuration12get_cores_nrEv
FN:113,_ZN13Configuration12get_nodes_nrEv
FN:120,_ZN13Configuration18get_student_budgetEv
FN:131,_ZN13Configuration22get_student_budget_minEv
FN:138,_ZN13Configuration22get_student_budget_maxEv
FN:145,_ZN13Configuration24is_student_budget_randomEv
FN:153,_ZN13Configuration21get_researcher_budgetEv
FN:164,_ZN13Configuration25get_researcher_budget_minEv
FN:171,_ZN13Configuration25get_researcher_budget_maxEv
FN:178,_ZN13Configuration27is_researcher_budget_randomEv
FN:185,_ZN13Configuration15get_usage_priceEv
FN:192,_ZN13Configuration20get_operational_costEv
FN:199,_ZN13Configuration17get_requests_spanEv
FN:206,_ZN13Configuration18set_student_randomEb
FN:213,_ZN13Configuration21set_researcher_randomEb
FN:220,_ZN13Configuration16set_users_randomEb
FN:227,_ZN13Configuration15set_jobs_randomEb
FN:234,_ZN13Configuration15set_usage_priceEd
FN:241,_ZN13Configuration20set_operational_costEd
FN:248,_ZN13Configuration12set_nodes_nrEj
FN:261,_ZN13Configuration12set_cores_nrEj
FN:274,_ZN13Configuration18set_student_budgetEd
FN:281,_ZN13Configuration22set_student_budget_minEd
FN:292,_ZN13Configuration22set_student_budget_maxEd
FN:303,_ZN13Configuration21set_researcher_budgetEd
FN:310,_ZN13Configuration25set_researcher_budget_minEd
FN:321,_ZN13Configuration25set_researcher_budget_maxEd
FN:332,_ZN13Configuration11set_jobs_nrEj
FN:339,_ZN13Configuration15set_jobs_nr_minEj
FN:350,_ZN13Configuration15set_jobs_nr_maxEj
FN:361,_ZN13Configuration12set_users_nrEj
FN:368,_ZN13Configuration16set_users_nr_minEj
FN:379,_ZN13Configuration16set_users_nr_maxEj
FN:390,_ZN13Configuration17set_requests_spanEy
FN:397,_ZN13Configuration7set_nowEb
FN:404,_ZN13Configuration8set_timeEl
FN:411,_ZN13Configuration8get_timeEv
FN:417,_GLOBAL__sub_I__ZN13ConfigurationC2Ev
FN:417,_Z41__static_initialization_and_destruction_0ii
FNDA:6,_ZN13ConfigurationC2Ev
FNDA:4,_ZN13Configuration12get_users_nrEv
FNDA:5,_ZN13Configuration16get_users_nr_minEv
FNDA:4,_ZN13Configuration16get_users_nr_maxEv
FNDA:2,_ZN13Configuration18is_users_nr_randomEv
FNDA:1004,_ZN13Configuration11get_jobs_nrEv
FNDA:5,_ZN13Configuration15get_jobs_nr_minEv
FNDA:4,_ZN13Configuration15get_jobs_nr_maxEv
FNDA:2,_ZN13Configuration17is_jobs_nr_randomEv
FNDA:250518,_ZN13Configuration12get_cores_nrEv
FNDA:250516,_ZN13Configuration12get_nodes_nrEv
FNDA:83196,_ZN13Configuration18get_student_budgetEv
FNDA:4,_ZN13Configuration22get_student_budget_minEv
FNDA:4,_ZN13Configuration22get_student_budget_maxEv
FNDA:2,_ZN13Configuration24is_student_budget_randomEv
FNDA:83270,_ZN13Configuration21get_researcher_budgetEv
FNDA:4,_ZN13Configuration25get_researcher_budget_minEv
FNDA:4,_ZN13Configuration25get_researcher_budget_maxEv
FNDA:2,_ZN13Configuration27is_researcher_budget_randomEv
FNDA:969791,_ZN13Configuration15get_usage_priceEv
FNDA:503,_ZN13Configuration20get_operational_costEv
FNDA:250002,_ZN13Configuration17get_requests_spanEv
FNDA:1,_ZN13Configuration18set_student_randomEb
FNDA:1,_ZN13Configuration21set_researcher_randomEb
FNDA:1,_ZN13Configuration16set_users_randomEb
FNDA:1,_ZN13Configuration15set_jobs_randomEb
FNDA:1,_ZN13Configuration15set_usage_priceEd
FNDA:1,_ZN13Configuration20set_operational_costEd
FNDA:3,_ZN13Configuration12set_nodes_nrEj
FNDA:3,_ZN13Configuration12set_cores_nrEj
FNDA:1,_ZN13Configuration18set_student_budgetEd
FNDA:2,_ZN13Configuration22set_student_budget_minEd
FNDA:2,_ZN13Configuration22set_student_budget_maxEd
FNDA:1,_ZN13Configuration21set_researcher_budgetEd
FNDA:2,_ZN13Configuration25set_researcher_budget_minEd
FNDA:2,_ZN13Configuration25set_researcher_budget_maxEd
FNDA:3,_ZN13Configuration11set_jobs_nrEj
FNDA:2,_ZN13Configuration15set_jobs_nr_minEj
FNDA:2,_ZN13Configuration15set_jobs_nr_maxEj
FNDA:1,_ZN13Configuration12set_users_nrEj
FNDA:2,_ZN13Configuration16set_users_nr_minEj
FNDA:2,_ZN13Configuration16set_users_nr_maxEj
FNDA:1,_ZN13Configuration17set_requests_spanEy
FNDA:2,_ZN13Configuration7set_nowEb
FNDA:2,_ZN13Configuration8set_timeEl
FNDA:502,_ZN13Configuration8get_timeEv
FNDA:1,_GLOBAL__sub_I__ZN13ConfigurationC2Ev
FNDA:1,_Z41__static_initialization_and_destruction_0ii
FNF:48
FNH:48
DA:6,6
DA:7,6
DA:8,6
DA:9,6
DA:10,6
DA:12,6
DA:13,6
DA:14,6
DA:15,6
DA:17,6
DA:18,6
DA:20,6
DA:21,6
DA:23,6
DA:24,6
DA:25,6
DA:26,6
DA:28,6
DA:29,6
DA:30,6
DA:31,6
DA:33,6
DA:35,6
DA:36,6
DA:37,6
DA:42,4
DA:43,4
DA:44,2
DA:46,2
DA:53,5
DA:54,5
DA:60,4
DA:61,4
DA:67,2
DA:68,2
DA:74,1004
DA:75,1004
DA:76,1002
DA:78,2
DA:85,5
DA:86,5
DA:92,4
DA:93,4
DA:99,2
DA:100,2
DA:106,250518
DA:107,250518
DA:113,250516
DA:114,250516
DA:120,83196
DA:121,83196
DA:122,83194
DA:124,2
DA:131,4
DA:132,4
DA:138,4
DA:139,4
DA:145,2
DA:146,2
DA:153,83270
DA:154,83270
DA:155,83268
DA:157,2
DA:164,4
DA:165,4
DA:171,4
DA:172,4
DA:178,2
DA:179,2
DA:185,969791
DA:186,969791
DA:192,503
DA:193,503
DA:199,250002
DA:200,250002
DA:206,1
DA:207,1
DA:208,1
DA:213,1
DA:214,1
DA:215,1
DA:220,1
DA:221,1
DA:222,1
DA:227,1
DA:228,1
DA:229,1
DA:234,1
DA:235,1
DA:236,1
DA:241,1
DA:242,1
DA:243,1
DA:248,3
DA:249,3
DA:250,1
DA:251,2
DA:252,1
DA:254,1
DA:256,3
DA:261,3
DA:262,3
DA:263,1
DA:264,2
DA:265,1
DA:267,1
DA:269,3
DA:274,1
DA:275,1
DA:276,1
DA:281,2
DA:282,2
DA:283,1
DA:285,1
DA:287,2
DA:292,2
DA:293,2
DA:294,1
DA:296,1
DA:298,2
DA:303,1
DA:304,1
DA:305,1
DA:310,2
DA:311,2
DA:312,1
DA:314,1
DA:316,2
DA:321,2
DA:322,2
DA:323,1
DA:325,1
DA:327,2
DA:332,3
DA:333,3
DA:334,3
DA:339,2
DA:340,2
DA:341,1
DA:343,1
DA:345,2
DA:350,2
DA:351,2
DA:352,1
DA:354,1
DA:356,2
DA:361,1
DA:362,1
DA:363,1
DA:368,2
DA:369,2
DA:370,1
DA:372,1
DA:374,2
DA:379,2
DA:380,2
DA:381,1
DA:383,1
DA:385,2
DA:390,1
DA:391,1
DA:392,1
DA:397,2
DA:398,2
DA:399,2
DA:404,2
DA:405,2
DA:406,2
DA:411,502
DA:412,502
DA:413,501
DA:415,1
DA:417,3
LF:173
LH:173
end_of_record
TN:Supercomputer_Simulation_test_coverage
SF:/usr/include/c++/5/iostream
DA:74,1
LF:1
LH:1
end_of_record
SF:/mnt/7AAA6049AA60044B/GitHub/supercomputer-simulation/supercomputer/src/jobs/job.cpp
FN:6,_ZN3JobC2EP13Configurationly
FN:29,_ZN3Job8is_shortEv
FN:34,_ZN3Job9is_mediumEv
FN:39,_ZN3Job8is_largeEv
FN:44,_ZN3Job7is_hugeEv
FN:49,_ZN3Job8get_timeEv
FN:56,_ZN3Job9get_coresEv
FN:63,_ZN3Job9get_priceEv
FN:70,_ZN3Job8set_userEP4User
FN:77,_ZN3Job12get_durationEv
FN:84,_ZltRK3JobS1_
FN:86,_Z41__static_initialization_and_destruction_0ii
FN:86,_GLOBAL__sub_I__ZN3JobC2EP13Configurationly
FNDA:250012,_ZN3JobC2EP13Configurationly
FNDA:87926639,_ZN3Job8is_shortEv
FNDA:85194528,_ZN3Job9is_mediumEv
FNDA:21655976,_ZN3Job8is_largeEv
FNDA:770477,_ZN3Job7is_hugeEv
FNDA:500018,_ZN3Job8get_timeEv
FNDA:88473651,_ZN3Job9get_coresEv
FNDA:969785,_ZN3Job9get_priceEv
FNDA:250007,_ZN3Job8set_userEP4User
FNDA:73807800,_ZN3Job12get_durationEv
FNDA:1805029,_ZltRK3JobS1_
FNDA:1,_GLOBAL__sub_I__ZN3JobC2EP13Configurationly
FNDA:1,_Z41__static_initialization_and_destruction_0ii
FNF:13
FNH:13
DA:6,250012
DA:7,250012
DA:8,250012
DA:9,250012
DA:10,250012
DA:11,35925
DA:12,35925
DA:13,214087
DA:14,142535
DA:15,142535
DA:16,71552
DA:17,51095
DA:18,51095
DA:20,20457
DA:21,20457
DA:23,250012
DA:24,250012
DA:29,87926639
DA:34,85194528
DA:39,21655976
DA:44,770477
DA:49,500018
DA:50,500018
DA:56,88473651
DA:57,88473651
DA:63,969785
DA:64,969785
DA:70,250007
DA:71,250007
DA:72,250007
DA:77,73807800
DA:78,73807800
DA:84,1805029
DA:85,1805029
DA:86,3
LF:35
LH:35
end_of_record
TN:Supercomputer_Simulation_test_coverage
SF:/usr/include/c++/5/iostream
DA:74,1
LF:1
LH:1
end_of_record
SF:/mnt/7AAA6049AA60044B/GitHub/supercomputer-simulation/supercomputer/src/system/state.cpp
FN:6,_ZN5StateC2Exl9StateType
FN:20,_ZN5StateC2ES_l9StateType
FN:34,_ZN5State10insert_jobE3Job
FN:52,_ZN5State14can_insert_jobE3Job
FN:66,_ZN5State8get_timeEv
FN:73,_ZN5State8get_typeEv
FN:80,_ZN5State15get_short_coresEv
FN:85,_ZN5State16get_medium_coresEv
FN:90,_ZN5State15get_large_coresEv
FN:95,_ZN5State15get_total_coresEv
FN:100,_ZN5State14get_used_coresEv
FN:100,_GLOBAL__sub_I__ZN5StateC2Exl9StateType
FN:100,_Z41__static_initialization_and_destruction_0ii
FNDA:21507,_ZN5StateC2Exl9StateType
FNDA:478507,_ZN5StateC2ES_l9StateType
FNDA:1067478,_ZN5State10insert_jobE3Job
FNDA:86359146,_ZN5State14can_insert_jobE3Job
FNDA:101995223,_ZN5State8get_timeEv
FNDA:500014,_ZN5State8get_typeEv
FNDA:478507,_ZN5State15get_short_coresEv
FNDA:478507,_ZN5State16get_medium_coresEv
FNDA:478507,_ZN5State15get_large_coresEv
FNDA:478507,_ZN5State15get_total_coresEv
FNDA:1,_GLOBAL__sub_I__ZN5StateC2Exl9StateType
FNDA:1,_Z41__static_initialization_and_destruction_0ii
FNDA:478507,_ZN5State14get_used_coresEv
FNF:13
FNH:13
DA:6,21507
DA:7,21507
DA:8,21507
DA:9,21507
DA:10,21507
DA:11,21507
DA:13,21507
DA:14,21507
DA:15,21507
DA:20,478507
DA:21,478507
DA:22,478507
DA:23,478507
DA:24,478507
DA:25,478507
DA:27,478507
DA:28,478507
DA:29,478507
DA:34,1067478
DA:35,1067478
DA:36,307651
DA:37,759827
DA:38,555756
DA:39,204071
DA:40,183616
DA:41,20455
DA:42,20455
DA:43,20455
DA:44,20455
DA:46,1067478
DA:47,1067478
DA:52,86359146
DA:53,86359146
DA:54,86359146
DA:55,2352612
DA:56,84006534
DA:57,62697728
DA:58,21308806
DA:59,21308806
DA:61,86359146
DA:66,101995223
DA:67,101995223
DA:73,500014
DA:74,500014
DA:80,478507
DA:85,478507
DA:90,478507
DA:95,478507
DA:100,478510
LF:49
LH:49
end_of_record
TN:Supercomputer_Simulation_test_coverage
SF:/usr/include/c++/5/bits/alloc_traits.h
FN:490,_ZNSt16allocator_traitsISaI4WeekEE8allocateERS1_m
FN:490,_ZNSt16allocator_traitsISaIdEE8allocateERS0_m
FN:490,_ZNSt16allocator_traitsISaIyEE8allocateERS0_m
FN:516,_ZNSt16allocator_traitsISaIyEE10deallocateERS0_Pym
FN:516,_ZNSt16allocator_traitsISaI4WeekEE10deallocateERS1_PS0_m
FN:516,_ZNSt16allocator_traitsISaIdEE10deallocateERS0_Pdm
FN:529,_ZNSt16allocator_traitsISaIyEE9constructIyJRKyEEEvRS0_PT_DpOT0_
FN:529,_ZNSt16allocator_traitsISaI4WeekEE9constructIS0_JRKS0_EEEvRS1_PT_DpOT0_
FN:529,_ZNSt16allocator_traitsISaIdEE9constructIdJRKdEEEvRS0_PT_DpOT0_
FN:541,_ZNSt16allocator_traitsISaIdEE7destroyIdEEvRS0_PT_
FN:541,_ZNSt16allocator_traitsISaI4WeekEE7destroyIS0_EEvRS1_PT_
FN:541,_ZNSt16allocator_traitsISaIyEE7destroyIyEEvRS0_PT_
FN:550,_ZNSt16allocator_traitsISaIdEE8max_sizeERKS0_
FN:550,_ZNSt16allocator_traitsISaIyEE8max_sizeERKS0_
FN:550,_ZNSt16allocator_traitsISaI4WeekEE8max_sizeERKS1_
FNDA:3467,_ZNSt16allocator_traitsISaI4WeekEE8allocateERS1_m
FNDA:16380,_ZNSt16allocator_traitsISaIdEE8allocateERS0_m
FNDA:16380,_ZNSt16allocator_traitsISaIyEE8allocateERS0_m
FNDA:2966,_ZNSt16allocator_traitsISaI4WeekEE10deallocateERS1_PS0_m
FNDA:14376,_ZNSt16allocator_traitsISaIdEE10deallocateERS0_Pdm
FNDA:14376,_ZNSt16allocator_traitsISaIyEE10deallocateERS0_Pym
FNDA:20455,_ZNSt16allocator_traitsISaI4WeekEE9constructIS0_JRKS0_EEEvRS1_PT_DpOT0_
FNDA:250007,_ZNSt16allocator_traitsISaIdEE9constructIdJRKdEEEvRS0_PT_DpOT0_
FNDA:250007,_ZNSt16allocator_traitsISaIyEE9constructIyJRKyEEEvRS0_PT_DpOT0_
FNDA:0,_ZNSt16allocator_traitsISaI4WeekEE7destroyIS0_EEvRS1_PT_
FNDA:0,_ZNSt16allocator_traitsISaIdEE7destroyIdEEvRS0_PT_
FNDA:0,_ZNSt16allocator_traitsISaIyEE7destroyIyEEvRS0_PT_
FNDA:6934,_ZNSt16allocator_traitsISaI4WeekEE8max_sizeERKS1_
FNDA:32760,_ZNSt16allocator_traitsISaIdEE8max_sizeERKS0_
FNDA:32760,_ZNSt16allocator_traitsISaIyEE8max_sizeERKS0_
FNF:15
FNH:12
DA:490,36227
DA:491,36227
DA:516,31718
DA:517,31718
DA:529,520469
DA:530,520469
DA:541,0
DA:542,0
DA:550,72454
DA:551,72454
LF:10
LH:8
end_of_record
SF:/usr/include/c++/5/bits/allocator.h
FN:113,_ZNSaIyEC2Ev
FN:113,_ZNSaIdEC2Ev
FN:113,_ZNSaI4WeekEC2Ev
FNDA:501,_ZNSaI4WeekEC2Ev
FNDA:2004,_ZNSaIdEC2Ev
FNDA:2004,_ZNSaIyEC2Ev
FNF:3
FNH:3
DA:113,4509
LF:1
LH:1
end_of_record
SF:/usr/include/c++/5/bits/basic_string.h
FN:106,_ZNSt7__cxx1112basic_stringIcSt11char_traitsIcESaIcEE12_Alloc_hiderD2Ev
FN:191,_ZNSt7__cxx1112basic_stringIcSt11char_traitsIcESaIcEE16_M_construct_auxIPcEEvT_S7_St12__false_type
FN:211,_ZNSt7__cxx1112basic_stringIcSt11char_traitsIcESaIcEE12_M_constructIPcEEvT_S7_
FN:534,_ZNSt7__cxx1112basic_stringIcSt11char_traitsIcESaIcEEC2IPcvEET_S7_RKS3_
FN:4884,_ZStplIcSt11char_traitsIcESaIcEENSt7__cxx1112basic_stringIT_T0_T1_EEOS8_PKS5_
FN:5321,_ZNSt7__cxx119to_stringEx
FNDA:0,_ZNSt7__cxx1112basic_stringIcSt11char_traitsIcESaIcEE12_Alloc_hiderD2Ev
FNDA:0,_ZNSt7__cxx1112basic_stringIcSt11char_traitsIcESaIcEE16_M_construct_auxIPcEEvT_S7_St12__false_type
FNDA:0,_ZNSt7__cxx1112basic_stringIcSt11char_traitsIcESaIcEE12_M_constructIPcEEvT_S7_
FNDA:0,_ZNSt7__cxx1112basic_stringIcSt11char_traitsIcESaIcEEC2IPcvEET_S7_RKS3_
FNDA:0,_ZStplIcSt11char_traitsIcESaIcEENSt7__cxx1112basic_stringIT_T0_T1_EEOS8_PKS5_
FNDA:2004,_ZNSt7__cxx119to_stringEx
FNF:6
FNH:1
DA:106,0
DA:191,0
DA:195,0
DA:196,0
DA:211,0
DA:214,0
DA:215,0
DA:534,0
DA:536,0
DA:537,0
DA:4884,0
DA:4886,0
DA:5321,2004
DA:5324,2004
LF:14
LH:2
end_of_record
SF:/usr/include/c++/5/bits/basic_string.tcc
FN:210,_ZNSt7__cxx1112basic_stringIcSt11char_traitsIcESaIcEE12_M_constructIPcEEvT_S7_St20forward_iterator_tag
FNDA:0,_ZNSt7__cxx1112basic_stringIcSt11char_traitsIcESaIcEE12_M_constructIPcEEvT_S7_St20forward_iterator_tag
FNF:1
FNH:0
DA:210,0
DA:215,0
DA:216,0
DA:219,0
DA:221,0
DA:223,0
DA:224,0
DA:229,0
DA:230,0
DA:232,0
DA:233,0
DA:236,0
DA:237,0
LF:13
LH:0
end_of_record
SF:/usr/include/c++/5/bits/ios_base.h
FN:83,_ZStanSt13_Ios_FmtflagsS_
FN:87,_ZStorSt13_Ios_FmtflagsS_
FN:95,_ZStcoSt13_Ios_Fmtflags
FN:99,_ZStoRRSt13_Ios_FmtflagsS_
FN:103,_ZStaNRSt13_Ios_FmtflagsS_
FN:129,_ZStorSt13_Ios_OpenmodeS_
FN:663,_ZNSt8ios_base4setfESt13_Ios_FmtflagsS0_
FN:1041,_ZSt5fixedRSt8ios_base
FNDA:0,_ZStanSt13_Ios_FmtflagsS_
FNDA:0,_ZStorSt13_Ios_FmtflagsS_
FNDA:0,_ZStcoSt13_Ios_Fmtflags
FNDA:0,_ZStoRRSt13_Ios_FmtflagsS_
FNDA:0,_ZStaNRSt13_Ios_FmtflagsS_
FNDA:0,_ZStorSt13_Ios_OpenmodeS_
FNDA:0,_ZNSt8ios_base4setfESt13_Ios_FmtflagsS0_
FNDA:0,_ZSt5fixedRSt8ios_base
FNF:8
FNH:0
DA:83,0
DA:84,0
DA:87,0
DA:88,0
DA:95,0
DA:96,0
DA:99,0
DA:100,0
DA:103,0
DA:104,0
DA:129,0
DA:130,0
DA:663,0
DA:665,0
DA:666,0
DA:667,0
DA:668,0
DA:1041,0
DA:1043,0
DA:1044,0
LF:20
LH:0
end_of_record
SF:/usr/include/c++/5/bits/move.h
FN:47,_ZSt11__addressofI4WeekEPT_RS1_
FN:76,_ZSt7forwardI4WeekEOT_RNSt16remove_referenceIS1_E4typeE
FN:76,_ZSt7forwardIRKyEOT_RNSt16remove_referenceIS2_E4typeE
FN:76,_ZSt7forwardIRK4WeekEOT_RNSt16remove_referenceIS3_E4typeE
FN:76,_ZSt7forwardIRKdEOT_RNSt16remove_referenceIS2_E4typeE
FN:101,_ZSt4moveIRNSt7__cxx1112basic_stringIcSt11char_traitsIcESaIcEEEEONSt16remove_referenceIT_E4typeEOS8_
FNDA:30351,_ZSt11__addressofI4WeekEPT_RS1_
FNDA:30351,_ZSt7forwardI4WeekEOT_RNSt16remove_referenceIS1_E4typeE
FNDA:44377,_ZSt7forwardIRK4WeekEOT_RNSt16remove_referenceIS3_E4typeE
FNDA:516394,_ZSt7forwardIRKdEOT_RNSt16remove_referenceIS2_E4typeE
FNDA:516394,_ZSt7forwardIRKyEOT_RNSt16remove_referenceIS2_E4typeE
FNDA:0,_ZSt4moveIRNSt7__cxx1112basic_stringIcSt11char_traitsIcESaIcEEEEONSt16remove_referenceIT_E4typeEOS8_
FNF:6
FNH:5
DA:47,30351
DA:50,30351
DA:76,1107516
DA:77,1107516
DA:101,0
DA:102,0
LF:6
LH:4
end_of_record
SF:/usr/include/c++/5/bits/stl_algobase.h
FN:219,_ZSt3maxImERKT_S2_S2_
FN:282,_ZSt12__niter_baseIPdENSt11_Niter_baseIT_E13iterator_typeES2_
FN:282,_ZSt12__niter_baseIPyENSt11_Niter_baseIT_E13iterator_typeES2_
FN:293,_ZSt12__miter_baseISt13move_iteratorIPyEENSt11_Miter_baseIT_E13iterator_typeES4_
FN:293,_ZSt12__miter_baseISt13move_iteratorIPdEENSt11_Miter_baseIT_E13iterator_typeES4_
FN:373,_ZNSt11__copy_moveILb1ELb1ESt26random_access_iterator_tagE8__copy_mIdEEPT_PKS3_S6_S4_
FN:373,_ZNSt11__copy_moveILb1ELb1ESt26random_access_iterator_tagE8__copy_mIyEEPT_PKS3_S6_S4_
FN:391,_ZSt13__copy_move_aILb1EPyS0_ET1_T0_S2_S1_
FN:391,_ZSt13__copy_move_aILb1EPdS0_ET1_T0_S2_S1_
FN:436,_ZSt14__copy_move_a2ILb1EPyS0_ET1_T0_S2_S1_
FN:436,_ZSt14__copy_move_a2ILb1EPdS0_ET1_T0_S2_S1_
FN:462,_ZSt4copyISt13move_iteratorIPdES1_ET0_T_S4_S3_
FN:462,_ZSt4copyISt13move_iteratorIPyES1_ET0_T_S4_S3_
FNDA:0,_ZSt3maxImERKT_S2_S2_
FNDA:49140,_ZSt12__niter_baseIPdENSt11_Niter_baseIT_E13iterator_typeES2_
FNDA:49140,_ZSt12__niter_baseIPyENSt11_Niter_baseIT_E13iterator_typeES2_
FNDA:32760,_ZSt12__miter_baseISt13move_iteratorIPdEENSt11_Miter_baseIT_E13iterator_typeES4_
FNDA:32760,_ZSt12__miter_baseISt13move_iteratorIPyEENSt11_Miter_baseIT_E13iterator_typeES4_
FNDA:16380,_ZNSt11__copy_moveILb1ELb1ESt26random_access_iterator_tagE8__copy_mIdEEPT_PKS3_S6_S4_
FNDA:16380,_ZNSt11__copy_moveILb1ELb1ESt26random_access_iterator_tagE8__copy_mIyEEPT_PKS3_S6_S4_
FNDA:16380,_ZSt13__copy_move_aILb1EPdS0_ET1_T0_S2_S1_
FNDA:16380,_ZSt13__copy_move_aILb1EPyS0_ET1_T0_S2_S1_
FNDA:16380,_ZSt14__copy_move_a2ILb1EPdS0_ET1_T0_S2_S1_
FNDA:16380,_ZSt14__copy_move_a2ILb1EPyS0_ET1_T0_S2_S1_
FNDA:16380,_ZSt4copyISt13move_iteratorIPdES1_ET0_T_S4_S3_
FNDA:16380,_ZSt4copyISt13move_iteratorIPyES1_ET0_T_S4_S3_
FNF:13
FNH:12
DA:219,0
DA:224,0
DA:225,0
DA:226,0
DA:282,98280
DA:283,98280
DA:293,65520
DA:294,65520
DA:373,32760
DA:382,32760
DA:383,32760
DA:384,28752
DA:385,32760
DA:391,32760
DA:399,32760
DA:402,32760
DA:436,32760
DA:438,32760
DA:440,32760
DA:462,32760
DA:471,32760
DA:472,32760
LF:22
LH:18
end_of_record
SF:/usr/include/c++/5/bits/stl_construct.h
FN:74,_ZSt10_ConstructI4WeekJS0_EEvPT_DpOT0_
FN:112,_ZNSt12_Destroy_auxILb1EE9__destroyIPyEEvT_S3_
FN:112,_ZNSt12_Destroy_auxILb1EE9__destroyIP4WeekEEvT_S4_
FN:112,_ZNSt12_Destroy_auxILb1EE9__destroyIPdEEvT_S3_
FN:122,_ZSt8_DestroyIPdEvT_S1_
FN:122,_ZSt8_DestroyIP4WeekEvT_S2_
FN:122,_ZSt8_DestroyIPyEvT_S1_
FN:148,_ZSt8_DestroyIP4WeekS0_EvT_S2_RSaIT0_E
FN:148,_ZSt8_DestroyIPddEvT_S1_RSaIT0_E
FN:148,_ZSt8_DestroyIPyyEvT_S1_RSaIT0_E
FNDA:30351,_ZSt10_ConstructI4WeekJS0_EEvPT_DpOT0_
FNDA:3467,_ZNSt12_Destroy_auxILb1EE9__destroyIP4WeekEEvT_S4_
FNDA:16380,_ZNSt12_Destroy_auxILb1EE9__destroyIPdEEvT_S3_
FNDA:16380,_ZNSt12_Destroy_auxILb1EE9__destroyIPyEEvT_S3_
FNDA:3467,_ZSt8_DestroyIP4WeekEvT_S2_
FNDA:16380,_ZSt8_DestroyIPdEvT_S1_
FNDA:16380,_ZSt8_DestroyIPyEvT_S1_
FNDA:3467,_ZSt8_DestroyIP4WeekS0_EvT_S2_RSaIT0_E
FNDA:16380,_ZSt8_DestroyIPddEvT_S1_RSaIT0_E
FNDA:16380,_ZSt8_DestroyIPyyEvT_S1_RSaIT0_E
FNF:10
FNH:10
DA:74,30351
DA:75,30351
DA:112,36227
DA:122,36227
DA:126,36227
DA:128,36227
DA:148,36227
DA:151,36227
DA:152,36227
LF:9
LH:9
end_of_record
SF:/usr/include/c++/5/bits/stl_iterator.h
FN:740,_ZN9__gnu_cxx17__normal_iteratorIPdSt6vectorIdSaIdEEEC2ERKS1_
FN:740,_ZN9__gnu_cxx17__normal_iteratorIPySt6vectorIySaIyEEEC2ERKS1_
FN:753,_ZNK9__gnu_cxx17__normal_iteratorIPySt6vectorIySaIyEEEdeEv
FN:753,_ZNK9__gnu_cxx17__normal_iteratorIPdSt6vectorIdSaIdEEEdeEv
FN:761,_ZN9__gnu_cxx17__normal_iteratorIPdSt6vectorIdSaIdEEEppEv
FN:761,_ZN9__gnu_cxx17__normal_iteratorIPySt6vectorIySaIyEEEppEv
FN:805,_ZNK9__gnu_cxx17__normal_iteratorIPySt6vectorIySaIyEEE4baseEv
FN:805,_ZNK9__gnu_cxx17__normal_iteratorIPdSt6vectorIdSaIdEEE4baseEv
FN:841,_ZN9__gnu_cxxneIPySt6vectorIySaIyEEEEbRKNS_17__normal_iteratorIT_T0_EESA_
FN:841,_ZN9__gnu_cxxneIPdSt6vectorIdSaIdEEEEbRKNS_17__normal_iteratorIT_T0_EESA_
FN:984,_ZNSt13move_iteratorIP4WeekEC2ES1_
FN:984,_ZNSt13move_iteratorIPyEC2ES0_
FN:984,_ZNSt13move_iteratorIPdEC2ES0_
FN:992,_ZNKSt13move_iteratorIPdE4baseEv
FN:992,_ZNKSt13move_iteratorIP4WeekE4baseEv
FN:992,_ZNKSt13move_iteratorIPyE4baseEv
FN:996,_ZNKSt13move_iteratorIP4WeekEdeEv
FN:1004,_ZNSt13move_iteratorIP4WeekEppEv
FN:1071,_ZSteqIP4WeekEbRKSt13move_iteratorIT_ES6_
FN:1083,_ZStneIP4WeekEbRKSt13move_iteratorIT_ES6_
FN:1166,_ZSt32__make_move_if_noexcept_iteratorIPySt13move_iteratorIS0_EET0_T_
FN:1166,_ZSt32__make_move_if_noexcept_iteratorIPdSt13move_iteratorIS0_EET0_T_
FN:1166,_ZSt32__make_move_if_noexcept_iteratorIP4WeekSt13move_iteratorIS1_EET0_T_
FNDA:4008,_ZN9__gnu_cxx17__normal_iteratorIPySt6vectorIySaIyEEEC2ERKS1_
FNDA:4008,_ZN9__gnu_cxx17__normal_iteratorIPdSt6vectorIdSaIdEEEC2ERKS1_
FNDA:250007,_ZNK9__gnu_cxx17__normal_iteratorIPySt6vectorIySaIyEEEdeEv
FNDA:250007,_ZNK9__gnu_cxx17__normal_iteratorIPdSt6vectorIdSaIdEEEdeEv
FNDA:250007,_ZN9__gnu_cxx17__normal_iteratorIPySt6vectorIySaIyEEEppEv
FNDA:250007,_ZN9__gnu_cxx17__normal_iteratorIPdSt6vectorIdSaIdEEEppEv
FNDA:504022,_ZNK9__gnu_cxx17__normal_iteratorIPySt6vectorIySaIyEEE4baseEv
FNDA:504022,_ZNK9__gnu_cxx17__normal_iteratorIPdSt6vectorIdSaIdEEE4baseEv
FNDA:252011,_ZN9__gnu_cxxneIPySt6vectorIySaIyEEEEbRKNS_17__normal_iteratorIT_T0_EESA_
FNDA:252011,_ZN9__gnu_cxxneIPdSt6vectorIdSaIdEEEEbRKNS_17__normal_iteratorIT_T0_EESA_
FNDA:6934,_ZNSt13move_iteratorIP4WeekEC2ES1_
FNDA:32760,_ZNSt13move_iteratorIPdEC2ES0_
FNDA:32760,_ZNSt13move_iteratorIPyEC2ES0_
FNDA:32760,_ZNKSt13move_iteratorIPdE4baseEv
FNDA:32760,_ZNKSt13move_iteratorIPyE4baseEv
FNDA:67636,_ZNKSt13move_iteratorIP4WeekE4baseEv
FNDA:30351,_ZNKSt13move_iteratorIP4WeekEdeEv
FNDA:30351,_ZNSt13move_iteratorIP4WeekEppEv
FNDA:33818,_ZSteqIP4WeekEbRKSt13move_iteratorIT_ES6_
FNDA:33818,_ZStneIP4WeekEbRKSt13move_iteratorIT_ES6_
FNDA:6934,_ZSt32__make_move_if_noexcept_iteratorIP4WeekSt13move_iteratorIS1_EET0_T_
FNDA:32760,_ZSt32__make_move_if_noexcept_iteratorIPdSt13move_iteratorIS0_EET0_T_
FNDA:32760,_ZSt32__make_move_if_noexcept_iteratorIPySt13move_iteratorIS0_EET0_T_
FNF:23
FNH:23
DA:740,8016
DA:741,8016
DA:753,500014
DA:754,500014
DA:761,500014
DA:763,500014
DA:764,500014
DA:805,1008044
DA:806,1008044
DA:841,504022
DA:844,504022
DA:984,72454
DA:985,72454
DA:992,133156
DA:993,133156
DA:996,30351
DA:997,30351
DA:1004,30351
DA:1006,30351
DA:1007,30351
DA:1071,33818
DA:1073,33818
DA:1083,33818
DA:1085,33818
DA:1166,72454
DA:1167,72454
LF:26
LH:26
end_of_record
SF:/usr/include/c++/5/bits/stl_iterator_base_funcs.h
FN:90,_ZSt10__distanceIPcENSt15iterator_traitsIT_E15difference_typeES2_S2_St26random_access_iterator_tag
FN:114,_ZSt8distanceIPcENSt15iterator_traitsIT_E15difference_typeES2_S2_
FNDA:0,_ZSt10__distanceIPcENSt15iterator_traitsIT_E15difference_typeES2_S2_St26random_access_iterator_tag
FNDA:0,_ZSt8distanceIPcENSt15iterator_traitsIT_E15difference_typeES2_S2_
FNF:2
FNH:0
DA:90,0
DA:96,0
DA:114,0
DA:117,0
DA:118,0
LF:5
LH:0
end_of_record
SF:/usr/include/c++/5/bits/stl_iterator_base_types.h
FN:204,_ZSt19__iterator_categoryIPcENSt15iterator_traitsIT_E17iterator_categoryERKS2_
FN:215,_ZNSt10_Iter_baseIPdLb0EE7_S_baseES0_
FN:215,_ZNSt10_Iter_baseIPyLb0EE7_S_baseES0_
FN:223,_ZNSt10_Iter_baseISt13move_iteratorIPyELb1EE7_S_baseES2_
FN:223,_ZNSt10_Iter_baseISt13move_iteratorIPdELb1EE7_S_baseES2_
FNDA:0,_ZSt19__iterator_categoryIPcENSt15iterator_traitsIT_E17iterator_categoryERKS2_
FNDA:49140,_ZNSt10_Iter_baseIPdLb0EE7_S_baseES0_
FNDA:49140,_ZNSt10_Iter_baseIPyLb0EE7_S_baseES0_
FNDA:32760,_ZNSt10_Iter_baseISt13move_iteratorIPdELb1EE7_S_baseES2_
FNDA:32760,_ZNSt10_Iter_baseISt13move_iteratorIPyELb1EE7_S_baseES2_
FNF:5
FNH:4
DA:204,0
DA:205,0
DA:215,98280
DA:216,98280
DA:223,65520
DA:224,65520
LF:6
LH:4
end_of_record
SF:/usr/include/c++/5/bits/stl_numeric.h
FN:120,_ZSt10accumulateIN9__gnu_cxx17__normal_iteratorIPdSt6vectorIdSaIdEEEEdET0_T_S8_S7_
FN:120,_ZSt10accumulateIN9__gnu_cxx17__normal_iteratorIPySt6vectorIySaIyEEEEdET0_T_S8_S7_
FNDA:2004,_ZSt10accumulateIN9__gnu_cxx17__normal_iteratorIPySt6vectorIySaIyEEEEdET0_T_S8_S7_
FNDA:2004,_ZSt10accumulateIN9__gnu_cxx17__normal_iteratorIPdSt6vectorIdSaIdEEEEdET0_T_S8_S7_
FNF:2
FNH:2
DA:120,504022
DA:126,1004036
DA:127,500014
DA:128,4008
LF:4
LH:4
end_of_record
SF:/usr/include/c++/5/bits/stl_uninitialized.h
FN:68,_ZNSt20__uninitialized_copyILb0EE13__uninit_copyISt13move_iteratorIP4WeekES4_EET0_T_S7_S6_
FN:91,_ZNSt20__uninitialized_copyILb1EE13__uninit_copyISt13move_iteratorIPyES3_EET0_T_S6_S5_
FN:91,_ZNSt20__uninitialized_copyILb1EE13__uninit_copyISt13move_iteratorIPdES3_EET0_T_S6_S5_
FN:107,_ZSt18uninitialized_copyISt13move_iteratorIPdES1_ET0_T_S4_S3_
FN:107,_ZSt18uninitialized_copyISt13move_iteratorIP4WeekES2_ET0_T_S5_S4_
FN:107,_ZSt18uninitialized_copyISt13move_iteratorIPyES1_ET0_T_S4_S3_
FN:279,_ZSt22__uninitialized_copy_aISt13move_iteratorIPdES1_dET0_T_S4_S3_RSaIT1_E
FN:279,_ZSt22__uninitialized_copy_aISt13move_iteratorIPyES1_yET0_T_S4_S3_RSaIT1_E
FN:279,_ZSt22__uninitialized_copy_aISt13move_iteratorIP4WeekES2_S1_ET0_T_S5_S4_RSaIT1_E
FN:297,_ZSt34__uninitialized_move_if_noexcept_aIP4WeekS1_SaIS0_EET0_T_S4_S3_RT1_
FN:297,_ZSt34__uninitialized_move_if_noexcept_aIPdS0_SaIdEET0_T_S3_S2_RT1_
FN:297,_ZSt34__uninitialized_move_if_noexcept_aIPyS0_SaIyEET0_T_S3_S2_RT1_
FNDA:3467,_ZNSt20__uninitialized_copyILb0EE13__uninit_copyISt13move_iteratorIP4WeekES4_EET0_T_S7_S6_
FNDA:16380,_ZNSt20__uninitialized_copyILb1EE13__uninit_copyISt13move_iteratorIPdES3_EET0_T_S6_S5_
FNDA:16380,_ZNSt20__uninitialized_copyILb1EE13__uninit_copyISt13move_iteratorIPyES3_EET0_T_S6_S5_
FNDA:3467,_ZSt18uninitialized_copyISt13move_iteratorIP4WeekES2_ET0_T_S5_S4_
FNDA:16380,_ZSt18uninitialized_copyISt13move_iteratorIPdES1_ET0_T_S4_S3_
FNDA:16380,_ZSt18uninitialized_copyISt13move_iteratorIPyES1_ET0_T_S4_S3_
FNDA:3467,_ZSt22__uninitialized_copy_aISt13move_iteratorIP4WeekES2_S1_ET0_T_S5_S4_RSaIT1_E
FNDA:16380,_ZSt22__uninitialized_copy_aISt13move_iteratorIPdES1_dET0_T_S4_S3_RSaIT1_E
FNDA:16380,_ZSt22__uninitialized_copy_aISt13move_iteratorIPyES1_yET0_T_S4_S3_RSaIT1_E
FNDA:3467,_ZSt34__uninitialized_move_if_noexcept_aIP4WeekS1_SaIS0_EET0_T_S4_S3_RT1_
FNDA:16380,_ZSt34__uninitialized_move_if_noexcept_aIPdS0_SaIdEET0_T_S3_S2_RT1_
FNDA:16380,_ZSt34__uninitialized_move_if_noexcept_aIPyS0_SaIyEET0_T_S3_S2_RT1_
FNF:12
FNH:12
DA:68,3467
DA:71,3467
DA:74,64169
DA:75,30351
DA:76,3467
DA:78,0
DA:80,0
DA:81,0
DA:91,32760
DA:93,32760
DA:107,36227
DA:120,36227
DA:126,36227
DA:279,36227
DA:281,36227
DA:297,36227
DA:303,36227
DA:304,36227
LF:18
LH:15
end_of_record
SF:/usr/include/c++/5/bits/stl_vector.h
FN:86,_ZNSt12_Vector_baseIySaIyEE12_Vector_implC2Ev
FN:86,_ZNSt12_Vector_baseI4WeekSaIS0_EE12_Vector_implC2Ev
FN:86,_ZNSt12_Vector_baseIdSaIdEE12_Vector_implC2Ev
FN:113,_ZNSt12_Vector_baseIdSaIdEE19_M_get_Tp_allocatorEv
FN:113,_ZNSt12_Vector_baseI4WeekSaIS0_EE19_M_get_Tp_allocatorEv
FN:113,_ZNSt12_Vector_baseIySaIyEE19_M_get_Tp_allocatorEv
FN:117,_ZNKSt12_Vector_baseI4WeekSaIS0_EE19_M_get_Tp_allocatorEv
FN:117,_ZNKSt12_Vector_baseIdSaIdEE19_M_get_Tp_allocatorEv
FN:117,_ZNKSt12_Vector_baseIySaIyEE19_M_get_Tp_allocatorEv
FN:124,_ZNSt12_Vector_baseI4WeekSaIS0_EEC2Ev
FN:124,_ZNSt12_Vector_baseIySaIyEEC2Ev
FN:124,_ZNSt12_Vector_baseIdSaIdEEC2Ev
FN:167,_ZNSt12_Vector_baseIySaIyEE11_M_allocateEm
FN:167,_ZNSt12_Vector_baseI4WeekSaIS0_EE11_M_allocateEm
FN:167,_ZNSt12_Vector_baseIdSaIdEE11_M_allocateEm
FN:174,_ZNSt12_Vector_baseIySaIyEE13_M_deallocateEPym
FN:174,_ZNSt12_Vector_baseI4WeekSaIS0_EE13_M_deallocateEPS0_m
FN:174,_ZNSt12_Vector_baseIdSaIdEE13_M_deallocateEPdm
FN:253,_ZNSt6vectorIdSaIdEEC2Ev
FN:253,_ZNSt6vectorI4WeekSaIS0_EEC2Ev
FN:253,_ZNSt6vectorIySaIyEEC2Ev
FN:547,_ZNSt6vectorIySaIyEE5beginEv
FN:547,_ZNSt6vectorIdSaIdEE5beginEv
FN:565,_ZNSt6vectorIdSaIdEE3endEv
FN:565,_ZNSt6vectorIySaIyEE3endEv
FN:654,_ZNKSt6vectorIdSaIdEE4sizeEv
FN:654,_ZNKSt6vectorI4WeekSaIS0_EE4sizeEv
FN:654,_ZNKSt6vectorIySaIyEE4sizeEv
FN:659,_ZNKSt6vectorI4WeekSaIS0_EE8max_sizeEv
FN:659,_ZNKSt6vectorIySaIyEE8max_sizeEv
FN:659,_ZNKSt6vectorIdSaIdEE8max_sizeEv
FN:779,_ZNSt6vectorI4WeekSaIS0_EEixEm
FN:913,_ZNSt6vectorI4WeekSaIS0_EE9push_backERKS0_
FN:913,_ZNSt6vectorIdSaIdEE9push_backERKd
FN:913,_ZNSt6vectorIySaIyEE9push_backERKy
FN:1422,_ZNKSt6vectorIySaIyEE12_M_check_lenEmPKc
FN:1422,_ZNKSt6vectorI4WeekSaIS0_EE12_M_check_lenEmPKc
FN:1422,_ZNKSt6vectorIdSaIdEE12_M_check_lenEmPKc
FNDA:501,_ZNSt12_Vector_baseI4WeekSaIS0_EE12_Vector_implC2Ev
FNDA:2004,_ZNSt12_Vector_baseIdSaIdEE12_Vector_implC2Ev
FNDA:2004,_ZNSt12_Vector_baseIySaIyEE12_Vector_implC2Ev
FNDA:6934,_ZNSt12_Vector_baseI4WeekSaIS0_EE19_M_get_Tp_allocatorEv
FNDA:32760,_ZNSt12_Vector_baseIdSaIdEE19_M_get_Tp_allocatorEv
FNDA:32760,_ZNSt12_Vector_baseIySaIyEE19_M_get_Tp_allocatorEv
FNDA:6934,_ZNKSt12_Vector_baseI4WeekSaIS0_EE19_M_get_Tp_allocatorEv
FNDA:32760,_ZNKSt12_Vector_baseIdSaIdEE19_M_get_Tp_allocatorEv
FNDA:32760,_ZNKSt12_Vector_baseIySaIyEE19_M_get_Tp_allocatorEv
FNDA:501,_ZNSt12_Vector_baseI4WeekSaIS0_EEC2Ev
FNDA:2004,_ZNSt12_Vector_baseIdSaIdEEC2Ev
FNDA:2004,_ZNSt12_Vector_baseIySaIyEEC2Ev
FNDA:3467,_ZNSt12_Vector_baseI4WeekSaIS0_EE11_M_allocateEm
FNDA:16380,_ZNSt12_Vector_baseIdSaIdEE11_M_allocateEm
FNDA:16380,_ZNSt12_Vector_baseIySaIyEE11_M_allocateEm
FNDA:3467,_ZNSt12_Vector_baseI4WeekSaIS0_EE13_M_deallocateEPS0_m
FNDA:16380,_ZNSt12_Vector_baseIdSaIdEE13_M_deallocateEPdm
FNDA:16380,_ZNSt12_Vector_baseIySaIyEE13_M_deallocateEPym
FNDA:501,_ZNSt6vectorI4WeekSaIS0_EEC2Ev
FNDA:2004,_ZNSt6vectorIdSaIdEEC2Ev
FNDA:2004,_ZNSt6vectorIySaIyEEC2Ev
FNDA:2004,_ZNSt6vectorIySaIyEE5beginEv
FNDA:2004,_ZNSt6vectorIdSaIdEE5beginEv
FNDA:2004,_ZNSt6vectorIySaIyEE3endEv
FNDA:2004,_ZNSt6vectorIdSaIdEE3endEv
FNDA:85908,_ZNKSt6vectorIySaIyEE4sizeEv
FNDA:85908,_ZNKSt6vectorIdSaIdEE4sizeEv
FNDA:5470434,_ZNKSt6vectorI4WeekSaIS0_EE4sizeEv
FNDA:6934,_ZNKSt6vectorI4WeekSaIS0_EE8max_sizeEv
FNDA:32760,_ZNKSt6vectorIdSaIdEE8max_sizeEv
FNDA:32760,_ZNKSt6vectorIySaIyEE8max_sizeEv
FNDA:11231386,_ZNSt6vectorI4WeekSaIS0_EEixEm
FNDA:20455,_ZNSt6vectorI4WeekSaIS0_EE9push_backERKS0_
FNDA:250007,_ZNSt6vectorIdSaIdEE9push_backERKd
FNDA:250007,_ZNSt6vectorIySaIyEE9push_backERKy
FNDA:3467,_ZNKSt6vectorI4WeekSaIS0_EE12_M_check_lenEmPKc
FNDA:16380,_ZNKSt6vectorIdSaIdEE12_M_check_lenEmPKc
FNDA:16380,_ZNKSt6vectorIySaIyEE12_M_check_lenEmPKc
FNF:38
FNH:38
DA:86,4509
DA:87,4509
DA:88,4509
DA:113,72454
DA:114,72454
DA:117,72454
DA:118,72454
DA:124,4509
DA:125,4509
DA:167,36227
DA:170,36227
DA:174,36227
DA:177,36227
DA:178,31718
DA:179,36227
DA:253,4509
DA:257,4509
DA:547,4008
DA:548,4008
DA:565,4008
DA:566,4008
DA:654,5642250
DA:655,5642250
DA:659,72454
DA:660,72454
DA:779,11231386
DA:780,11231386
DA:913,520469
DA:915,520469
DA:917,484242
DA:919,484242
DA:923,36227
DA:927,520469
DA:1422,36227
DA:1424,36227
DA:1425,0
DA:1427,36227
DA:1428,36227
LF:38
LH:37
end_of_record
SF:/usr/include/c++/5/bits/vector.tcc
FN:407,_ZNSt6vectorI4WeekSaIS0_EE19_M_emplace_back_auxIJRKS0_EEEvDpOT_
FN:407,_ZNSt6vectorIdSaIdEE19_M_emplace_back_auxIJRKdEEEvDpOT_
FN:407,_ZNSt6vectorIySaIyEE19_M_emplace_back_auxIJRKyEEEvDpOT_
FNDA:3467,_ZNSt6vectorI4WeekSaIS0_EE19_M_emplace_back_auxIJRKS0_EEEvDpOT_
FNDA:16380,_ZNSt6vectorIdSaIdEE19_M_emplace_back_auxIJRKdEEEvDpOT_
FNDA:16380,_ZNSt6vectorIySaIyEE19_M_emplace_back_auxIJRKyEEEvDpOT_
FNF:3
FNH:3
DA:407,36227
DA:411,36227
DA:412,36227
DA:413,36227
DA:416,36227
DA:417,36227
DA:418,36227
DA:420,36227
DA:422,36227
DA:423,36227
DA:425,36227
DA:427,0
DA:429,0
DA:430,0
DA:432,0
DA:433,0
DA:434,0
DA:436,36227
DA:437,36227
DA:438,72454
DA:440,72454
DA:441,36227
DA:442,36227
DA:443,36227
DA:444,36227
LF:25
LH:19
end_of_record
SF:/usr/include/c++/5/ext/new_allocator.h
FN:79,_ZN9__gnu_cxx13new_allocatorI4WeekEC2Ev
FN:79,_ZN9__gnu_cxx13new_allocatorIdEC2Ev
FN:79,_ZN9__gnu_cxx13new_allocatorIyEC2Ev
FN:99,_ZN9__gnu_cxx13new_allocatorIdE8allocateEmPKv
FN:99,_ZN9__gnu_cxx13new_allocatorI4WeekE8allocateEmPKv
FN:99,_ZN9__gnu_cxx13new_allocatorIyE8allocateEmPKv
FN:109,_ZN9__gnu_cxx13new_allocatorIyE10deallocateEPym
FN:109,_ZN9__gnu_cxx13new_allocatorIdE10deallocateEPdm
FN:109,_ZN9__gnu_cxx13new_allocatorI4WeekE10deallocateEPS1_m
FN:113,_ZNK9__gnu_cxx13new_allocatorI4WeekE8max_sizeEv
FN:113,_ZNK9__gnu_cxx13new_allocatorIdE8max_sizeEv
FN:113,_ZNK9__gnu_cxx13new_allocatorIyE8max_sizeEv
FN:119,_ZN9__gnu_cxx13new_allocatorI4WeekE9constructIS1_JRKS1_EEEvPT_DpOT0_
FN:119,_ZN9__gnu_cxx13new_allocatorIdE9constructIdJRKdEEEvPT_DpOT0_
FN:119,_ZN9__gnu_cxx13new_allocatorIyE9constructIyJRKyEEEvPT_DpOT0_
FN:124,_ZN9__gnu_cxx13new_allocatorIyE7destroyIyEEvPT_
FN:124,_ZN9__gnu_cxx13new_allocatorI4WeekE7destroyIS1_EEvPT_
FN:124,_ZN9__gnu_cxx13new_allocatorIdE7destroyIdEEvPT_
FNDA:501,_ZN9__gnu_cxx13new_allocatorI4WeekEC2Ev
FNDA:2004,_ZN9__gnu_cxx13new_allocatorIdEC2Ev
FNDA:2004,_ZN9__gnu_cxx13new_allocatorIyEC2Ev
FNDA:3467,_ZN9__gnu_cxx13new_allocatorI4WeekE8allocateEmPKv
FNDA:16380,_ZN9__gnu_cxx13new_allocatorIdE8allocateEmPKv
FNDA:16380,_ZN9__gnu_cxx13new_allocatorIyE8allocateEmPKv
FNDA:2966,_ZN9__gnu_cxx13new_allocatorI4WeekE10deallocateEPS1_m
FNDA:14376,_ZN9__gnu_cxx13new_allocatorIdE10deallocateEPdm
FNDA:14376,_ZN9__gnu_cxx13new_allocatorIyE10deallocateEPym
FNDA:10401,_ZNK9__gnu_cxx13new_allocatorI4WeekE8max_sizeEv
FNDA:49140,_ZNK9__gnu_cxx13new_allocatorIdE8max_sizeEv
FNDA:49140,_ZNK9__gnu_cxx13new_allocatorIyE8max_sizeEv
FNDA:20455,_ZN9__gnu_cxx13new_allocatorI4WeekE9constructIS1_JRKS1_EEEvPT_DpOT0_
FNDA:250007,_ZN9__gnu_cxx13new_allocatorIdE9constructIdJRKdEEEvPT_DpOT0_
FNDA:250007,_ZN9__gnu_cxx13new_allocatorIyE9constructIyJRKyEEEvPT_DpOT0_
FNDA:0,_ZN9__gnu_cxx13new_allocatorI4WeekE7destroyIS1_EEvPT_
FNDA:0,_ZN9__gnu_cxx13new_allocatorIdE7destroyIdEEvPT_
FNDA:0,_ZN9__gnu_cxx13new_allocatorIyE7destroyIyEEvPT_
FNF:18
FNH:15
DA:79,4509
DA:99,36227
DA:101,36227
DA:102,0
DA:104,36227
DA:109,31718
DA:110,31718
DA:113,108681
DA:114,108681
DA:119,520469
DA:120,520469
DA:124,0
LF:12
LH:10
end_of_record
SF:/usr/include/c++/5/ext/string_conversions.h
FN:83,_ZN9__gnu_cxx12__to_xstringINSt7__cxx1112basic_stringIcSt11char_traitsIcESaIcEEEcEET_PFiPT0_mPKS8_P13__va_list_tagEmSB_z
FNDA:83824,_ZN9__gnu_cxx12__to_xstringINSt7__cxx1112basic_stringIcSt11char_traitsIcESaIcEEEcEET_PFiPT0_mPKS8_P13__va_list_tagEmSB_z
FNF:1
FNH:1
DA:83,83824
DA:89,83824
DA:90,83824
DA:93,83824
DA:95,83824
DA:97,83824
DA:99,83824
LF:7
LH:7
end_of_record
SF:/usr/include/c++/5/ext/type_traits.h
FN:150,_ZN9__gnu_cxx17__is_null_pointerIcEEbPT_
FNDA:0,_ZN9__gnu_cxx17__is_null_pointerIcEEbPT_
FNF:1
FNH:0
DA:150,0
DA:151,0
LF:2
LH:0
end_of_record
SF:/usr/include/c++/5/iomanip
FN:195,_ZSt12setprecisioni
FNDA:0,_ZSt12setprecisioni
FNF:1
FNH:0
DA:195,0
DA:196,0
LF:2
LH:0
end_of_record
SF:/usr/include/c++/5/iostream
DA:74,1
LF:1
LH:1
end_of_record
SF:/usr/include/c++/5/new
FN:129,_ZnwmPv
FNDA:0,_ZnwmPv
FNF:1
FNH:0
DA:129,0
DA:130,0
LF:2
LH:0
end_of_record
SF:/mnt/7AAA6049AA60044B/GitHub/supercomputer-simulation/supercomputer/src/statistics/statistics.cpp
FN:6,_ZN10StatisticsC2EP13Configuration
FN:16,_ZN10Statistics15add_usage_priceEd
FN:23,_ZN10Statistics20add_operational_costEd
FN:30,_ZN10Statistics16add_machine_timeEy
FN:38,_ZN10Statistics7add_jobEl3Job
FN:92,_ZN10Statistics12get_short_taB5cxx11Ev
FN:104,_ZN10Statistics13get_medium_taB5cxx11Ev
FN:116,_ZN10Statistics12get_large_taB5cxx11Ev
FN:128,_ZN10Statistics11get_huge_taB5cxx11Ev
FN:140,_ZN10Statistics12get_short_wtB5cxx11Ev
FN:152,_ZN10Statistics13get_medium_wtB5cxx11Ev
FN:164,_ZN10Statistics12get_large_wtB5cxx11Ev
FN:176,_ZN10Statistics11get_huge_wtB5cxx11Ev
FN:188,_ZN10Statistics20get_operational_costB5cxx11Ev
FN:197,_ZN10Statistics20get_economic_balanceB5cxx11Ev
FN:206,_ZN10Statistics16get_machine_timeB5cxx11Ev
FN:222,_ZN10Statistics15get_usage_priceB5cxx11Ev
FN:231,_ZN10Statistics16get_weekly_usageB5cxx11Ev
FN:237,_GLOBAL__sub_I__ZN10StatisticsC2EP13Configuration
FN:237,_Z41__static_initialization_and_destruction_0ii
FNDA:501,_ZN10StatisticsC2EP13Configuration
FNDA:250007,_ZN10Statistics15add_usage_priceEd
FNDA:501,_ZN10Statistics20add_operational_costEd
FNDA:27013,_ZN10Statistics16add_machine_timeEy
FNDA:250007,_ZN10Statistics7add_jobEl3Job
FNDA:501,_ZN10Statistics12get_short_taB5cxx11Ev
FNDA:501,_ZN10Statistics13get_medium_taB5cxx11Ev
FNDA:501,_ZN10Statistics12get_large_taB5cxx11Ev
FNDA:501,_ZN10Statistics11get_huge_taB5cxx11Ev
FNDA:501,_ZN10Statistics12get_short_wtB5cxx11Ev
FNDA:501,_ZN10Statistics13get_medium_wtB5cxx11Ev
FNDA:501,_ZN10Statistics12get_large_wtB5cxx11Ev
FNDA:501,_ZN10Statistics11get_huge_wtB5cxx11Ev
FNDA:501,_ZN10Statistics20get_operational_costB5cxx11Ev
FNDA:501,_ZN10Statistics20get_economic_balanceB5cxx11Ev
FNDA:501,_ZN10Statistics16get_machine_timeB5cxx11Ev
FNDA:501,_ZN10Statistics15get_usage_priceB5cxx11Ev
FNDA:501,_ZN10Statistics16get_weekly_usageB5cxx11Ev
FNDA:1,_GLOBAL__sub_I__ZN10StatisticsC2EP13Configuration
FNDA:1,_Z41__static_initialization_and_destruction_0ii
FNF:20
FNH:20
DA:6,501
DA:7,501
DA:8,501
DA:9,501
DA:10,501
DA:11,501
DA:16,250007
DA:17,250007
DA:18,250007
DA:23,501
DA:24,501
DA:25,501
DA:30,27013
DA:31,27013
DA:32,27013
DA:38,250007
DA:39,250007
DA:40,250007
DA:41,250007
DA:42,35924
DA:43,35924
DA:44,214083
DA:45,142534
DA:46,142534
DA:47,71549
DA:48,51094
DA:49,51094
DA:51,20455
DA:52,20455
DA:58,250007
DA:59,5391233
DA:60,5141226
DA:61,5141226
DA:62,229502
DA:63,229502
DA:64,4911724
DA:65,50
DA:66,50
DA:67,50
DA:74,250007
DA:76,20455
DA:77,20455
DA:78,501
DA:80,19954
DA:82,20455
DA:83,20455
DA:84,20455
DA:85,20455
DA:87,250007
DA:92,501
DA:93,501
DA:95,501
DA:96,1002
DA:97,501
DA:98,501
DA:104,501
DA:105,501
DA:107,501
DA:108,1002
DA:109,501
DA:110,501
DA:116,501
DA:117,501
DA:119,501
DA:120,1002
DA:121,501
DA:122,501
DA:128,501
DA:129,501
DA:131,501
DA:132,1002
DA:133,501
DA:134,501
DA:140,501
DA:141,501
DA:143,501
DA:144,1002
DA:145,501
DA:146,501
DA:152,501
DA:153,501
DA:155,501
DA:156,1002
DA:157,501
DA:158,501
DA:164,501
DA:165,501
DA:167,501
DA:168,1002
DA:169,501
DA:170,501
DA:176,501
DA:177,501
DA:179,501
DA:180,1002
DA:181,501
DA:182,501
DA:188,501
DA:189,1002
DA:190,501
DA:191,1002
DA:197,501
DA:198,1002
DA:199,501
DA:200,1002
DA:206,501
DA:207,501
DA:208,501
DA:209,501
DA:210,501
DA:211,1002
DA:212,1002
DA:213,1503
DA:214,1503
DA:215,1503
DA:216,1002
DA:222,501
DA:223,1002
DA:224,501
DA:225,1002
DA:231,501
DA:232,1002
DA:233,20956
DA:234,20455
DA:236,1002
DA:237,3
LF:126
LH:126
end_of_record
TN:Supercomputer_Simulation_test_coverage
SF:/usr/include/c++/5/bits/alloc_traits.h
FN:490,_ZNSt16allocator_traitsISaI5StateEE8allocateERS1_m
FN:490,_ZNSt16allocator_traitsISaIP4UserEE8allocateERS2_m
FN:490,_ZNSt16allocator_traitsISaI3JobEE8allocateERS1_m
FN:516,_ZNSt16allocator_traitsISaI5StateEE10deallocateERS1_PS0_m
FN:516,_ZNSt16allocator_traitsISaI3JobEE10deallocateERS1_PS0_m
FN:516,_ZNSt16allocator_traitsISaIP4UserEE10deallocateERS2_PS1_m
FN:529,_ZNSt16allocator_traitsISaI5StateEE9constructIS0_JRKS0_EEEvRS1_PT_DpOT0_
FN:529,_ZNSt16allocator_traitsISaIP4UserEE9constructIS1_JS1_EEEvRS2_PT_DpOT0_
FN:529,_ZNSt16allocator_traitsISaI5StateEE9constructIS0_JS0_EEEvRS1_PT_DpOT0_
FN:529,_ZNSt16allocator_traitsISaI3JobEE9constructIS0_JRKS0_EEEvRS1_PT_DpOT0_
FN:541,_ZNSt16allocator_traitsISaI3JobEE7destroyIS0_EEvRS1_PT_
FN:541,_ZNSt16allocator_traitsISaIP4UserEE7destroyIS1_EEvRS2_PT_
FN:541,_ZNSt16allocator_traitsISaI5StateEE7destroyIS0_EEvRS1_PT_
FN:550,_ZNSt16allocator_traitsISaIP4UserEE8max_sizeERKS2_
FN:550,_ZNSt16allocator_traitsISaI5StateEE8max_sizeERKS1_
FN:550,_ZNSt16allocator_traitsISaI3JobEE8max_sizeERKS1_
FN:571,_ZSt18__do_alloc_on_copyISaIP4UserEEvRT_RKS3_St17integral_constantIbLb0EE
FN:571,_ZSt18__do_alloc_on_copyISaI3JobEEvRT_RKS2_St17integral_constantIbLb0EE
FN:575,_ZSt15__alloc_on_copyISaIP4UserEEvRT_RKS3_
FN:575,_ZSt15__alloc_on_copyISaI3JobEEvRT_RKS2_
FNDA:5505,_ZNSt16allocator_traitsISaI5StateEE8allocateERS1_m
FNDA:0,_ZNSt16allocator_traitsISaI3JobEE8allocateERS1_m
FNDA:0,_ZNSt16allocator_traitsISaIP4UserEE8allocateERS2_m
FNDA:5004,_ZNSt16allocator_traitsISaI5StateEE10deallocateERS1_PS0_m
FNDA:0,_ZNSt16allocator_traitsISaI3JobEE10deallocateERS1_PS0_m
FNDA:0,_ZNSt16allocator_traitsISaIP4UserEE10deallocateERS2_PS1_m
FNDA:473623,_ZNSt16allocator_traitsISaI5StateEE9constructIS0_JS0_EEEvRS1_PT_DpOT0_
FNDA:250500,_ZNSt16allocator_traitsISaIP4UserEE9constructIS1_JS1_EEEvRS2_PT_DpOT0_
FNDA:26391,_ZNSt16allocator_traitsISaI5StateEE9constructIS0_JRKS0_EEEvRS1_PT_DpOT0_
FNDA:250000,_ZNSt16allocator_traitsISaI3JobEE9constructIS0_JRKS0_EEEvRS1_PT_DpOT0_
FNDA:0,_ZNSt16allocator_traitsISaIP4UserEE7destroyIS1_EEvRS2_PT_
FNDA:0,_ZNSt16allocator_traitsISaI5StateEE7destroyIS0_EEvRS1_PT_
FNDA:0,_ZNSt16allocator_traitsISaI3JobEE7destroyIS0_EEvRS1_PT_
FNDA:10000,_ZNSt16allocator_traitsISaIP4UserEE8max_sizeERKS2_
FNDA:11010,_ZNSt16allocator_traitsISaI5StateEE8max_sizeERKS1_
FNDA:10000,_ZNSt16allocator_traitsISaI3JobEE8max_sizeERKS1_
FNDA:0,_ZSt18__do_alloc_on_copyISaI3JobEEvRT_RKS2_St17integral_constantIbLb0EE
FNDA:0,_ZSt18__do_alloc_on_copyISaIP4UserEEvRT_RKS3_St17integral_constantIbLb0EE
FNDA:0,_ZSt15__alloc_on_copyISaI3JobEEvRT_RKS2_
FNDA:0,_ZSt15__alloc_on_copyISaIP4UserEEvRT_RKS3_
FNF:20
FNH:9
DA:490,5505
DA:491,5505
DA:516,5004
DA:517,5004
DA:529,1000514
DA:530,1000514
DA:541,0
DA:542,0
DA:550,31010
DA:551,31010
DA:571,0
DA:572,0
DA:575,0
DA:579,0
DA:580,0
LF:15
LH:8
end_of_record
SF:/usr/include/c++/5/bits/allocator.h
FN:113,_ZNSaIP4UserEC2Ev
FN:113,_ZNSaI3JobEC2Ev
FN:113,_ZNSaI5StateEC2Ev
FN:121,_ZNSaI3JobED2Ev
FN:121,_ZNSaI5StateED2Ev
FN:121,_ZNSaIP4UserED2Ev
FN:146,_ZStneI3JobEbRKSaIT_ES4_
FN:146,_ZStneIP4UserEbRKSaIT_ES5_
FNDA:501,_ZNSaI5StateEC2Ev
FNDA:0,_ZNSaI3JobEC2Ev
FNDA:0,_ZNSaIP4UserEC2Ev
FNDA:0,_ZNSaI5StateED2Ev
FNDA:0,_ZNSaI3JobED2Ev
FNDA:0,_ZNSaIP4UserED2Ev
FNDA:0,_ZStneI3JobEbRKSaIT_ES4_
FNDA:0,_ZStneIP4UserEbRKSaIT_ES5_
FNF:8
FNH:1
DA:113,501
DA:121,0
DA:146,0
DA:148,0
LF:4
LH:1
end_of_record
SF:/usr/include/c++/5/bits/ios_base.h
FN:129,_ZStorSt13_Ios_OpenmodeS_
FNDA:0,_ZStorSt13_Ios_OpenmodeS_
FNF:1
FNH:0
DA:129,0
DA:130,0
LF:2
LH:0
end_of_record
SF:/usr/include/c++/5/bits/move.h
FN:47,_ZSt11__addressofI3JobEPT_RS1_
FN:47,_ZSt11__addressofI5StateEPT_RS1_
FN:76,_ZSt7forwardI3JobEOT_RNSt16remove_referenceIS1_E4typeE
FN:76,_ZSt7forwardIRK5StateEOT_RNSt16remove_referenceIS3_E4typeE
FN:76,_ZSt7forwardIRK3JobEOT_RNSt16remove_referenceIS3_E4typeE
FN:76,_ZSt7forwardI5StateEOT_RNSt16remove_referenceIS1_E4typeE
FN:76,_ZSt7forwardIP4UserEOT_RNSt16remove_referenceIS2_E4typeE
FN:76,_ZSt7forwardIR3JobEOT_RNSt16remove_referenceIS2_E4typeE
FN:101,_ZSt4moveIR5StateEONSt16remove_referenceIT_E4typeEOS3_
FN:101,_ZSt4moveIRP4UserEONSt16remove_referenceIT_E4typeEOS4_
FN:101,_ZSt4moveIR3JobEONSt16remove_referenceIT_E4typeEOS3_
FN:176,_ZSt4swapI3JobEvRT_S2_
FNDA:511515,_ZSt11__addressofI5StateEPT_RS1_
FNDA:0,_ZSt11__addressofI3JobEPT_RS1_
FNDA:255500,_ZSt7forwardI3JobEOT_RNSt16remove_referenceIS1_E4typeE
FNDA:0,_ZSt7forwardIR3JobEOT_RNSt16remove_referenceIS2_E4typeE
FNDA:1932384,_ZSt7forwardI5StateEOT_RNSt16remove_referenceIS1_E4typeE
FNDA:58287,_ZSt7forwardIRK5StateEOT_RNSt16remove_referenceIS3_E4typeE
FNDA:0,_ZSt7forwardIRK3JobEOT_RNSt16remove_referenceIS3_E4typeE
FNDA:756500,_ZSt7forwardIP4UserEOT_RNSt16remove_referenceIS2_E4typeE
FNDA:2326797,_ZSt4moveIR3JobEONSt16remove_referenceIT_E4typeEOS3_
FNDA:64867313,_ZSt4moveIR5StateEONSt16remove_referenceIT_E4typeEOS3_
FNDA:250500,_ZSt4moveIRP4UserEONSt16remove_referenceIT_E4typeEOS4_
FNDA:596235,_ZSt4swapI3JobEvRT_S2_
FNF:12
FNH:9
DA:47,511515
DA:50,511515
DA:76,3002671
DA:77,3002671
DA:101,67444610
DA:102,67444610
DA:176,596235
DA:185,596235
DA:186,596235
DA:187,596235
DA:188,596235
LF:11
LH:11
end_of_record
SF:/usr/include/c++/5/bits/predefined_ops.h
FN:42,_ZNK9__gnu_cxx5__ops15_Iter_less_iterclINS_17__normal_iteratorIP3JobSt6vectorIS4_SaIS4_EEEES9_EEbT_T0_
FN:47,_ZN9__gnu_cxx5__ops16__iter_less_iterEv
FN:54,_ZNK9__gnu_cxx5__ops14_Iter_less_valclINS_17__normal_iteratorIP3JobSt6vectorIS4_SaIS4_EEEES4_EEbT_RT0_
FN:63,_ZN9__gnu_cxx5__ops15__iter_comp_valENS0_15_Iter_less_iterE
FN:70,_ZNK9__gnu_cxx5__ops14_Val_less_iterclI3JobNS_17__normal_iteratorIPS3_St6vectorIS3_SaIS3_EEEEEEbRT_T0_
FN:79,_ZN9__gnu_cxx5__ops15__val_comp_iterENS0_15_Iter_less_iterE
FNDA:1516437,_ZNK9__gnu_cxx5__ops15_Iter_less_iterclINS_17__normal_iteratorIP3JobSt6vectorIS4_SaIS4_EEEES9_EEbT_T0_
FNDA:0,_ZN9__gnu_cxx5__ops16__iter_less_iterEv
FNDA:0,_ZNK9__gnu_cxx5__ops14_Iter_less_valclINS_17__normal_iteratorIP3JobSt6vectorIS4_SaIS4_EEEES4_EEbT_RT0_
FNDA:0,_ZN9__gnu_cxx5__ops15__iter_comp_valENS0_15_Iter_less_iterE
FNDA:288592,_ZNK9__gnu_cxx5__ops14_Val_less_iterclI3JobNS_17__normal_iteratorIPS3_St6vectorIS3_SaIS3_EEEEEEbRT_T0_
FNDA:0,_ZN9__gnu_cxx5__ops15__val_comp_iterENS0_15_Iter_less_iterE
FNF:6
FNH:2
DA:42,1516437
DA:43,1516437
DA:47,0
DA:48,0
DA:54,0
DA:55,0
DA:63,0
DA:64,0
DA:70,288592
DA:71,288592
DA:79,0
DA:80,0
LF:12
LH:4
end_of_record
SF:/usr/include/c++/5/bits/random.h
FN:139,_ZNSt8__detail4_ModImLm624ELm1ELm0ELb1ELb1EE6__calcEm
FN:139,_ZNSt8__detail4_ModImLm4294967296ELm1ELm0ELb1ELb1EE6__calcEm
FN:150,_ZNSt8__detail5__modImLm624ELm1ELm0EEET_S1_
FN:150,_ZNSt8__detail5__modImLm4294967296ELm1ELm0EEET_S1_
FN:164,_ZNSt8__detail8_AdaptorISt23mersenne_twister_engineImLm32ELm624ELm397ELm31ELm2567483615ELm11ELm4294967295ELm7ELm2636928640ELm15ELm4022730752ELm18ELm1812433253EEdEC2ERS2_
FN:181,_ZNSt8__detail8_AdaptorISt23mersenne_twister_engineImLm32ELm624ELm397ELm31ELm2567483615ELm11ELm4294967295ELm7ELm2636928640ELm15ELm4022730752ELm18ELm1812433253EEdEclEv
FN:495,_ZNSt23mersenne_twister_engineImLm32ELm624ELm397ELm31ELm2567483615ELm11ELm4294967295ELm7ELm2636928640ELm15ELm4022730752ELm18ELm1812433253EEC2Em
FN:522,_ZNSt23mersenne_twister_engineImLm32ELm624ELm397ELm31ELm2567483615ELm11ELm4294967295ELm7ELm2636928640ELm15ELm4022730752ELm18ELm1812433253EE3minEv
FN:529,_ZNSt23mersenne_twister_engineImLm32ELm624ELm397ELm31ELm2567483615ELm11ELm4294967295ELm7ELm2636928640ELm15ELm4022730752ELm18ELm1812433253EE3maxEv
FN:1578,_ZNSt13random_deviceC2ERKNSt7__cxx1112basic_stringIcSt11char_traitsIcESaIcEEE
FN:1583,_ZNSt13random_deviceD2Ev
FN:1609,_ZNSt13random_deviceclEv
FN:4495,_ZNSt24exponential_distributionIdE10param_typeC2Ed
FN:4502,_ZNKSt24exponential_distributionIdE10param_type6lambdaEv
FN:4519,_ZNSt24exponential_distributionIdEC2ERKd
FN:4577,_ZNSt24exponential_distributionIdEclISt23mersenne_twister_engineImLm32ELm624ELm397ELm31ELm2567483615ELm11ELm4294967295ELm7ELm2636928640ELm15ELm4022730752ELm18ELm1812433253EEEEdRT_
FN:4582,_ZNSt24exponential_distributionIdEclISt23mersenne_twister_engineImLm32ELm624ELm397ELm31ELm2567483615ELm11ELm4294967295ELm7ELm2636928640ELm15ELm4022730752ELm18ELm1812433253EEEEdRT_RKNS0_10param_typeE
FNDA:597843260,_ZNSt8__detail4_ModImLm624ELm1ELm0ELb1ELb1EE6__calcEm
FNDA:598802880,_ZNSt8__detail4_ModImLm4294967296ELm1ELm0ELb1ELb1EE6__calcEm
FNDA:597843260,_ZNSt8__detail5__modImLm624ELm1ELm0EEET_S1_
FNDA:598802880,_ZNSt8__detail5__modImLm4294967296ELm1ELm0EEET_S1_
FNDA:500042,_ZNSt8__detail8_AdaptorISt23mersenne_twister_engineImLm32ELm624ELm397ELm31ELm2567483615ELm11ELm4294967295ELm7ELm2636928640ELm15ELm4022730752ELm18ELm1812433253EEdEC2ERS2_
FNDA:500042,_ZNSt8__detail8_AdaptorISt23mersenne_twister_engineImLm32ELm624ELm397ELm31ELm2567483615ELm11ELm4294967295ELm7ELm2636928640ELm15ELm4022730752ELm18ELm1812433253EEdEclEv
FNDA:480060,_ZNSt23mersenne_twister_engineImLm32ELm624ELm397ELm31ELm2567483615ELm11ELm4294967295ELm7ELm2636928640ELm15ELm4022730752ELm18ELm1812433253EEC2Em
FNDA:1500126,_ZNSt23mersenne_twister_engineImLm32ELm624ELm397ELm31ELm2567483615ELm11ELm4294967295ELm7ELm2636928640ELm15ELm4022730752ELm18ELm1812433253EE3minEv
FNDA:500042,_ZNSt23mersenne_twister_engineImLm32ELm624ELm397ELm31ELm2567483615ELm11ELm4294967295ELm7ELm2636928640ELm15ELm4022730752ELm18ELm1812433253EE3maxEv
FNDA:480060,_ZNSt13random_deviceC2ERKNSt7__cxx1112basic_stringIcSt11char_traitsIcESaIcEEE
FNDA:480060,_ZNSt13random_deviceD2Ev
FNDA:480060,_ZNSt13random_deviceclEv
FNDA:500,_ZNSt24exponential_distributionIdE10param_typeC2Ed
FNDA:500042,_ZNKSt24exponential_distributionIdE10param_type6lambdaEv
FNDA:500,_ZNSt24exponential_distributionIdEC2ERKd
FNDA:500042,_ZNSt24exponential_distributionIdEclISt23mersenne_twister_engineImLm32ELm624ELm397ELm31ELm2567483615ELm11ELm4294967295ELm7ELm2636928640ELm15ELm4022730752ELm18ELm1812433253EEEEdRT_
FNDA:500042,_ZNSt24exponential_distributionIdEclISt23mersenne_twister_engineImLm32ELm624ELm397ELm31ELm2567483615ELm11ELm4294967295ELm7ELm2636928640ELm15ELm4022730752ELm18ELm1812433253EEEEdRT_RKNS0_10param_typeE
FNF:17
FNH:17
DA:139,1196646140
DA:141,1196646140
DA:143,1196646140
DA:144,1196646140
DA:150,1196646140
DA:151,1196646140
DA:164,500042
DA:165,500042
DA:181,500042
DA:185,500042
DA:495,480060
DA:496,480060
DA:522,1500126
DA:523,1500126
DA:529,500042
DA:530,500042
DA:1578,480060
DA:1580,480060
DA:1581,480060
DA:1583,480060
DA:1584,480060
DA:1609,480060
DA:1612,480060
DA:4495,500
DA:4496,500
DA:4499,500
DA:4502,500042
DA:4503,500042
DA:4519,500
DA:4520,500
DA:4521,500
DA:4577,500042
DA:4578,500042
DA:4582,500042
DA:4586,500042
DA:4587,500042
LF:36
LH:36
end_of_record
SF:/usr/include/c++/5/bits/random.tcc
FN:327,_ZNSt23mersenne_twister_engineImLm32ELm624ELm397ELm31ELm2567483615ELm11ELm4294967295ELm7ELm2636928640ELm15ELm4022730752ELm18ELm1812433253EE4seedEm
FN:397,_ZNSt23mersenne_twister_engineImLm32ELm624ELm397ELm31ELm2567483615ELm11ELm4294967295ELm7ELm2636928640ELm15ELm4022730752ELm18ELm1812433253EE11_M_gen_randEv
FN:453,_ZNSt23mersenne_twister_engineImLm32ELm624ELm397ELm31ELm2567483615ELm11ELm4294967295ELm7ELm2636928640ELm15ELm4022730752ELm18ELm1812433253EEclEv
FN:3312,_ZSt18generate_canonicalIdLm53ESt23mersenne_twister_engineImLm32ELm624ELm397ELm31ELm2567483615ELm11ELm4294967295ELm7ELm2636928640ELm15ELm4022730752ELm18ELm1812433253EEET_RT1_
FNDA:959620,_ZNSt23mersenne_twister_engineImLm32ELm624ELm397ELm31ELm2567483615ELm11ELm4294967295ELm7ELm2636928640ELm15ELm4022730752ELm18ELm1812433253EE4seedEm
FNDA:481560,_ZNSt23mersenne_twister_engineImLm32ELm624ELm397ELm31ELm2567483615ELm11ELm4294967295ELm7ELm2636928640ELm15ELm4022730752ELm18ELm1812433253EE11_M_gen_randEv
FNDA:1479644,_ZNSt23mersenne_twister_engineImLm32ELm624ELm397ELm31ELm2567483615ELm11ELm4294967295ELm7ELm2636928640ELm15ELm4022730752ELm18ELm1812433253EEclEv
FNDA:500042,_ZSt18generate_canonicalIdLm53ESt23mersenne_twister_engineImLm32ELm624ELm397ELm31ELm2567483615ELm11ELm4294967295ELm7ELm2636928640ELm15ELm4022730752ELm18ELm1812433253EEET_RT1_
FNF:4
FNH:4
DA:327,959620
DA:331,959620
DA:332,959620
DA:334,598802880
DA:336,597843260
DA:337,597843260
DA:338,597843260
DA:339,597843260
DA:340,597843260
DA:341,597843260
DA:343,959620
DA:344,959620
DA:397,481560
DA:401,481560
DA:402,481560
DA:404,109795680
DA:406,109314120
DA:407,109314120
DA:408,109314120
DA:412,191179320
DA:414,190697760
DA:415,190697760
DA:416,190697760
DA:420,481560
DA:421,481560
DA:422,481560
DA:424,481560
DA:425,481560
DA:453,1479644
DA:458,1479644
DA:459,481560
DA:462,1479644
DA:463,1479644
DA:464,1479644
DA:465,1479644
DA:466,1479644
DA:468,1479644
DA:3312,500042
DA:3319,500042
DA:3321,500042
DA:3322,500042
DA:3323,500042
DA:3324,500042
DA:3325,500042
DA:3326,2500210
DA:3328,1000084
DA:3329,1000084
DA:3331,500042
LF:48
LH:48
end_of_record
SF:/usr/include/c++/5/bits/stl_algo.h
FN:78,_ZSt22__move_median_to_firstIN9__gnu_cxx17__normal_iteratorIP3JobSt6vectorIS2_SaIS2_EEEENS0_5__ops15_Iter_less_iterEEvT_SA_SA_SA_T0_
FN:1665,_ZSt13__heap_selectIN9__gnu_cxx17__normal_iteratorIP3JobSt6vectorIS2_SaIS2_EEEENS0_5__ops15_Iter_less_iterEEvT_SA_SA_T0_
FN:1816,_ZSt25__unguarded_linear_insertIN9__gnu_cxx17__normal_iteratorIP3JobSt6vectorIS2_SaIS2_EEEENS0_5__ops14_Val_less_iterEEvT_T0_
FN:1835,_ZSt16__insertion_sortIN9__gnu_cxx17__normal_iteratorIP3JobSt6vectorIS2_SaIS2_EEEENS0_5__ops15_Iter_less_iterEEvT_SA_T0_
FN:1858,_ZSt26__unguarded_insertion_sortIN9__gnu_cxx17__normal_iteratorIP3JobSt6vectorIS2_SaIS2_EEEENS0_5__ops15_Iter_less_iterEEvT_SA_T0_
FN:1875,_ZSt22__final_insertion_sortIN9__gnu_cxx17__normal_iteratorIP3JobSt6vectorIS2_SaIS2_EEEENS0_5__ops15_Iter_less_iterEEvT_SA_T0_
FN:1891,_ZSt21__unguarded_partitionIN9__gnu_cxx17__normal_iteratorIP3JobSt6vectorIS2_SaIS2_EEEENS0_5__ops15_Iter_less_iterEET_SA_SA_SA_T0_
FN:1912,_ZSt27__unguarded_partition_pivotIN9__gnu_cxx17__normal_iteratorIP3JobSt6vectorIS2_SaIS2_EEEENS0_5__ops15_Iter_less_iterEET_SA_SA_T0_
FN:1923,_ZSt14__partial_sortIN9__gnu_cxx17__normal_iteratorIP3JobSt6vectorIS2_SaIS2_EEEENS0_5__ops15_Iter_less_iterEEvT_SA_SA_T0_
FN:1935,_ZSt16__introsort_loopIN9__gnu_cxx17__normal_iteratorIP3JobSt6vectorIS2_SaIS2_EEEElNS0_5__ops15_Iter_less_iterEEvT_SA_T0_T1_
FN:1958,_ZSt6__sortIN9__gnu_cxx17__normal_iteratorIP3JobSt6vectorIS2_SaIS2_EEEENS0_5__ops15_Iter_less_iterEEvT_SA_T0_
FN:4689,_ZSt4sortIN9__gnu_cxx17__normal_iteratorIP3JobSt6vectorIS2_SaIS2_EEEEEvT_S8_
FNDA:22045,_ZSt22__move_median_to_firstIN9__gnu_cxx17__normal_iteratorIP3JobSt6vectorIS2_SaIS2_EEEENS0_5__ops15_Iter_less_iterEEvT_SA_SA_SA_T0_
FNDA:0,_ZSt13__heap_selectIN9__gnu_cxx17__normal_iteratorIP3JobSt6vectorIS2_SaIS2_EEEENS0_5__ops15_Iter_less_iterEEvT_SA_SA_T0_
FNDA:249500,_ZSt25__unguarded_linear_insertIN9__gnu_cxx17__normal_iteratorIP3JobSt6vectorIS2_SaIS2_EEEENS0_5__ops14_Val_less_iterEEvT_T0_
FNDA:500,_ZSt16__insertion_sortIN9__gnu_cxx17__normal_iteratorIP3JobSt6vectorIS2_SaIS2_EEEENS0_5__ops15_Iter_less_iterEEvT_SA_T0_
FNDA:500,_ZSt26__unguarded_insertion_sortIN9__gnu_cxx17__normal_iteratorIP3JobSt6vectorIS2_SaIS2_EEEENS0_5__ops15_Iter_less_iterEEvT_SA_T0_
FNDA:500,_ZSt22__final_insertion_sortIN9__gnu_cxx17__normal_iteratorIP3JobSt6vectorIS2_SaIS2_EEEENS0_5__ops15_Iter_less_iterEEvT_SA_T0_
FNDA:22045,_ZSt21__unguarded_partitionIN9__gnu_cxx17__normal_iteratorIP3JobSt6vectorIS2_SaIS2_EEEENS0_5__ops15_Iter_less_iterEET_SA_SA_SA_T0_
FNDA:22045,_ZSt27__unguarded_partition_pivotIN9__gnu_cxx17__normal_iteratorIP3JobSt6vectorIS2_SaIS2_EEEENS0_5__ops15_Iter_less_iterEET_SA_SA_T0_
FNDA:0,_ZSt14__partial_sortIN9__gnu_cxx17__normal_iteratorIP3JobSt6vectorIS2_SaIS2_EEEENS0_5__ops15_Iter_less_iterEEvT_SA_SA_T0_
FNDA:22545,_ZSt16__introsort_loopIN9__gnu_cxx17__normal_iteratorIP3JobSt6vectorIS2_SaIS2_EEEElNS0_5__ops15_Iter_less_iterEEvT_SA_T0_T1_
FNDA:500,_ZSt6__sortIN9__gnu_cxx17__normal_iteratorIP3JobSt6vectorIS2_SaIS2_EEEENS0_5__ops15_Iter_less_iterEEvT_SA_T0_
FNDA:500,_ZSt4sortIN9__gnu_cxx17__normal_iteratorIP3JobSt6vectorIS2_SaIS2_EEEEEvT_S8_
FNF:12
FNH:10
DA:78,22045
DA:81,22045
DA:83,1734
DA:84,87
DA:85,1647
DA:86,691
DA:88,956
DA:90,20311
DA:91,1086
DA:92,19225
DA:93,676
DA:95,18549
DA:96,22045
DA:1665,0
DA:1669,0
DA:1670,0
DA:1671,0
DA:1672,0
DA:1673,0
DA:1816,249500
DA:1820,249500
DA:1821,249500
DA:1822,249500
DA:1823,327684
DA:1825,39092
DA:1826,39092
DA:1827,39092
DA:1829,249500
DA:1830,249500
DA:1835,500
DA:1838,500
DA:1840,8000
DA:1842,7500
DA:1845,0
DA:1846,0
DA:1847,0
DA:1850,7500
DA:1851,7500
DA:1858,500
DA:1861,242500
DA:1862,242000
DA:1863,242000
DA:1864,500
DA:1875,500
DA:1878,500
DA:1880,500
DA:1881,500
DA:1885,0
DA:1886,500
DA:1891,710695
DA:1895,574190
DA:1897,825155
DA:1898,114460
DA:1899,596235
DA:1900,870325
DA:1901,137045
DA:1902,596235
DA:1903,44090
DA:1904,574190
DA:1905,574190
DA:1912,22045
DA:1915,22045
DA:1916,22045
DA:1918,22045
DA:1923,0
DA:1928,0
DA:1929,0
DA:1930,0
DA:1935,44590
DA:1939,66635
DA:1941,22045
DA:1943,0
DA:1944,0
DA:1946,22045
DA:1948,22045
DA:1949,22045
DA:1950,22045
DA:1958,500
DA:1961,500
DA:1963,500
DA:1964,500
DA:1966,500
DA:1968,500
DA:4689,500
DA:4698,500
DA:4699,500
LF:86
LH:70
end_of_record
SF:/usr/include/c++/5/bits/stl_algobase.h
FN:120,_ZSt9iter_swapIN9__gnu_cxx17__normal_iteratorIP3JobSt6vectorIS2_SaIS2_EEEES7_EvT_T0_
FN:219,_ZSt3maxImERKT_S2_S2_
FN:282,_ZSt12__niter_baseIPP4UserENSt11_Niter_baseIT_E13iterator_typeES4_
FN:282,_ZSt12__niter_baseIP5StateENSt11_Niter_baseIT_E13iterator_typeES3_
FN:282,_ZSt12__niter_baseIP3JobENSt11_Niter_baseIT_E13iterator_typeES3_
FN:282,_ZSt12__niter_baseIN9__gnu_cxx17__normal_iteratorIP3JobSt6vectorIS2_SaIS2_EEEEENSt11_Niter_baseIT_E13iterator_typeES9_
FN:282,_ZSt12__niter_baseIN9__gnu_cxx17__normal_iteratorIPK3JobSt6vectorIS2_SaIS2_EEEEENSt11_Niter_baseIT_E13iterator_typeESA_
FN:282,_ZSt12__niter_baseIN9__gnu_cxx17__normal_iteratorIPP4UserSt6vectorIS3_SaIS3_EEEEENSt11_Niter_baseIT_E13iterator_typeESA_
FN:282,_ZSt12__niter_baseIN9__gnu_cxx17__normal_iteratorIPKP4UserSt6vectorIS3_SaIS3_EEEEENSt11_Niter_baseIT_E13iterator_typeESB_
FN:293,_ZSt12__miter_baseISt13move_iteratorIPP4UserEENSt11_Miter_baseIT_E13iterator_typeES6_
FN:293,_ZSt12__miter_baseIN9__gnu_cxx17__normal_iteratorIPKP4UserSt6vectorIS3_SaIS3_EEEEENSt11_Miter_baseIT_E13iterator_typeESB_
FN:293,_ZSt12__miter_baseIPP4UserENSt11_Miter_baseIT_E13iterator_typeES4_
FN:293,_ZSt12__miter_baseIN9__gnu_cxx17__normal_iteratorIPK3JobSt6vectorIS2_SaIS2_EEEEENSt11_Miter_baseIT_E13iterator_typeESA_
FN:293,_ZSt12__miter_baseIP5StateENSt11_Miter_baseIT_E13iterator_typeES3_
FN:293,_ZSt12__miter_baseIN9__gnu_cxx17__normal_iteratorIP3JobSt6vectorIS2_SaIS2_EEEEENSt11_Miter_baseIT_E13iterator_typeES9_
FN:293,_ZSt12__miter_baseIP3JobENSt11_Miter_baseIT_E13iterator_typeES3_
FN:335,_ZNSt11__copy_moveILb0ELb0ESt26random_access_iterator_tagE8__copy_mIP3JobS4_EET0_T_S6_S5_
FN:335,_ZNSt11__copy_moveILb0ELb0ESt26random_access_iterator_tagE8__copy_mIPK3JobPS3_EET0_T_S8_S7_
FN:373,_ZNSt11__copy_moveILb1ELb1ESt26random_access_iterator_tagE8__copy_mIP4UserEEPT_PKS5_S8_S6_
FN:373,_ZNSt11__copy_moveILb0ELb1ESt26random_access_iterator_tagE8__copy_mIP4UserEEPT_PKS5_S8_S6_
FN:391,_ZSt13__copy_move_aILb0EP3JobS1_ET1_T0_S3_S2_
FN:391,_ZSt13__copy_move_aILb0EPKP4UserPS1_ET1_T0_S6_S5_
FN:391,_ZSt13__copy_move_aILb0EPK3JobPS0_ET1_T0_S5_S4_
FN:391,_ZSt13__copy_move_aILb0EPP4UserS2_ET1_T0_S4_S3_
FN:391,_ZSt13__copy_move_aILb1EPP4UserS2_ET1_T0_S4_S3_
FN:436,_ZSt14__copy_move_a2ILb1EPP4UserS2_ET1_T0_S4_S3_
FN:436,_ZSt14__copy_move_a2ILb0EN9__gnu_cxx17__normal_iteratorIPK3JobSt6vectorIS2_SaIS2_EEEENS1_IPS2_S7_EEET1_T0_SC_SB_
FN:436,_ZSt14__copy_move_a2ILb0EPP4UserS2_ET1_T0_S4_S3_
FN:436,_ZSt14__copy_move_a2ILb0EP3JobS1_ET1_T0_S3_S2_
FN:436,_ZSt14__copy_move_a2ILb0EN9__gnu_cxx17__normal_iteratorIPKP4UserSt6vectorIS3_SaIS3_EEEENS1_IPS3_S8_EEET1_T0_SD_SC_
FN:436,_ZSt14__copy_move_a2ILb0EN9__gnu_cxx17__normal_iteratorIPKP4UserSt6vectorIS3_SaIS3_EEEEPS3_ET1_T0_SC_SB_
FN:462,_ZSt4copyISt13move_iteratorIPP4UserES3_ET0_T_S6_S5_
FN:462,_ZSt4copyIPP4UserS2_ET0_T_S4_S3_
FN:462,_ZSt4copyIN9__gnu_cxx17__normal_iteratorIPK3JobSt6vectorIS2_SaIS2_EEEENS1_IPS2_S7_EEET0_T_SC_SB_
FN:462,_ZSt4copyIP3JobS1_ET0_T_S3_S2_
FN:462,_ZSt4copyIN9__gnu_cxx17__normal_iteratorIPKP4UserSt6vectorIS3_SaIS3_EEEENS1_IPS3_S8_EEET0_T_SD_SC_
FN:462,_ZSt4copyIN9__gnu_cxx17__normal_iteratorIPKP4UserSt6vectorIS3_SaIS3_EEEEPS3_ET0_T_SC_SB_
FN:560,_ZNSt20__copy_move_backwardILb1ELb0ESt26random_access_iterator_tagE13__copy_move_bIP3JobS4_EET0_T_S6_S5_
FN:560,_ZNSt20__copy_move_backwardILb1ELb0ESt26random_access_iterator_tagE13__copy_move_bIP5StateS4_EET0_T_S6_S5_
FN:593,_ZSt22__copy_move_backward_aILb1EP5StateS1_ET1_T0_S3_S2_
FN:593,_ZSt22__copy_move_backward_aILb1EP3JobS1_ET1_T0_S3_S2_
FN:611,_ZSt23__copy_move_backward_a2ILb1EP5StateS1_ET1_T0_S3_S2_
FN:611,_ZSt23__copy_move_backward_a2ILb1EN9__gnu_cxx17__normal_iteratorIP3JobSt6vectorIS2_SaIS2_EEEES7_ET1_T0_S9_S8_
FN:674,_ZSt13move_backwardIN9__gnu_cxx17__normal_iteratorIP3JobSt6vectorIS2_SaIS2_EEEES7_ET0_T_S9_S8_
FN:674,_ZSt13move_backwardIP5StateS1_ET0_T_S3_S2_
FN:1024,_ZSt4__lgl
FNDA:596235,_ZSt9iter_swapIN9__gnu_cxx17__normal_iteratorIP3JobSt6vectorIS2_SaIS2_EEEES7_EvT_T0_
FNDA:0,_ZSt3maxImERKT_S2_S2_
FNDA:1420869,_ZSt12__niter_baseIP5StateENSt11_Niter_baseIT_E13iterator_typeES3_
FNDA:0,_ZSt12__niter_baseIP3JobENSt11_Niter_baseIT_E13iterator_typeES3_
FNDA:0,_ZSt12__niter_baseIN9__gnu_cxx17__normal_iteratorIP3JobSt6vectorIS2_SaIS2_EEEEENSt11_Niter_baseIT_E13iterator_typeES9_
FNDA:0,_ZSt12__niter_baseIN9__gnu_cxx17__normal_iteratorIPK3JobSt6vectorIS2_SaIS2_EEEEENSt11_Niter_baseIT_E13iterator_typeESA_
FNDA:0,_ZSt12__niter_baseIPP4UserENSt11_Niter_baseIT_E13iterator_typeES4_
FNDA:0,_ZSt12__niter_baseIN9__gnu_cxx17__normal_iteratorIPP4UserSt6vectorIS3_SaIS3_EEEEENSt11_Niter_baseIT_E13iterator_typeESA_
FNDA:0,_ZSt12__niter_baseIN9__gnu_cxx17__normal_iteratorIPKP4UserSt6vectorIS3_SaIS3_EEEEENSt11_Niter_baseIT_E13iterator_typeESB_
FNDA:10000,_ZSt12__miter_baseISt13move_iteratorIPP4UserEENSt11_Miter_baseIT_E13iterator_typeES6_
FNDA:0,_ZSt12__miter_baseIN9__gnu_cxx17__normal_iteratorIP3JobSt6vectorIS2_SaIS2_EEEEENSt11_Miter_baseIT_E13iterator_typeES9_
FNDA:947246,_ZSt12__miter_baseIP5StateENSt11_Miter_baseIT_E13iterator_typeES3_
FNDA:0,_ZSt12__miter_baseIP3JobENSt11_Miter_baseIT_E13iterator_typeES3_
FNDA:0,_ZSt12__miter_baseIN9__gnu_cxx17__normal_iteratorIPK3JobSt6vectorIS2_SaIS2_EEEEENSt11_Miter_baseIT_E13iterator_typeESA_
FNDA:0,_ZSt12__miter_baseIPP4UserENSt11_Miter_baseIT_E13iterator_typeES4_
FNDA:0,_ZSt12__miter_baseIN9__gnu_cxx17__normal_iteratorIPKP4UserSt6vectorIS3_SaIS3_EEEEENSt11_Miter_baseIT_E13iterator_typeESB_
FNDA:0,_ZNSt11__copy_moveILb0ELb0ESt26random_access_iterator_tagE8__copy_mIP3JobS4_EET0_T_S6_S5_
FNDA:0,_ZNSt11__copy_moveILb0ELb0ESt26random_access_iterator_tagE8__copy_mIPK3JobPS3_EET0_T_S8_S7_
FNDA:5000,_ZNSt11__copy_moveILb1ELb1ESt26random_access_iterator_tagE8__copy_mIP4UserEEPT_PKS5_S8_S6_
FNDA:0,_ZNSt11__copy_moveILb0ELb1ESt26random_access_iterator_tagE8__copy_mIP4UserEEPT_PKS5_S8_S6_
FNDA:5000,_ZSt13__copy_move_aILb1EPP4UserS2_ET1_T0_S4_S3_
FNDA:0,_ZSt13__copy_move_aILb0EP3JobS1_ET1_T0_S3_S2_
FNDA:0,_ZSt13__copy_move_aILb0EPK3JobPS0_ET1_T0_S5_S4_
FNDA:0,_ZSt13__copy_move_aILb0EPP4UserS2_ET1_T0_S4_S3_
FNDA:0,_ZSt13__copy_move_aILb0EPKP4UserPS1_ET1_T0_S6_S5_
FNDA:5000,_ZSt14__copy_move_a2ILb1EPP4UserS2_ET1_T0_S4_S3_
FNDA:0,_ZSt14__copy_move_a2ILb0EN9__gnu_cxx17__normal_iteratorIPKP4UserSt6vectorIS3_SaIS3_EEEEPS3_ET1_T0_SC_SB_
FNDA:0,_ZSt14__copy_move_a2ILb0EP3JobS1_ET1_T0_S3_S2_
FNDA:0,_ZSt14__copy_move_a2ILb0EN9__gnu_cxx17__normal_iteratorIPK3JobSt6vectorIS2_SaIS2_EEEENS1_IPS2_S7_EEET1_T0_SC_SB_
FNDA:0,_ZSt14__copy_move_a2ILb0EPP4UserS2_ET1_T0_S4_S3_
FNDA:0,_ZSt14__copy_move_a2ILb0EN9__gnu_cxx17__normal_iteratorIPKP4UserSt6vectorIS3_SaIS3_EEEENS1_IPS3_S8_EEET1_T0_SD_SC_
FNDA:5000,_ZSt4copyISt13move_iteratorIPP4UserES3_ET0_T_S6_S5_
FNDA:0,_ZSt4copyIN9__gnu_cxx17__normal_iteratorIPKP4UserSt6vectorIS3_SaIS3_EEEEPS3_ET0_T_SC_SB_
FNDA:0,_ZSt4copyIP3JobS1_ET0_T_S3_S2_
FNDA:0,_ZSt4copyIN9__gnu_cxx17__normal_iteratorIPK3JobSt6vectorIS2_SaIS2_EEEENS1_IPS2_S7_EEET0_T_SC_SB_
FNDA:0,_ZSt4copyIPP4UserS2_ET0_T_S4_S3_
FNDA:0,_ZSt4copyIN9__gnu_cxx17__normal_iteratorIPKP4UserSt6vectorIS3_SaIS3_EEEENS1_IPS3_S8_EEET0_T_SD_SC_
FNDA:0,_ZNSt20__copy_move_backwardILb1ELb0ESt26random_access_iterator_tagE13__copy_move_bIP3JobS4_EET0_T_S6_S5_
FNDA:473623,_ZNSt20__copy_move_backwardILb1ELb0ESt26random_access_iterator_tagE13__copy_move_bIP5StateS4_EET0_T_S6_S5_
FNDA:0,_ZSt22__copy_move_backward_aILb1EP3JobS1_ET1_T0_S3_S2_
FNDA:473623,_ZSt22__copy_move_backward_aILb1EP5StateS1_ET1_T0_S3_S2_
FNDA:0,_ZSt23__copy_move_backward_a2ILb1EN9__gnu_cxx17__normal_iteratorIP3JobSt6vectorIS2_SaIS2_EEEES7_ET1_T0_S9_S8_
FNDA:473623,_ZSt23__copy_move_backward_a2ILb1EP5StateS1_ET1_T0_S3_S2_
FNDA:0,_ZSt13move_backwardIN9__gnu_cxx17__normal_iteratorIP3JobSt6vectorIS2_SaIS2_EEEES7_ET0_T_S9_S8_
FNDA:473623,_ZSt13move_backwardIP5StateS1_ET0_T_S3_S2_
FNDA:0,_ZSt4__lgl
FNF:46
FNH:12
DA:120,596235
DA:148,596235
DA:150,596235
DA:219,0
DA:224,0
DA:225,0
DA:226,0
DA:282,1420869
DA:283,1420869
DA:293,957246
DA:294,957246
DA:335,0
DA:338,0
DA:340,0
DA:341,0
DA:342,0
DA:344,0
DA:373,5000
DA:382,5000
DA:383,5000
DA:384,4500
DA:385,5000
DA:391,5000
DA:399,5000
DA:402,5000
DA:436,5000
DA:438,5000
DA:440,5000
DA:462,5000
DA:471,5000
DA:472,5000
DA:560,473623
DA:563,64393690
DA:564,63920067
DA:565,473623
DA:593,473623
DA:601,473623
DA:606,473623
DA:611,473623
DA:614,473623
DA:615,473623
DA:674,473623
DA:684,473623
DA:686,473623
DA:1024,0
DA:1025,0
LF:46
LH:34
end_of_record
SF:/usr/include/c++/5/bits/stl_construct.h
FN:74,_ZSt10_ConstructI3JobJRKS0_EEvPT_DpOT0_
FN:74,_ZSt10_ConstructI5StateJS0_EEvPT_DpOT0_
FN:74,_ZSt10_ConstructI3JobJS0_EEvPT_DpOT0_
FN:74,_ZSt10_ConstructI3JobJRS0_EEvPT_DpOT0_
FN:112,_ZNSt12_Destroy_auxILb1EE9__destroyIN9__gnu_cxx17__normal_iteratorIPP4UserSt6vectorIS5_SaIS5_EEEEEEvT_SB_
FN:112,_ZNSt12_Destroy_auxILb1EE9__destroyIN9__gnu_cxx17__normal_iteratorIP3JobSt6vectorIS4_SaIS4_EEEEEEvT_SA_
FN:112,_ZNSt12_Destroy_auxILb1EE9__destroyIPP4UserEEvT_S5_
FN:112,_ZNSt12_Destroy_auxILb1EE9__destroyIP5StateEEvT_S4_
FN:112,_ZNSt12_Destroy_auxILb1EE9__destroyIP3JobEEvT_S4_
FN:122,_ZSt8_DestroyIP3JobEvT_S2_
FN:122,_ZSt8_DestroyIP5StateEvT_S2_
FN:122,_ZSt8_DestroyIPP4UserEvT_S3_
FN:122,_ZSt8_DestroyIN9__gnu_cxx17__normal_iteratorIP3JobSt6vectorIS2_SaIS2_EEEEEvT_S8_
FN:122,_ZSt8_DestroyIN9__gnu_cxx17__normal_iteratorIPP4UserSt6vectorIS3_SaIS3_EEEEEvT_S9_
FN:148,_ZSt8_DestroyIN9__gnu_cxx17__normal_iteratorIPP4UserSt6vectorIS3_SaIS3_EEEES3_EvT_S9_RSaIT0_E
FN:148,_ZSt8_DestroyIP5StateS0_EvT_S2_RSaIT0_E
FN:148,_ZSt8_DestroyIPP4UserS1_EvT_S3_RSaIT0_E
FN:148,_ZSt8_DestroyIP3JobS0_EvT_S2_RSaIT0_E
FN:148,_ZSt8_DestroyIN9__gnu_cxx17__normal_iteratorIP3JobSt6vectorIS2_SaIS2_EEEES2_EvT_S8_RSaIT0_E
FNDA:511515,_ZSt10_ConstructI5StateJS0_EEvPT_DpOT0_
FNDA:255500,_ZSt10_ConstructI3JobJS0_EEvPT_DpOT0_
FNDA:0,_ZSt10_ConstructI3JobJRKS0_EEvPT_DpOT0_
FNDA:0,_ZSt10_ConstructI3JobJRS0_EEvPT_DpOT0_
FNDA:0,_ZNSt12_Destroy_auxILb1EE9__destroyIN9__gnu_cxx17__normal_iteratorIP3JobSt6vectorIS4_SaIS4_EEEEEEvT_SA_
FNDA:0,_ZNSt12_Destroy_auxILb1EE9__destroyIN9__gnu_cxx17__normal_iteratorIPP4UserSt6vectorIS5_SaIS5_EEEEEEvT_SB_
FNDA:5505,_ZNSt12_Destroy_auxILb1EE9__destroyIP5StateEEvT_S4_
FNDA:0,_ZNSt12_Destroy_auxILb1EE9__destroyIP3JobEEvT_S4_
FNDA:0,_ZNSt12_Destroy_auxILb1EE9__destroyIPP4UserEEvT_S5_
FNDA:0,_ZSt8_DestroyIN9__gnu_cxx17__normal_iteratorIP3JobSt6vectorIS2_SaIS2_EEEEEvT_S8_
FNDA:0,_ZSt8_DestroyIN9__gnu_cxx17__normal_iteratorIPP4UserSt6vectorIS3_SaIS3_EEEEEvT_S9_
FNDA:5505,_ZSt8_DestroyIP5StateEvT_S2_
FNDA:0,_ZSt8_DestroyIP3JobEvT_S2_
FNDA:0,_ZSt8_DestroyIPP4UserEvT_S3_
FNDA:0,_ZSt8_DestroyIN9__gnu_cxx17__normal_iteratorIP3JobSt6vectorIS2_SaIS2_EEEES2_EvT_S8_RSaIT0_E
FNDA:0,_ZSt8_DestroyIN9__gnu_cxx17__normal_iteratorIPP4UserSt6vectorIS3_SaIS3_EEEES3_EvT_S9_RSaIT0_E
FNDA:5505,_ZSt8_DestroyIP5StateS0_EvT_S2_RSaIT0_E
FNDA:0,_ZSt8_DestroyIP3JobS0_EvT_S2_RSaIT0_E
FNDA:0,_ZSt8_DestroyIPP4UserS1_EvT_S3_RSaIT0_E
FNF:19
FNH:5
DA:74,767015
DA:75,767015
DA:112,5505
DA:122,5505
DA:126,5505
DA:128,5505
DA:148,5505
DA:151,5505
DA:152,5505
LF:9
LH:9
end_of_record
SF:/usr/include/c++/5/bits/stl_heap.h
FN:124,_ZSt11__push_heapIN9__gnu_cxx17__normal_iteratorIP3JobSt6vectorIS2_SaIS2_EEEElS2_NS0_5__ops14_Iter_less_valEEvT_T0_SB_T1_T2_
FN:207,_ZSt13__adjust_heapIN9__gnu_cxx17__normal_iteratorIP3JobSt6vectorIS2_SaIS2_EEEElS2_NS0_5__ops15_Iter_less_iterEEvT_T0_SB_T1_T2_
FN:235,_ZSt10__pop_heapIN9__gnu_cxx17__normal_iteratorIP3JobSt6vectorIS2_SaIS2_EEEENS0_5__ops15_Iter_less_iterEEvT_SA_SA_T0_
FN:317,_ZSt11__make_heapIN9__gnu_cxx17__normal_iteratorIP3JobSt6vectorIS2_SaIS2_EEEENS0_5__ops15_Iter_less_iterEEvT_SA_T0_
FN:390,_ZSt11__sort_heapIN9__gnu_cxx17__normal_iteratorIP3JobSt6vectorIS2_SaIS2_EEEENS0_5__ops15_Iter_less_iterEEvT_SA_T0_
FNDA:0,_ZSt11__push_heapIN9__gnu_cxx17__normal_iteratorIP3JobSt6vectorIS2_SaIS2_EEEElS2_NS0_5__ops14_Iter_less_valEEvT_T0_SB_T1_T2_
FNDA:0,_ZSt13__adjust_heapIN9__gnu_cxx17__normal_iteratorIP3JobSt6vectorIS2_SaIS2_EEEElS2_NS0_5__ops15_Iter_less_iterEEvT_T0_SB_T1_T2_
FNDA:0,_ZSt10__pop_heapIN9__gnu_cxx17__normal_iteratorIP3JobSt6vectorIS2_SaIS2_EEEENS0_5__ops15_Iter_less_iterEEvT_SA_SA_T0_
FNDA:0,_ZSt11__make_heapIN9__gnu_cxx17__normal_iteratorIP3JobSt6vectorIS2_SaIS2_EEEENS0_5__ops15_Iter_less_iterEEvT_SA_T0_
FNDA:0,_ZSt11__sort_heapIN9__gnu_cxx17__normal_iteratorIP3JobSt6vectorIS2_SaIS2_EEEENS0_5__ops15_Iter_less_iterEEvT_SA_T0_
FNF:5
FNH:0
DA:124,0
DA:128,0
DA:129,0
DA:131,0
DA:132,0
DA:133,0
DA:135,0
DA:136,0
DA:207,0
DA:210,0
DA:211,0
DA:212,0
DA:214,0
DA:215,0
DA:217,0
DA:218,0
DA:219,0
DA:221,0
DA:223,0
DA:224,0
DA:226,0
DA:228,0
DA:229,0
DA:230,0
DA:231,0
DA:235,0
DA:243,0
DA:244,0
DA:245,0
DA:247,0
DA:248,0
DA:317,0
DA:325,0
DA:326,0
DA:328,0
DA:329,0
DA:330,0
DA:332,0
DA:333,0
DA:335,0
DA:336,0
DA:337,0
DA:390,0
DA:393,0
DA:395,0
DA:396,0
DA:398,0
LF:47
LH:0
end_of_record
SF:/usr/include/c++/5/bits/stl_iterator.h
FN:740,_ZN9__gnu_cxx17__normal_iteratorIPK5StateSt6vectorIS1_SaIS1_EEEC2ERKS3_
FN:740,_ZN9__gnu_cxx17__normal_iteratorIP5StateSt6vectorIS1_SaIS1_EEEC2ERKS2_
FN:740,_ZN9__gnu_cxx17__normal_iteratorIPP4UserSt6vectorIS2_SaIS2_EEEC2ERKS3_
FN:740,_ZN9__gnu_cxx17__normal_iteratorIPK3JobSt6vectorIS1_SaIS1_EEEC2ERKS3_
FN:740,_ZN9__gnu_cxx17__normal_iteratorIPKP4UserSt6vectorIS2_SaIS2_EEEC2ERKS4_
FN:740,_ZN9__gnu_cxx17__normal_iteratorIP3JobSt6vectorIS1_SaIS1_EEEC2ERKS2_
FN:745,_ZN9__gnu_cxx17__normal_iteratorIPK5StateSt6vectorIS1_SaIS1_EEEC2IPS1_EERKNS0_IT_NS_11__enable_ifIXsrSt10__are_sameISA_S9_E7__valueES6_E6__typeEEE
FN:753,_ZNK9__gnu_cxx17__normal_iteratorIPK3JobSt6vectorIS1_SaIS1_EEEdeEv
FN:753,_ZNK9__gnu_cxx17__normal_iteratorIP3JobSt6vectorIS1_SaIS1_EEEdeEv
FN:753,_ZNK9__gnu_cxx17__normal_iteratorIP5StateSt6vectorIS1_SaIS1_EEEdeEv
FN:761,_ZN9__gnu_cxx17__normal_iteratorIP3JobSt6vectorIS1_SaIS1_EEEppEv
FN:761,_ZN9__gnu_cxx17__normal_iteratorIPK3JobSt6vectorIS1_SaIS1_EEEppEv
FN:773,_ZN9__gnu_cxx17__normal_iteratorIP3JobSt6vectorIS1_SaIS1_EEEmmEv
FN:793,_ZNK9__gnu_cxx17__normal_iteratorIP5StateSt6vectorIS1_SaIS1_EEEplEl
FN:793,_ZNK9__gnu_cxx17__normal_iteratorIP3JobSt6vectorIS1_SaIS1_EEEplEl
FN:801,_ZNK9__gnu_cxx17__normal_iteratorIP3JobSt6vectorIS1_SaIS1_EEEmiEl
FN:805,_ZNK9__gnu_cxx17__normal_iteratorIPK5StateSt6vectorIS1_SaIS1_EEE4baseEv
FN:805,_ZNK9__gnu_cxx17__normal_iteratorIP5StateSt6vectorIS1_SaIS1_EEE4baseEv
FN:805,_ZNK9__gnu_cxx17__normal_iteratorIPP4UserSt6vectorIS2_SaIS2_EEE4baseEv
FN:805,_ZNK9__gnu_cxx17__normal_iteratorIP3JobSt6vectorIS1_SaIS1_EEE4baseEv
FN:805,_ZNK9__gnu_cxx17__normal_iteratorIPKP4UserSt6vectorIS2_SaIS2_EEE4baseEv
FN:805,_ZNK9__gnu_cxx17__normal_iteratorIPK3JobSt6vectorIS1_SaIS1_EEE4baseEv
FN:820,_ZN9__gnu_cxxeqIPK5StatePS1_St6vectorIS1_SaIS1_EEEEbRKNS_17__normal_iteratorIT_T1_EERKNS8_IT0_SA_EE
FN:827,_ZN9__gnu_cxxeqIP3JobSt6vectorIS1_SaIS1_EEEEbRKNS_17__normal_iteratorIT_T0_EESB_
FN:841,_ZN9__gnu_cxxneIPK3JobSt6vectorIS1_SaIS1_EEEEbRKNS_17__normal_iteratorIT_T0_EESC_
FN:841,_ZN9__gnu_cxxneIP3JobSt6vectorIS1_SaIS1_EEEEbRKNS_17__normal_iteratorIT_T0_EESB_
FN:856,_ZN9__gnu_cxxltIP3JobSt6vectorIS1_SaIS1_EEEEbRKNS_17__normal_iteratorIT_T0_EESB_
FN:911,_ZN9__gnu_cxxmiIPK5StatePS1_St6vectorIS1_SaIS1_EEEEDTmicldtfp_4baseEcldtfp0_4baseEERKNS_17__normal_iteratorIT_T1_EERKNS9_IT0_SB_EE
FN:923,_ZN9__gnu_cxxmiIP3JobSt6vectorIS1_SaIS1_EEEENS_17__normal_iteratorIT_T0_E15difference_typeERKS9_SC_
FN:923,_ZN9__gnu_cxxmiIP5StateSt6vectorIS1_SaIS1_EEEENS_17__normal_iteratorIT_T0_E15difference_typeERKS9_SC_
FN:923,_ZN9__gnu_cxxmiIPK5StateSt6vectorIS1_SaIS1_EEEENS_17__normal_iteratorIT_T0_E15difference_typeERKSA_SD_
FN:984,_ZNSt13move_iteratorIP5StateEC2ES1_
FN:984,_ZNSt13move_iteratorIP3JobEC2ES1_
FN:984,_ZNSt13move_iteratorIPP4UserEC2ES2_
FN:992,_ZNKSt13move_iteratorIPP4UserE4baseEv
FN:992,_ZNKSt13move_iteratorIP3JobE4baseEv
FN:992,_ZNKSt13move_iteratorIP5StateE4baseEv
FN:996,_ZNKSt13move_iteratorIP3JobEdeEv
FN:996,_ZNKSt13move_iteratorIP5StateEdeEv
FN:1004,_ZNSt13move_iteratorIP5StateEppEv
FN:1004,_ZNSt13move_iteratorIP3JobEppEv
FN:1071,_ZSteqIP3JobEbRKSt13move_iteratorIT_ES6_
FN:1071,_ZSteqIP5StateEbRKSt13move_iteratorIT_ES6_
FN:1083,_ZStneIP3JobEbRKSt13move_iteratorIT_ES6_
FN:1083,_ZStneIP5StateEbRKSt13move_iteratorIT_ES6_
FN:1166,_ZSt32__make_move_if_noexcept_iteratorIP3JobSt13move_iteratorIS1_EET0_T_
FN:1166,_ZSt32__make_move_if_noexcept_iteratorIPP4UserSt13move_iteratorIS2_EET0_T_
FN:1166,_ZSt32__make_move_if_noexcept_iteratorIP5StateSt13move_iteratorIS1_EET0_T_
FNDA:479128,_ZN9__gnu_cxx17__normal_iteratorIPK5StateSt6vectorIS1_SaIS1_EEEC2ERKS3_
FNDA:0,_ZN9__gnu_cxx17__normal_iteratorIPK3JobSt6vectorIS1_SaIS1_EEEC2ERKS3_
FNDA:0,_ZN9__gnu_cxx17__normal_iteratorIPP4UserSt6vectorIS2_SaIS2_EEEC2ERKS3_
FNDA:0,_ZN9__gnu_cxx17__normal_iteratorIPKP4UserSt6vectorIS2_SaIS2_EEEC2ERKS4_
FNDA:3458326,_ZN9__gnu_cxx17__normal_iteratorIP5StateSt6vectorIS1_SaIS1_EEEC2ERKS2_
FNDA:90680,_ZN9__gnu_cxx17__normal_iteratorIP3JobSt6vectorIS1_SaIS1_EEEC2ERKS2_
FNDA:500014,_ZN9__gnu_cxx17__normal_iteratorIPK5StateSt6vectorIS1_SaIS1_EEEC2IPS1_EERKNS0_IT_NS_11__enable_ifIXsrSt10__are_sameISA_S9_E7__valueES6_E6__typeEEE
FNDA:0,_ZNK9__gnu_cxx17__normal_iteratorIPK3JobSt6vectorIS1_SaIS1_EEEdeEv
FNDA:5091120,_ZNK9__gnu_cxx17__normal_iteratorIP3JobSt6vectorIS1_SaIS1_EEEdeEv
FNDA:473623,_ZNK9__gnu_cxx17__normal_iteratorIP5StateSt6vectorIS1_SaIS1_EEEdeEv
FNDA:0,_ZN9__gnu_cxx17__normal_iteratorIPK3JobSt6vectorIS1_SaIS1_EEEppEv
FNDA:938150,_ZN9__gnu_cxx17__normal_iteratorIP3JobSt6vectorIS1_SaIS1_EEEppEv
FNDA:1021872,_ZN9__gnu_cxx17__normal_iteratorIP3JobSt6vectorIS1_SaIS1_EEEmmEv
FNDA:67635,_ZNK9__gnu_cxx17__normal_iteratorIP3JobSt6vectorIS1_SaIS1_EEEplEl
FNDA:979142,_ZNK9__gnu_cxx17__normal_iteratorIP5StateSt6vectorIS1_SaIS1_EEEplEl
FNDA:22045,_ZNK9__gnu_cxx17__normal_iteratorIP3JobSt6vectorIS1_SaIS1_EEEmiEl
FNDA:0,_ZNK9__gnu_cxx17__normal_iteratorIPK3JobSt6vectorIS1_SaIS1_EEE4baseEv
FNDA:0,_ZNK9__gnu_cxx17__normal_iteratorIPP4UserSt6vectorIS2_SaIS2_EEE4baseEv
FNDA:0,_ZNK9__gnu_cxx17__normal_iteratorIPKP4UserSt6vectorIS2_SaIS2_EEE4baseEv
FNDA:1830740,_ZNK9__gnu_cxx17__normal_iteratorIP3JobSt6vectorIS1_SaIS1_EEE4baseEv
FNDA:1952779,_ZNK9__gnu_cxx17__normal_iteratorIPK5StateSt6vectorIS1_SaIS1_EEE4baseEv
FNDA:1990180,_ZNK9__gnu_cxx17__normal_iteratorIP5StateSt6vectorIS1_SaIS1_EEE4baseEv
FNDA:494509,_ZN9__gnu_cxxeqIPK5StatePS1_St6vectorIS1_SaIS1_EEEEbRKNS_17__normal_iteratorIT_T1_EERKNS8_IT0_SA_EE
FNDA:500,_ZN9__gnu_cxxeqIP3JobSt6vectorIS1_SaIS1_EEEEbRKNS_17__normal_iteratorIT_T0_EESB_
FNDA:0,_ZN9__gnu_cxxneIPK3JobSt6vectorIS1_SaIS1_EEEEbRKNS_17__normal_iteratorIT_T0_EESC_
FNDA:251000,_ZN9__gnu_cxxneIP3JobSt6vectorIS1_SaIS1_EEEEbRKNS_17__normal_iteratorIT_T0_EESB_
FNDA:596235,_ZN9__gnu_cxxltIP3JobSt6vectorIS1_SaIS1_EEEEbRKNS_17__normal_iteratorIT_T0_EESB_
FNDA:500014,_ZN9__gnu_cxxmiIPK5StatePS1_St6vectorIS1_SaIS1_EEEEDTmicldtfp_4baseEcldtfp0_4baseEERKNS_17__normal_iteratorIT_T1_EERKNS9_IT0_SB_EE
FNDA:5505,_ZN9__gnu_cxxmiIP5StateSt6vectorIS1_SaIS1_EEEENS_17__normal_iteratorIT_T0_E15difference_typeERKS9_SC_
FNDA:67635,_ZN9__gnu_cxxmiIP3JobSt6vectorIS1_SaIS1_EEEENS_17__normal_iteratorIT_T0_E15difference_typeERKS9_SC_
FNDA:479128,_ZN9__gnu_cxxmiIPK5StateSt6vectorIS1_SaIS1_EEEENS_17__normal_iteratorIT_T0_E15difference_typeERKSA_SD_
FNDA:10000,_ZNSt13move_iteratorIPP4UserEC2ES2_
FNDA:22020,_ZNSt13move_iteratorIP5StateEC2ES1_
FNDA:10000,_ZNSt13move_iteratorIP3JobEC2ES1_
FNDA:10000,_ZNKSt13move_iteratorIPP4UserE4baseEv
FNDA:1045050,_ZNKSt13move_iteratorIP5StateE4baseEv
FNDA:521000,_ZNKSt13move_iteratorIP3JobE4baseEv
FNDA:511515,_ZNKSt13move_iteratorIP5StateEdeEv
FNDA:255500,_ZNKSt13move_iteratorIP3JobEdeEv
FNDA:511515,_ZNSt13move_iteratorIP5StateEppEv
FNDA:255500,_ZNSt13move_iteratorIP3JobEppEv
FNDA:522525,_ZSteqIP5StateEbRKSt13move_iteratorIT_ES6_
FNDA:260500,_ZSteqIP3JobEbRKSt13move_iteratorIT_ES6_
FNDA:522525,_ZStneIP5StateEbRKSt13move_iteratorIT_ES6_
FNDA:260500,_ZStneIP3JobEbRKSt13move_iteratorIT_ES6_
FNDA:10000,_ZSt32__make_move_if_noexcept_iteratorIPP4UserSt13move_iteratorIS2_EET0_T_
FNDA:22020,_ZSt32__make_move_if_noexcept_iteratorIP5StateSt13move_iteratorIS1_EET0_T_
FNDA:10000,_ZSt32__make_move_if_noexcept_iteratorIP3JobSt13move_iteratorIS1_EET0_T_
FNF:48
FNH:39
DA:740,4028134
DA:741,4028134
DA:745,500014
DA:749,500014
DA:753,5564743
DA:754,5564743
DA:761,938150
DA:763,938150
DA:764,938150
DA:773,1021872
DA:775,1021872
DA:776,1021872
DA:793,1046777
DA:794,1046777
DA:801,22045
DA:802,22045
DA:805,5773699
DA:806,5773699
DA:820,494509
DA:823,494509
DA:827,500
DA:830,500
DA:841,251000
DA:844,251000
DA:856,596235
DA:859,596235
DA:911,500014
DA:919,500014
DA:923,552268
DA:926,552268
DA:984,42020
DA:985,42020
DA:992,1576050
DA:993,1576050
DA:996,767015
DA:997,767015
DA:1004,767015
DA:1006,767015
DA:1007,767015
DA:1071,783025
DA:1073,783025
DA:1083,783025
DA:1085,783025
DA:1166,42020
DA:1167,42020
LF:45
LH:45
end_of_record
SF:/usr/include/c++/5/bits/stl_iterator_base_types.h
FN:215,_ZNSt10_Iter_baseIN9__gnu_cxx17__normal_iteratorIP3JobSt6vectorIS2_SaIS2_EEEELb0EE7_S_baseES7_
FN:215,_ZNSt10_Iter_baseIP5StateLb0EE7_S_baseES1_
FN:215,_ZNSt10_Iter_baseIN9__gnu_cxx17__normal_iteratorIPKP4UserSt6vectorIS3_SaIS3_EEEELb0EE7_S_baseES9_
FN:215,_ZNSt10_Iter_baseIPP4UserLb0EE7_S_baseES2_
FN:215,_ZNSt10_Iter_baseIP3JobLb0EE7_S_baseES1_
FN:215,_ZNSt10_Iter_baseIN9__gnu_cxx17__normal_iteratorIPK3JobSt6vectorIS2_SaIS2_EEEELb0EE7_S_baseES8_
FN:223,_ZNSt10_Iter_baseIN9__gnu_cxx17__normal_iteratorIPKP4UserSt6vectorIS3_SaIS3_EEEELb1EE7_S_baseES9_
FN:223,_ZNSt10_Iter_baseIN9__gnu_cxx17__normal_iteratorIPK3JobSt6vectorIS2_SaIS2_EEEELb1EE7_S_baseES8_
FN:223,_ZNSt10_Iter_baseIN9__gnu_cxx17__normal_iteratorIP3JobSt6vectorIS2_SaIS2_EEEELb1EE7_S_baseES7_
FN:223,_ZNSt10_Iter_baseISt13move_iteratorIPP4UserELb1EE7_S_baseES4_
FN:223,_ZNSt10_Iter_baseIN9__gnu_cxx17__normal_iteratorIPP4UserSt6vectorIS3_SaIS3_EEEELb1EE7_S_baseES8_
FNDA:0,_ZNSt10_Iter_baseIN9__gnu_cxx17__normal_iteratorIP3JobSt6vectorIS2_SaIS2_EEEELb0EE7_S_baseES7_
FNDA:2368115,_ZNSt10_Iter_baseIP5StateLb0EE7_S_baseES1_
FNDA:0,_ZNSt10_Iter_baseIP3JobLb0EE7_S_baseES1_
FNDA:0,_ZNSt10_Iter_baseIN9__gnu_cxx17__normal_iteratorIPK3JobSt6vectorIS2_SaIS2_EEEELb0EE7_S_baseES8_
FNDA:0,_ZNSt10_Iter_baseIPP4UserLb0EE7_S_baseES2_
FNDA:0,_ZNSt10_Iter_baseIN9__gnu_cxx17__normal_iteratorIPKP4UserSt6vectorIS3_SaIS3_EEEELb0EE7_S_baseES9_
FNDA:10000,_ZNSt10_Iter_baseISt13move_iteratorIPP4UserELb1EE7_S_baseES4_
FNDA:0,_ZNSt10_Iter_baseIN9__gnu_cxx17__normal_iteratorIP3JobSt6vectorIS2_SaIS2_EEEELb1EE7_S_baseES7_
FNDA:0,_ZNSt10_Iter_baseIN9__gnu_cxx17__normal_iteratorIPK3JobSt6vectorIS2_SaIS2_EEEELb1EE7_S_baseES8_
FNDA:0,_ZNSt10_Iter_baseIN9__gnu_cxx17__normal_iteratorIPP4UserSt6vectorIS3_SaIS3_EEEELb1EE7_S_baseES8_
FNDA:0,_ZNSt10_Iter_baseIN9__gnu_cxx17__normal_iteratorIPKP4UserSt6vectorIS3_SaIS3_EEEELb1EE7_S_baseES9_
FNF:11
FNH:2
DA:215,2368115
DA:216,2368115
DA:223,10000
DA:224,10000
LF:4
LH:4
end_of_record
SF:/usr/include/c++/5/bits/stl_uninitialized.h
FN:68,_ZNSt20__uninitialized_copyILb0EE13__uninit_copyISt13move_iteratorIP3JobES4_EET0_T_S7_S6_
FN:68,_ZNSt20__uninitialized_copyILb0EE13__uninit_copyISt13move_iteratorIP5StateES4_EET0_T_S7_S6_
FN:68,_ZNSt20__uninitialized_copyILb0EE13__uninit_copyIN9__gnu_cxx17__normal_iteratorIPK3JobSt6vectorIS4_SaIS4_EEEEPS4_EET0_T_SD_SC_
FN:68,_ZNSt20__uninitialized_copyILb0EE13__uninit_copyIP3JobS3_EET0_T_S5_S4_
FN:91,_ZNSt20__uninitialized_copyILb1EE13__uninit_copyIN9__gnu_cxx17__normal_iteratorIPKP4UserSt6vectorIS5_SaIS5_EEEEPS5_EET0_T_SE_SD_
FN:91,_ZNSt20__uninitialized_copyILb1EE13__uninit_copyISt13move_iteratorIPP4UserES5_EET0_T_S8_S7_
FN:91,_ZNSt20__uninitialized_copyILb1EE13__uninit_copyIPP4UserS4_EET0_T_S6_S5_
FN:107,_ZSt18uninitialized_copyIN9__gnu_cxx17__normal_iteratorIPKP4UserSt6vectorIS3_SaIS3_EEEEPS3_ET0_T_SC_SB_
FN:107,_ZSt18uninitialized_copyISt13move_iteratorIP5StateES2_ET0_T_S5_S4_
FN:107,_ZSt18uninitialized_copyISt13move_iteratorIPP4UserES3_ET0_T_S6_S5_
FN:107,_ZSt18uninitialized_copyIPP4UserS2_ET0_T_S4_S3_
FN:107,_ZSt18uninitialized_copyIN9__gnu_cxx17__normal_iteratorIPK3JobSt6vectorIS2_SaIS2_EEEEPS2_ET0_T_SB_SA_
FN:107,_ZSt18uninitialized_copyIP3JobS1_ET0_T_S3_S2_
FN:107,_ZSt18uninitialized_copyISt13move_iteratorIP3JobES2_ET0_T_S5_S4_
FN:279,_ZSt22__uninitialized_copy_aIN9__gnu_cxx17__normal_iteratorIPKP4UserSt6vectorIS3_SaIS3_EEEEPS3_S3_ET0_T_SC_SB_RSaIT1_E
FN:279,_ZSt22__uninitialized_copy_aISt13move_iteratorIPP4UserES3_S2_ET0_T_S6_S5_RSaIT1_E
FN:279,_ZSt22__uninitialized_copy_aISt13move_iteratorIP3JobES2_S1_ET0_T_S5_S4_RSaIT1_E
FN:279,_ZSt22__uninitialized_copy_aIP3JobS1_S0_ET0_T_S3_S2_RSaIT1_E
FN:279,_ZSt22__uninitialized_copy_aIN9__gnu_cxx17__normal_iteratorIPK3JobSt6vectorIS2_SaIS2_EEEEPS2_S2_ET0_T_SB_SA_RSaIT1_E
FN:279,_ZSt22__uninitialized_copy_aIPP4UserS2_S1_ET0_T_S4_S3_RSaIT1_E
FN:279,_ZSt22__uninitialized_copy_aISt13move_iteratorIP5StateES2_S1_ET0_T_S5_S4_RSaIT1_E
FN:297,_ZSt34__uninitialized_move_if_noexcept_aIP3JobS1_SaIS0_EET0_T_S4_S3_RT1_
FN:297,_ZSt34__uninitialized_move_if_noexcept_aIPP4UserS2_SaIS1_EET0_T_S5_S4_RT1_
FN:297,_ZSt34__uninitialized_move_if_noexcept_aIP5StateS1_SaIS0_EET0_T_S4_S3_RT1_
FNDA:11010,_ZNSt20__uninitialized_copyILb0EE13__uninit_copyISt13move_iteratorIP5StateES4_EET0_T_S7_S6_
FNDA:5000,_ZNSt20__uninitialized_copyILb0EE13__uninit_copyISt13move_iteratorIP3JobES4_EET0_T_S7_S6_
FNDA:0,_ZNSt20__uninitialized_copyILb0EE13__uninit_copyIN9__gnu_cxx17__normal_iteratorIPK3JobSt6vectorIS4_SaIS4_EEEEPS4_EET0_T_SD_SC_
FNDA:0,_ZNSt20__uninitialized_copyILb0EE13__uninit_copyIP3JobS3_EET0_T_S5_S4_
FNDA:5000,_ZNSt20__uninitialized_copyILb1EE13__uninit_copyISt13move_iteratorIPP4UserES5_EET0_T_S8_S7_
FNDA:0,_ZNSt20__uninitialized_copyILb1EE13__uninit_copyIN9__gnu_cxx17__normal_iteratorIPKP4UserSt6vectorIS5_SaIS5_EEEEPS5_EET0_T_SE_SD_
FNDA:0,_ZNSt20__uninitialized_copyILb1EE13__uninit_copyIPP4UserS4_EET0_T_S6_S5_
FNDA:5000,_ZSt18uninitialized_copyISt13move_iteratorIPP4UserES3_ET0_T_S6_S5_
FNDA:11010,_ZSt18uninitialized_copyISt13move_iteratorIP5StateES2_ET0_T_S5_S4_
FNDA:5000,_ZSt18uninitialized_copyISt13move_iteratorIP3JobES2_ET0_T_S5_S4_
FNDA:0,_ZSt18uninitialized_copyIN9__gnu_cxx17__normal_iteratorIPK3JobSt6vectorIS2_SaIS2_EEEEPS2_ET0_T_SB_SA_
FNDA:0,_ZSt18uninitialized_copyIN9__gnu_cxx17__normal_iteratorIPKP4UserSt6vectorIS3_SaIS3_EEEEPS3_ET0_T_SC_SB_
FNDA:0,_ZSt18uninitialized_copyIP3JobS1_ET0_T_S3_S2_
FNDA:0,_ZSt18uninitialized_copyIPP4UserS2_ET0_T_S4_S3_
FNDA:5000,_ZSt22__uninitialized_copy_aISt13move_iteratorIPP4UserES3_S2_ET0_T_S6_S5_RSaIT1_E
FNDA:11010,_ZSt22__uninitialized_copy_aISt13move_iteratorIP5StateES2_S1_ET0_T_S5_S4_RSaIT1_E
FNDA:5000,_ZSt22__uninitialized_copy_aISt13move_iteratorIP3JobES2_S1_ET0_T_S5_S4_RSaIT1_E
FNDA:0,_ZSt22__uninitialized_copy_aIN9__gnu_cxx17__normal_iteratorIPK3JobSt6vectorIS2_SaIS2_EEEEPS2_S2_ET0_T_SB_SA_RSaIT1_E
FNDA:0,_ZSt22__uninitialized_copy_aIN9__gnu_cxx17__normal_iteratorIPKP4UserSt6vectorIS3_SaIS3_EEEEPS3_S3_ET0_T_SC_SB_RSaIT1_E
FNDA:0,_ZSt22__uninitialized_copy_aIP3JobS1_S0_ET0_T_S3_S2_RSaIT1_E
FNDA:0,_ZSt22__uninitialized_copy_aIPP4UserS2_S1_ET0_T_S4_S3_RSaIT1_E
FNDA:5000,_ZSt34__uninitialized_move_if_noexcept_aIPP4UserS2_SaIS1_EET0_T_S5_S4_RT1_
FNDA:11010,_ZSt34__uninitialized_move_if_noexcept_aIP5StateS1_SaIS0_EET0_T_S4_S3_RT1_
FNDA:5000,_ZSt34__uninitialized_move_if_noexcept_aIP3JobS1_SaIS0_EET0_T_S4_S3_RT1_
FNF:24
FNH:12
DA:68,16010
DA:71,16010
DA:74,1550040
DA:75,767015
DA:76,16010
DA:78,0
DA:80,0
DA:81,0
DA:91,5000
DA:93,5000
DA:107,21010
DA:120,21010
DA:126,21010
DA:279,21010
DA:281,21010
DA:297,21010
DA:303,21010
DA:304,21010
LF:18
LH:15
end_of_record
SF:/usr/include/c++/5/bits/stl_vector.h
FN:79,_ZNSt12_Vector_baseI5StateSaIS0_EE12_Vector_implD2Ev
FN:79,_ZNSt12_Vector_baseIP4UserSaIS1_EE12_Vector_implD2Ev
FN:79,_ZNSt12_Vector_baseI3JobSaIS0_EE12_Vector_implD2Ev
FN:86,_ZNSt12_Vector_baseIP4UserSaIS1_EE12_Vector_implC2Ev
FN:86,_ZNSt12_Vector_baseI5StateSaIS0_EE12_Vector_implC2Ev
FN:86,_ZNSt12_Vector_baseI3JobSaIS0_EE12_Vector_implC2Ev
FN:113,_ZNSt12_Vector_baseI5StateSaIS0_EE19_M_get_Tp_allocatorEv
FN:113,_ZNSt12_Vector_baseI3JobSaIS0_EE19_M_get_Tp_allocatorEv
FN:113,_ZNSt12_Vector_baseIP4UserSaIS1_EE19_M_get_Tp_allocatorEv
FN:117,_ZNKSt12_Vector_baseIP4UserSaIS1_EE19_M_get_Tp_allocatorEv
FN:117,_ZNKSt12_Vector_baseI3JobSaIS0_EE19_M_get_Tp_allocatorEv
FN:117,_ZNKSt12_Vector_baseI5StateSaIS0_EE19_M_get_Tp_allocatorEv
FN:124,_ZNSt12_Vector_baseI5StateSaIS0_EEC2Ev
FN:124,_ZNSt12_Vector_baseIP4UserSaIS1_EEC2Ev
FN:124,_ZNSt12_Vector_baseI3JobSaIS0_EEC2Ev
FN:159,_ZNSt12_Vector_baseIP4UserSaIS1_EED2Ev
FN:159,_ZNSt12_Vector_baseI3JobSaIS0_EED2Ev
FN:159,_ZNSt12_Vector_baseI5StateSaIS0_EED2Ev
FN:167,_ZNSt12_Vector_baseIP4UserSaIS1_EE11_M_allocateEm
FN:167,_ZNSt12_Vector_baseI5StateSaIS0_EE11_M_allocateEm
FN:167,_ZNSt12_Vector_baseI3JobSaIS0_EE11_M_allocateEm
FN:174,_ZNSt12_Vector_baseI5StateSaIS0_EE13_M_deallocateEPS0_m
FN:174,_ZNSt12_Vector_baseIP4UserSaIS1_EE13_M_deallocateEPS1_m
FN:174,_ZNSt12_Vector_baseI3JobSaIS0_EE13_M_deallocateEPS0_m
FN:253,_ZNSt6vectorI3JobSaIS0_EEC2Ev
FN:253,_ZNSt6vectorIP4UserSaIS1_EEC2Ev
FN:253,_ZNSt6vectorI5StateSaIS0_EEC2Ev
FN:423,_ZNSt6vectorI5StateSaIS0_EED2Ev
FN:423,_ZNSt6vectorI3JobSaIS0_EED2Ev
FN:423,_ZNSt6vectorIP4UserSaIS1_EED2Ev
FN:547,_ZNSt6vectorI3JobSaIS0_EE5beginEv
FN:547,_ZNSt6vectorI5StateSaIS0_EE5beginEv
FN:547,_ZNSt6vectorIP4UserSaIS1_EE5beginEv
FN:556,_ZNKSt6vectorI3JobSaIS0_EE5beginEv
FN:556,_ZNKSt6vectorIP4UserSaIS1_EE5beginEv
FN:565,_ZNSt6vectorI5StateSaIS0_EE3endEv
FN:565,_ZNSt6vectorI3JobSaIS0_EE3endEv
FN:565,_ZNSt6vectorIP4UserSaIS1_EE3endEv
FN:574,_ZNKSt6vectorI3JobSaIS0_EE3endEv
FN:574,_ZNKSt6vectorIP4UserSaIS1_EE3endEv
FN:620,_ZNKSt6vectorI5StateSaIS0_EE6cbeginEv
FN:654,_ZNKSt6vectorI5StateSaIS0_EE4sizeEv
FN:654,_ZNKSt6vectorI3JobSaIS0_EE4sizeEv
FN:654,_ZNKSt6vectorIP4UserSaIS1_EE4sizeEv
FN:659,_ZNKSt6vectorIP4UserSaIS1_EE8max_sizeEv
FN:659,_ZNKSt6vectorI5StateSaIS0_EE8max_sizeEv
FN:659,_ZNKSt6vectorI3JobSaIS0_EE8max_sizeEv
FN:734,_ZNKSt6vectorI3JobSaIS0_EE8capacityEv
FN:734,_ZNKSt6vectorIP4UserSaIS1_EE8capacityEv
FN:779,_ZNSt6vectorI5StateSaIS0_EEixEm
FN:779,_ZNSt6vectorI3JobSaIS0_EEixEm
FN:779,_ZNSt6vectorIP4UserSaIS1_EEixEm
FN:913,_ZNSt6vectorI3JobSaIS0_EE9push_backERKS0_
FN:931,_ZNSt6vectorIP4UserSaIS1_EE9push_backEOS1_
FN:1211,_ZNSt6vectorIP4UserSaIS1_EE5clearEv
FN:1211,_ZNSt6vectorI3JobSaIS0_EE5clearEv
FN:1221,_ZNSt6vectorI3JobSaIS0_EE20_M_allocate_and_copyIN9__gnu_cxx17__normal_iteratorIPKS0_S2_EEEEPS0_mT_SA_
FN:1221,_ZNSt6vectorIP4UserSaIS1_EE20_M_allocate_and_copyIN9__gnu_cxx17__normal_iteratorIPKS1_S3_EEEEPS1_mT_SB_
FN:1422,_ZNKSt6vectorIP4UserSaIS1_EE12_M_check_lenEmPKc
FN:1422,_ZNKSt6vectorI3JobSaIS0_EE12_M_check_lenEmPKc
FN:1422,_ZNKSt6vectorI5StateSaIS0_EE12_M_check_lenEmPKc
FN:1436,_ZNSt6vectorI3JobSaIS0_EE15_M_erase_at_endEPS0_
FN:1436,_ZNSt6vectorIP4UserSaIS1_EE15_M_erase_at_endEPS1_
FNDA:0,_ZNSt12_Vector_baseI5StateSaIS0_EE12_Vector_implD2Ev
FNDA:0,_ZNSt12_Vector_baseI3JobSaIS0_EE12_Vector_implD2Ev
FNDA:0,_ZNSt12_Vector_baseIP4UserSaIS1_EE12_Vector_implD2Ev
FNDA:501,_ZNSt12_Vector_baseI5StateSaIS0_EE12_Vector_implC2Ev
FNDA:501,_ZNSt12_Vector_baseI3JobSaIS0_EE12_Vector_implC2Ev
FNDA:501,_ZNSt12_Vector_baseIP4UserSaIS1_EE12_Vector_implC2Ev
FNDA:16515,_ZNSt12_Vector_baseI5StateSaIS0_EE19_M_get_Tp_allocatorEv
FNDA:0,_ZNSt12_Vector_baseI3JobSaIS0_EE19_M_get_Tp_allocatorEv
FNDA:0,_ZNSt12_Vector_baseIP4UserSaIS1_EE19_M_get_Tp_allocatorEv
FNDA:11010,_ZNKSt12_Vector_baseI5StateSaIS0_EE19_M_get_Tp_allocatorEv
FNDA:0,_ZNKSt12_Vector_baseI3JobSaIS0_EE19_M_get_Tp_allocatorEv
FNDA:0,_ZNKSt12_Vector_baseIP4UserSaIS1_EE19_M_get_Tp_allocatorEv
FNDA:501,_ZNSt12_Vector_baseI5StateSaIS0_EEC2Ev
FNDA:501,_ZNSt12_Vector_baseI3JobSaIS0_EEC2Ev
FNDA:501,_ZNSt12_Vector_baseIP4UserSaIS1_EEC2Ev
FNDA:0,_ZNSt12_Vector_baseI5StateSaIS0_EED2Ev
FNDA:0,_ZNSt12_Vector_baseI3JobSaIS0_EED2Ev
FNDA:0,_ZNSt12_Vector_baseIP4UserSaIS1_EED2Ev
FNDA:5505,_ZNSt12_Vector_baseI5StateSaIS0_EE11_M_allocateEm
FNDA:0,_ZNSt12_Vector_baseI3JobSaIS0_EE11_M_allocateEm
FNDA:0,_ZNSt12_Vector_baseIP4UserSaIS1_EE11_M_allocateEm
FNDA:5505,_ZNSt12_Vector_baseI5StateSaIS0_EE13_M_deallocateEPS0_m
FNDA:0,_ZNSt12_Vector_baseI3JobSaIS0_EE13_M_deallocateEPS0_m
FNDA:0,_ZNSt12_Vector_baseIP4UserSaIS1_EE13_M_deallocateEPS1_m
FNDA:501,_ZNSt6vectorI5StateSaIS0_EEC2Ev
FNDA:501,_ZNSt6vectorI3JobSaIS0_EEC2Ev
FNDA:501,_ZNSt6vectorIP4UserSaIS1_EEC2Ev
FNDA:0,_ZNSt6vectorI5StateSaIS0_EED2Ev
FNDA:0,_ZNSt6vectorI3JobSaIS0_EED2Ev
FNDA:0,_ZNSt6vectorIP4UserSaIS1_EED2Ev
FNDA:0,_ZNSt6vectorIP4UserSaIS1_EE5beginEv
FNDA:1484661,_ZNSt6vectorI5StateSaIS0_EE5beginEv
FNDA:500,_ZNSt6vectorI3JobSaIS0_EE5beginEv
FNDA:0,_ZNKSt6vectorI3JobSaIS0_EE5beginEv
FNDA:0,_ZNKSt6vectorIP4UserSaIS1_EE5beginEv
FNDA:494509,_ZNSt6vectorI5StateSaIS0_EE3endEv
FNDA:0,_ZNSt6vectorIP4UserSaIS1_EE3endEv
FNDA:500,_ZNSt6vectorI3JobSaIS0_EE3endEv
FNDA:0,_ZNKSt6vectorI3JobSaIS0_EE3endEv
FNDA:0,_ZNKSt6vectorIP4UserSaIS1_EE3endEv
FNDA:479128,_ZNKSt6vectorI5StateSaIS0_EE6cbeginEv
FNDA:0,_ZNKSt6vectorIP4UserSaIS1_EE4sizeEv
FNDA:102735556,_ZNKSt6vectorI5StateSaIS0_EE4sizeEv
FNDA:0,_ZNKSt6vectorI3JobSaIS0_EE4sizeEv
FNDA:10000,_ZNKSt6vectorIP4UserSaIS1_EE8max_sizeEv
FNDA:11010,_ZNKSt6vectorI5StateSaIS0_EE8max_sizeEv
FNDA:10000,_ZNKSt6vectorI3JobSaIS0_EE8max_sizeEv
FNDA:1,_ZNKSt6vectorI3JobSaIS0_EE8capacityEv
FNDA:1,_ZNKSt6vectorIP4UserSaIS1_EE8capacityEv
FNDA:190150361,_ZNSt6vectorI5StateSaIS0_EEixEm
FNDA:250040,_ZNSt6vectorI3JobSaIS0_EEixEm
FNDA:1205984,_ZNSt6vectorIP4UserSaIS1_EEixEm
FNDA:250000,_ZNSt6vectorI3JobSaIS0_EE9push_backERKS0_
FNDA:250500,_ZNSt6vectorIP4UserSaIS1_EE9push_backEOS1_
FNDA:0,_ZNSt6vectorI3JobSaIS0_EE5clearEv
FNDA:0,_ZNSt6vectorIP4UserSaIS1_EE5clearEv
FNDA:1,_ZNSt6vectorI3JobSaIS0_EE20_M_allocate_and_copyIN9__gnu_cxx17__normal_iteratorIPKS0_S2_EEEEPS0_mT_SA_
FNDA:1,_ZNSt6vectorIP4UserSaIS1_EE20_M_allocate_and_copyIN9__gnu_cxx17__normal_iteratorIPKS1_S3_EEEEPS1_mT_SB_
FNDA:5000,_ZNKSt6vectorIP4UserSaIS1_EE12_M_check_lenEmPKc
FNDA:5505,_ZNKSt6vectorI5StateSaIS0_EE12_M_check_lenEmPKc
FNDA:5000,_ZNKSt6vectorI3JobSaIS0_EE12_M_check_lenEmPKc
FNDA:0,_ZNSt6vectorI3JobSaIS0_EE15_M_erase_at_endEPS0_
FNDA:0,_ZNSt6vectorIP4UserSaIS1_EE15_M_erase_at_endEPS1_
FNF:63
FNH:34
DA:79,0
DA:86,1503
DA:87,1503
DA:88,1503
DA:113,16515
DA:114,16515
DA:117,11010
DA:118,11010
DA:124,1503
DA:125,1503
DA:159,0
DA:160,0
DA:161,0
DA:167,5505
DA:170,5505
DA:174,5505
DA:177,5505
DA:178,5004
DA:179,5505
DA:253,1503
DA:257,1503
DA:423,0
DA:424,0
DA:425,0
DA:547,1485161
DA:548,1485161
DA:556,0
DA:557,0
DA:565,495009
DA:566,495009
DA:574,0
DA:575,0
DA:620,479128
DA:621,479128
DA:654,102735556
DA:655,102735556
DA:659,31010
DA:660,31010
DA:734,2
DA:736,2
DA:779,191606385
DA:780,191606385
DA:913,250000
DA:915,250000
DA:917,245000
DA:919,245000
DA:923,5000
DA:927,250000
DA:931,250500
DA:932,250500
DA:1211,0
DA:1212,0
DA:1221,2
DA:1224,2
DA:1227,2
DA:1228,2
DA:1229,2
DA:1231,0
DA:1233,0
DA:1234,0
DA:1422,15505
DA:1424,15505
DA:1425,0
DA:1427,15505
DA:1428,15505
DA:1436,0
DA:1438,0
DA:1439,0
DA:1440,0
LF:69
LH:48
end_of_record
SF:/usr/include/c++/5/bits/vector.tcc
FN:91,_ZNSt6vectorIP4UserSaIS1_EE12emplace_backIJS1_EEEvDpOT_
FN:107,_ZNSt6vectorI5StateSaIS0_EE6insertEN9__gnu_cxx17__normal_iteratorIPKS0_S2_EERS5_
FN:167,_ZNSt6vectorIP4UserSaIS1_EEaSERKS3_
FN:167,_ZNSt6vectorI3JobSaIS0_EEaSERKS2_
FN:321,_ZNSt6vectorI5StateSaIS0_EE13_M_insert_auxIJRKS0_EEEvN9__gnu_cxx17__normal_iteratorIPS0_S2_EEDpOT_
FN:321,_ZNSt6vectorI5StateSaIS0_EE13_M_insert_auxIJS0_EEEvN9__gnu_cxx17__normal_iteratorIPS0_S2_EEDpOT_
FN:407,_ZNSt6vectorI3JobSaIS0_EE19_M_emplace_back_auxIJRKS0_EEEvDpOT_
FN:407,_ZNSt6vectorIP4UserSaIS1_EE19_M_emplace_back_auxIJS1_EEEvDpOT_
FNDA:250500,_ZNSt6vectorIP4UserSaIS1_EE12emplace_backIJS1_EEEvDpOT_
FNDA:500014,_ZNSt6vectorI5StateSaIS0_EE6insertEN9__gnu_cxx17__normal_iteratorIPKS0_S2_EERS5_
FNDA:1,_ZNSt6vectorI3JobSaIS0_EEaSERKS2_
FNDA:1,_ZNSt6vectorIP4UserSaIS1_EEaSERKS3_
FNDA:5505,_ZNSt6vectorI5StateSaIS0_EE13_M_insert_auxIJRKS0_EEEvN9__gnu_cxx17__normal_iteratorIPS0_S2_EEDpOT_
FNDA:473623,_ZNSt6vectorI5StateSaIS0_EE13_M_insert_auxIJS0_EEEvN9__gnu_cxx17__normal_iteratorIPS0_S2_EEDpOT_
FNDA:5000,_ZNSt6vectorIP4UserSaIS1_EE19_M_emplace_back_auxIJS1_EEEvDpOT_
FNDA:5000,_ZNSt6vectorI3JobSaIS0_EE19_M_emplace_back_auxIJRKS0_EEEvDpOT_
FNF:8
FNH:8
DA:91,250500
DA:94,250500
DA:96,245500
DA:97,245500
DA:98,245500
DA:101,5000
DA:102,250500
DA:107,500014
DA:114,500014
DA:115,1994551
DA:116,1983541
DA:118,20886
DA:119,20886
DA:124,479128
DA:125,479128
DA:127,473623
DA:128,473623
DA:131,5505
DA:136,500014
DA:167,2
DA:170,2
DA:173,2
DA:175,0
DA:176,0
DA:179,0
DA:180,0
DA:182,0
DA:183,0
DA:184,0
DA:185,0
DA:187,0
DA:191,2
DA:192,2
DA:194,2
DA:195,2
DA:196,2
DA:197,2
DA:198,4
DA:200,4
DA:201,2
DA:202,2
DA:204,0
DA:206,0
DA:207,0
DA:211,0
DA:213,0
DA:216,0
DA:218,2
DA:220,2
DA:321,479128
DA:330,479128
DA:332,473623
DA:333,473623
DA:335,473623
DA:339,473623
DA:345,473623
DA:351,5505
DA:352,5505
DA:353,5505
DA:354,5505
DA:361,5505
DA:364,5505
DA:368,5505
DA:370,5505
DA:372,5505
DA:373,5505
DA:375,5505
DA:377,5505
DA:379,5505
DA:380,5505
DA:382,0
DA:384,0
DA:385,0
DA:388,0
DA:389,0
DA:390,0
DA:392,5505
DA:393,5505
DA:394,11010
DA:396,11010
DA:397,5505
DA:398,5505
DA:399,5505
DA:401,479128
DA:407,10000
DA:411,10000
DA:412,10000
DA:413,10000
DA:416,10000
DA:417,10000
DA:418,10000
DA:420,10000
DA:422,10000
DA:423,10000
DA:425,10000
DA:427,0
DA:429,0
DA:430,0
DA:432,0
DA:433,0
DA:434,0
DA:436,10000
DA:437,10000
DA:438,20000
DA:440,20000
DA:441,10000
DA:442,10000
DA:443,10000
DA:444,10000
LF:109
LH:82
end_of_record
SF:/usr/include/c++/5/cmath
FN:361,_ZSt3loge
FNDA:1000092,_ZSt3loge
FNF:1
FNH:1
DA:361,1000092
DA:362,1000092
LF:2
LH:2
end_of_record
SF:/usr/include/c++/5/ext/alloc_traits.h
FN:145,_ZN9__gnu_cxx14__alloc_traitsISaIP4UserEE27_S_propagate_on_copy_assignEv
FN:145,_ZN9__gnu_cxx14__alloc_traitsISaI3JobEE27_S_propagate_on_copy_assignEv
FN:154,_ZN9__gnu_cxx14__alloc_traitsISaIP4UserEE15_S_always_equalEv
FN:154,_ZN9__gnu_cxx14__alloc_traitsISaI3JobEE15_S_always_equalEv
FNDA:1,_ZN9__gnu_cxx14__alloc_traitsISaI3JobEE27_S_propagate_on_copy_assignEv
FNDA:1,_ZN9__gnu_cxx14__alloc_traitsISaIP4UserEE27_S_propagate_on_copy_assignEv
FNDA:0,_ZN9__gnu_cxx14__alloc_traitsISaI3JobEE15_S_always_equalEv
FNDA:0,_ZN9__gnu_cxx14__alloc_traitsISaIP4UserEE15_S_always_equalEv
FNF:4
FNH:2
DA:145,2
DA:146,2
DA:154,0
DA:155,0
LF:4
LH:2
end_of_record
SF:/usr/include/c++/5/ext/new_allocator.h
FN:79,_ZN9__gnu_cxx13new_allocatorI5StateEC2Ev
FN:79,_ZN9__gnu_cxx13new_allocatorIP4UserEC2Ev
FN:79,_ZN9__gnu_cxx13new_allocatorI3JobEC2Ev
FN:86,_ZN9__gnu_cxx13new_allocatorI5StateED2Ev
FN:86,_ZN9__gnu_cxx13new_allocatorIP4UserED2Ev
FN:86,_ZN9__gnu_cxx13new_allocatorI3JobED2Ev
FN:99,_ZN9__gnu_cxx13new_allocatorIP4UserE8allocateEmPKv
FN:99,_ZN9__gnu_cxx13new_allocatorI5StateE8allocateEmPKv
FN:99,_ZN9__gnu_cxx13new_allocatorI3JobE8allocateEmPKv
FN:109,_ZN9__gnu_cxx13new_allocatorIP4UserE10deallocateEPS2_m
FN:109,_ZN9__gnu_cxx13new_allocatorI3JobE10deallocateEPS1_m
FN:109,_ZN9__gnu_cxx13new_allocatorI5StateE10deallocateEPS1_m
FN:113,_ZNK9__gnu_cxx13new_allocatorIP4UserE8max_sizeEv
FN:113,_ZNK9__gnu_cxx13new_allocatorI3JobE8max_sizeEv
FN:113,_ZNK9__gnu_cxx13new_allocatorI5StateE8max_sizeEv
FN:119,_ZN9__gnu_cxx13new_allocatorI3JobE9constructIS1_JRKS1_EEEvPT_DpOT0_
FN:119,_ZN9__gnu_cxx13new_allocatorI5StateE9constructIS1_JRKS1_EEEvPT_DpOT0_
FN:119,_ZN9__gnu_cxx13new_allocatorIP4UserE9constructIS2_JS2_EEEvPT_DpOT0_
FN:119,_ZN9__gnu_cxx13new_allocatorI5StateE9constructIS1_JS1_EEEvPT_DpOT0_
FN:124,_ZN9__gnu_cxx13new_allocatorIP4UserE7destroyIS2_EEvPT_
FN:124,_ZN9__gnu_cxx13new_allocatorI3JobE7destroyIS1_EEvPT_
FN:124,_ZN9__gnu_cxx13new_allocatorI5StateE7destroyIS1_EEvPT_
FNDA:501,_ZN9__gnu_cxx13new_allocatorI5StateEC2Ev
FNDA:0,_ZN9__gnu_cxx13new_allocatorI3JobEC2Ev
FNDA:0,_ZN9__gnu_cxx13new_allocatorIP4UserEC2Ev
FNDA:0,_ZN9__gnu_cxx13new_allocatorI5StateED2Ev
FNDA:0,_ZN9__gnu_cxx13new_allocatorI3JobED2Ev
FNDA:0,_ZN9__gnu_cxx13new_allocatorIP4UserED2Ev
FNDA:5505,_ZN9__gnu_cxx13new_allocatorI5StateE8allocateEmPKv
FNDA:0,_ZN9__gnu_cxx13new_allocatorI3JobE8allocateEmPKv
FNDA:0,_ZN9__gnu_cxx13new_allocatorIP4UserE8allocateEmPKv
FNDA:5004,_ZN9__gnu_cxx13new_allocatorI5StateE10deallocateEPS1_m
FNDA:0,_ZN9__gnu_cxx13new_allocatorI3JobE10deallocateEPS1_m
FNDA:0,_ZN9__gnu_cxx13new_allocatorIP4UserE10deallocateEPS2_m
FNDA:16515,_ZNK9__gnu_cxx13new_allocatorI5StateE8max_sizeEv
FNDA:0,_ZNK9__gnu_cxx13new_allocatorI3JobE8max_sizeEv
FNDA:0,_ZNK9__gnu_cxx13new_allocatorIP4UserE8max_sizeEv
FNDA:473623,_ZN9__gnu_cxx13new_allocatorI5StateE9constructIS1_JS1_EEEvPT_DpOT0_
FNDA:250500,_ZN9__gnu_cxx13new_allocatorIP4UserE9constructIS2_JS2_EEEvPT_DpOT0_
FNDA:26391,_ZN9__gnu_cxx13new_allocatorI5StateE9constructIS1_JRKS1_EEEvPT_DpOT0_
FNDA:250000,_ZN9__gnu_cxx13new_allocatorI3JobE9constructIS1_JRKS1_EEEvPT_DpOT0_
FNDA:0,_ZN9__gnu_cxx13new_allocatorIP4UserE7destroyIS2_EEvPT_
FNDA:0,_ZN9__gnu_cxx13new_allocatorI5StateE7destroyIS1_EEvPT_
FNDA:0,_ZN9__gnu_cxx13new_allocatorI3JobE7destroyIS1_EEvPT_
FNF:22
FNH:8
DA:79,501
DA:86,0
DA:99,5505
DA:101,5505
DA:102,0
DA:104,5505
DA:109,5004
DA:110,5004
DA:113,16515
DA:114,16515
DA:119,1000514
DA:120,1000514
DA:124,0
LF:13
LH:10
end_of_record
SF:/usr/include/c++/5/iostream
DA:74,1
LF:1
LH:1
end_of_record
SF:/usr/include/c++/5/new
FN:129,_ZnwmPv
FNDA:0,_ZnwmPv
FNF:1
FNH:0
DA:129,0
DA:130,0
LF:2
LH:0
end_of_record
SF:/mnt/7AAA6049AA60044B/GitHub/supercomputer-simulation/supercomputer/src/system/system.cpp
FN:6,_ZN6SystemC2EP13Configuration
FN:19,_ZN6SystemC2EP13ConfigurationSt6vectorIP4UserSaIS4_EES2_I3JobSaIS7_EE
FN:41,_ZN6System12create_usersEv
FN:52,_ZN6System11create_jobsEv
FN:91,_ZN6System23insert_state_and_updateEmmll3Job
FN:109,_ZN6System17insert_week_stateElm3Job
FN:152,_ZN6System20insert_weekend_stateElm3Job
FN:171,_ZN6System12insert_stateERm3Job
FN:189,_ZN6System8scheduleEv
FN:199,_ZN6System17calculate_op_costEv
FN:223,_ZN6System11get_resultsB5cxx11Ev
FN:234,_Z41__static_initialization_and_destruction_0ii
FN:234,_GLOBAL__sub_I__ZN6SystemC2EP13Configuration
FNDA:500,_ZN6SystemC2EP13Configuration
FNDA:1,_ZN6SystemC2EP13ConfigurationSt6vectorIP4UserSaIS4_EES2_I3JobSaIS7_EE
FNDA:500,_ZN6System12create_usersEv
FNDA:500,_ZN6System11create_jobsEv
FNDA:250007,_ZN6System23insert_state_and_updateEmmll3Job
FNDA:229552,_ZN6System17insert_week_stateElm3Job
FNDA:20455,_ZN6System20insert_weekend_stateElm3Job
FNDA:250007,_ZN6System12insert_stateERm3Job
FNDA:501,_ZN6System8scheduleEv
FNDA:501,_ZN6System17calculate_op_costEv
FNDA:501,_ZN6System11get_resultsB5cxx11Ev
FNDA:1,_GLOBAL__sub_I__ZN6SystemC2EP13Configuration
FNDA:1,_Z41__static_initialization_and_destruction_0ii
FNF:13
FNH:13
DA:6,500
DA:7,500
DA:8,500
DA:9,500
DA:10,500
DA:11,500
DA:12,500
DA:13,500
DA:14,500
DA:19,1
DA:20,1
DA:21,1
DA:22,1
DA:23,1
DA:24,1
DA:25,8
DA:26,7
DA:27,17
DA:28,5
DA:30,7
DA:31,7
DA:32,7
DA:34,1
DA:35,1
DA:36,1
DA:41,500
DA:42,500
DA:43,250500
DA:44,250000
DA:46,500
DA:47,500
DA:52,500
DA:53,500
DA:54,500
DA:56,1000
DA:57,500
DA:58,500
DA:60,250500
DA:61,250000
DA:64,250056
DA:65,28
DA:69,250028
DA:70,14
DA:72,250000
DA:73,250000
DA:74,250000
DA:75,250000
DA:76,1161916
DA:77,455958
DA:79,250000
DA:80,250000
DA:81,250000
DA:83,250000
DA:85,500
DA:86,500
DA:91,250007
DA:92,250007
DA:94,250007
DA:95,250007
DA:96,250007
DA:97,1067478
DA:98,817471
DA:100,250007
DA:101,250007
DA:102,250007
DA:109,229552
DA:110,229552
DA:111,24523816
DA:112,12147132
DA:113,12147132
DA:114,12147132
DA:115,12147132
DA:116,48
DA:117,48
DA:118,2414
DA:119,1183
DA:123,229552
DA:124,36679988
DA:125,18225218
DA:126,11965352
DA:127,11965352
DA:128,11965352
DA:129,99550138
DA:130,43792393
DA:131,43792393
DA:132,43792393
DA:133,43792393
DA:134,261631
DA:135,261631
DA:136,9192115
DA:137,4465242
DA:141,11965352
DA:143,6259866
DA:146,229552
DA:147,229552
DA:152,20455
DA:153,20455
DA:154,20455
DA:155,10185405
DA:156,5082475
DA:158,853941
DA:159,416743
DA:160,9773807
DA:161,4678532
DA:164,20455
DA:165,20455
DA:166,20455
DA:171,250007
DA:172,250007
DA:173,250007
DA:174,229552
DA:176,270623
DA:177,10308
DA:179,250007
DA:180,229552
DA:182,20455
DA:184,250007
DA:189,501
DA:190,501
DA:191,250508
DA:192,250007
DA:194,501
DA:199,501
DA:200,501
DA:201,501
DA:202,500515
DA:203,500014
DA:204,250007
DA:205,27013
DA:207,250007
DA:209,250007
DA:210,250007
DA:211,27013
DA:215,501
DA:216,501
DA:218,501
DA:223,501
DA:224,1002
DA:225,501
DA:226,501
DA:227,501
DA:228,501
DA:229,501
DA:230,501
DA:231,501
DA:232,501
DA:233,1002
DA:234,3
LF:148
LH:148
end_of_record
TN:Supercomputer_Simulation_test_coverage
SF:/usr/include/c++/5/iostream
DA:74,1
LF:1
LH:1
end_of_record
SF:/mnt/7AAA6049AA60044B/GitHub/supercomputer-simulation/testing/catch.hpp
FN:476,_ZN5Catch6isTrueEb
FN:724,_ZN5Catch11NameAndDescC2EPKcS2_
FN:916,_ZN5Catch20DecomposedExpressionC2Ev
FN:918,_ZN5Catch20DecomposedExpressionD2Ev
FN:918,_ZN5Catch20DecomposedExpressionD0Ev
FN:919,_ZNK5Catch20DecomposedExpression18isBinaryExpressionEv
FN:1313,_ZN5Catch8Internal14OperatorTraitsILNS0_8OperatorE0EE7getNameEv
FN:1315,_ZN5Catch8Internal14OperatorTraitsILNS0_8OperatorE2EE7getNameEv
FN:1317,_ZN5Catch8Internal14OperatorTraitsILNS0_8OperatorE4EE7getNameEv
FN:1321,_ZN5Catch8Internal11removeConstIjEERT_RKS2_
FN:1321,_ZN5Catch8Internal11removeConstIdEERT_RKS2_
FN:1321,_ZN5Catch8Internal11removeConstIyEERT_RKS2_
FN:1321,_ZN5Catch8Internal11removeConstIiEERT_RKS2_
FN:1321,_ZN5Catch8Internal11removeConstIlEERT_RKS2_
FN:1333,_ZN5Catch8Internal9EvaluatorIRKdS3_LNS0_8OperatorE0EE8evaluateES3_S3_
FN:1333,_ZN5Catch8Internal9EvaluatorIRKyS3_LNS0_8OperatorE0EE8evaluateES3_S3_
FN:1333,_ZN5Catch8Internal9EvaluatorIRKjRKiLNS0_8OperatorE0EE8evaluateES3_S5_
FN:1333,_ZN5Catch8Internal9EvaluatorIRKlS3_LNS0_8OperatorE0EE8evaluateES3_S3_
FN:1333,_ZN5Catch8Internal9EvaluatorIRKyRKiLNS0_8OperatorE0EE8evaluateES3_S5_
FN:1345,_ZN5Catch8Internal9EvaluatorIRKdS3_LNS0_8OperatorE2EE8evaluateES3_S3_
FN:1345,_ZN5Catch8Internal9EvaluatorIRKjS3_LNS0_8OperatorE2EE8evaluateES3_S3_
FN:1363,_ZN5Catch8Internal9EvaluatorIRKjS3_LNS0_8OperatorE4EE8evaluateES3_S3_
FN:1363,_ZN5Catch8Internal9EvaluatorIRKdS3_LNS0_8OperatorE4EE8evaluateES3_S3_
FN:1603,_ZN5Catch6Detail15StringMakerBaseILb1EE7convertIlEENSt7__cxx1112basic_stringIcSt11char_traitsIcESaIcEEERKT_
FN:1718,_ZN5Catch8toStringIlEENSt7__cxx1112basic_stringIcSt11char_traitsIcESaIcEEERKT_
FN:1750,_ZN5Catch13ExpressionLhsIbED0Ev
FN:1750,_ZN5Catch13ExpressionLhsIRKdED0Ev
FN:1750,_ZN5Catch13ExpressionLhsIRKdED2Ev
FN:1750,_ZN5Catch13ExpressionLhsIRKyED2Ev
FN:1750,_ZN5Catch13ExpressionLhsIRKjED2Ev
FN:1750,_ZN5Catch13ExpressionLhsIRKlED2Ev
FN:1750,_ZN5Catch13ExpressionLhsIRKyED0Ev
FN:1750,_ZN5Catch13ExpressionLhsIRKjED0Ev
FN:1750,_ZN5Catch13ExpressionLhsIbED2Ev
FN:1750,_ZN5Catch13ExpressionLhsIRKlED0Ev
FN:1752,_ZN5Catch13ExpressionLhsIRKlEC2ERNS_13ResultBuilderES2_
FN:1752,_ZN5Catch13ExpressionLhsIRKjEC2ERNS_13ResultBuilderES2_
FN:1752,_ZN5Catch13ExpressionLhsIbEC2ERNS_13ResultBuilderEb
FN:1752,_ZN5Catch13ExpressionLhsIRKyEC2ERNS_13ResultBuilderES2_
FN:1752,_ZN5Catch13ExpressionLhsIRKdEC2ERNS_13ResultBuilderES2_
FN:1758,_ZN5Catch13ExpressionLhsIRKdEeqIdEENS_16BinaryExpressionIS2_LNS_8Internal8OperatorE0ERKT_EESA_
FN:1758,_ZN5Catch13ExpressionLhsIRKyEeqIiEENS_16BinaryExpressionIS2_LNS_8Internal8OperatorE0ERKT_EESA_
FN:1758,_ZN5Catch13ExpressionLhsIRKjEeqIiEENS_16BinaryExpressionIS2_LNS_8Internal8OperatorE0ERKT_EESA_
FN:1758,_ZN5Catch13ExpressionLhsIRKlEeqIlEENS_16BinaryExpressionIS2_LNS_8Internal8OperatorE0ERKT_EESA_
FN:1758,_ZN5Catch13ExpressionLhsIRKyEeqIyEENS_16BinaryExpressionIS2_LNS_8Internal8OperatorE0ERKT_EESA_
FN:1770,_ZN5Catch13ExpressionLhsIRKjEltIjEENS_16BinaryExpressionIS2_LNS_8Internal8OperatorE2ERKT_EESA_
FN:1770,_ZN5Catch13ExpressionLhsIRKdEltIdEENS_16BinaryExpressionIS2_LNS_8Internal8OperatorE2ERKT_EESA_
FN:1782,_ZN5Catch13ExpressionLhsIRKjEleIjEENS_16BinaryExpressionIS2_LNS_8Internal8OperatorE4ERKT_EESA_
FN:1782,_ZN5Catch13ExpressionLhsIRKdEleIdEENS_16BinaryExpressionIS2_LNS_8Internal8OperatorE4ERKT_EESA_
FN:1800,_ZN5Catch13ExpressionLhsIbE13endExpressionEv
FN:1807,_ZNK5Catch13ExpressionLhsIRKlE21reconstructExpressionERNSt7__cxx1112basic_stringIcSt11char_traitsIcESaIcEEE
FN:1807,_ZNK5Catch13ExpressionLhsIRKdE21reconstructExpressionERNSt7__cxx1112basic_stringIcSt11char_traitsIcESaIcEEE
FN:1807,_ZNK5Catch13ExpressionLhsIRKyE21reconstructExpressionERNSt7__cxx1112basic_stringIcSt11char_traitsIcESaIcEEE
FN:1807,_ZNK5Catch13ExpressionLhsIbE21reconstructExpressionERNSt7__cxx1112basic_stringIcSt11char_traitsIcESaIcEEE
FN:1807,_ZNK5Catch13ExpressionLhsIRKjE21reconstructExpressionERNSt7__cxx1112basic_stringIcSt11char_traitsIcESaIcEEE
FN:1813,_ZNK5Catch13ExpressionLhsIRKjE17captureExpressionILNS_8Internal8OperatorE0EKiEENS_16BinaryExpressionIS2_XT_ERT0_EESA_
FN:1813,_ZNK5Catch13ExpressionLhsIRKdE17captureExpressionILNS_8Internal8OperatorE2ES1_EENS_16BinaryExpressionIS2_XT_ERT0_EES9_
FN:1813,_ZNK5Catch13ExpressionLhsIRKyE17captureExpressionILNS_8Internal8OperatorE0ES1_EENS_16BinaryExpressionIS2_XT_ERT0_EES9_
FN:1813,_ZNK5Catch13ExpressionLhsIRKjE17captureExpressionILNS_8Internal8OperatorE2ES1_EENS_16BinaryExpressionIS2_XT_ERT0_EES9_
FN:1813,_ZNK5Catch13ExpressionLhsIRKyE17captureExpressionILNS_8Internal8OperatorE0EKiEENS_16BinaryExpressionIS2_XT_ERT0_EESA_
FN:1813,_ZNK5Catch13ExpressionLhsIRKdE17captureExpressionILNS_8Internal8OperatorE0ES1_EENS_16BinaryExpressionIS2_XT_ERT0_EES9_
FN:1813,_ZNK5Catch13ExpressionLhsIRKjE17captureExpressionILNS_8Internal8OperatorE4ES1_EENS_16BinaryExpressionIS2_XT_ERT0_EES9_
FN:1813,_ZNK5Catch13ExpressionLhsIRKdE17captureExpressionILNS_8Internal8OperatorE4ES1_EENS_16BinaryExpressionIS2_XT_ERT0_EES9_
FN:1813,_ZNK5Catch13ExpressionLhsIRKlE17captureExpressionILNS_8Internal8OperatorE0ES1_EENS_16BinaryExpressionIS2_XT_ERT0_EES9_
FN:1829,_ZN5Catch16BinaryExpressionIRKjLNS_8Internal8OperatorE2ES2_ED0Ev
FN:1829,_ZN5Catch16BinaryExpressionIRKjLNS_8Internal8OperatorE4ES2_ED0Ev
FN:1829,_ZN5Catch16BinaryExpressionIRKdLNS_8Internal8OperatorE0ES2_ED0Ev
FN:1829,_ZN5Catch16BinaryExpressionIRKyLNS_8Internal8OperatorE0ERKiED0Ev
FN:1829,_ZN5Catch16BinaryExpressionIRKjLNS_8Internal8OperatorE0ERKiED0Ev
FN:1829,_ZN5Catch16BinaryExpressionIRKyLNS_8Internal8OperatorE0ES2_ED0Ev
FN:1829,_ZN5Catch16BinaryExpressionIRKdLNS_8Internal8OperatorE4ES2_ED2Ev
FN:1829,_ZN5Catch16BinaryExpressionIRKdLNS_8Internal8OperatorE2ES2_ED0Ev
FN:1829,_ZN5Catch16BinaryExpressionIRKyLNS_8Internal8OperatorE0ERKiED2Ev
FN:1829,_ZN5Catch16BinaryExpressionIRKjLNS_8Internal8OperatorE2ES2_ED2Ev
FN:1829,_ZN5Catch16BinaryExpressionIRKjLNS_8Internal8OperatorE0ERKiED2Ev
FN:1829,_ZN5Catch16BinaryExpressionIRKdLNS_8Internal8OperatorE0ES2_ED2Ev
FN:1829,_ZN5Catch16BinaryExpressionIRKlLNS_8Internal8OperatorE0ES2_ED0Ev
FN:1829,_ZN5Catch16BinaryExpressionIRKjLNS_8Internal8OperatorE4ES2_ED2Ev
FN:1829,_ZN5Catch16BinaryExpressionIRKdLNS_8Internal8OperatorE2ES2_ED2Ev
FN:1829,_ZN5Catch16BinaryExpressionIRKdLNS_8Internal8OperatorE4ES2_ED0Ev
FN:1829,_ZN5Catch16BinaryExpressionIRKlLNS_8Internal8OperatorE0ES2_ED2Ev
FN:1829,_ZN5Catch16BinaryExpressionIRKyLNS_8Internal8OperatorE0ES2_ED2Ev
FN:1831,_ZN5Catch16BinaryExpressionIRKyLNS_8Internal8OperatorE0ES2_EC2ERNS_13ResultBuilderES2_S2_
FN:1831,_ZN5Catch16BinaryExpressionIRKdLNS_8Internal8OperatorE2ES2_EC2ERNS_13ResultBuilderES2_S2_
FN:1831,_ZN5Catch16BinaryExpressionIRKlLNS_8Internal8OperatorE0ES2_EC2ERNS_13ResultBuilderES2_S2_
FN:1831,_ZN5Catch16BinaryExpressionIRKdLNS_8Internal8OperatorE0ES2_EC2ERNS_13ResultBuilderES2_S2_
FN:1831,_ZN5Catch16BinaryExpressionIRKjLNS_8Internal8OperatorE0ERKiEC2ERNS_13ResultBuilderES2_S6_
FN:1831,_ZN5Catch16BinaryExpressionIRKdLNS_8Internal8OperatorE4ES2_EC2ERNS_13ResultBuilderES2_S2_
FN:1831,_ZN5Catch16BinaryExpressionIRKjLNS_8Internal8OperatorE2ES2_EC2ERNS_13ResultBuilderES2_S2_
FN:1831,_ZN5Catch16BinaryExpressionIRKjLNS_8Internal8OperatorE4ES2_EC2ERNS_13ResultBuilderES2_S2_
FN:1831,_ZN5Catch16BinaryExpressionIRKyLNS_8Internal8OperatorE0ERKiEC2ERNS_13ResultBuilderES2_S6_
FN:1836,_ZNK5Catch16BinaryExpressionIRKjLNS_8Internal8OperatorE0ERKiE13endExpressionEv
FN:1836,_ZNK5Catch16BinaryExpressionIRKdLNS_8Internal8OperatorE0ES2_E13endExpressionEv
FN:1836,_ZNK5Catch16BinaryExpressionIRKyLNS_8Internal8OperatorE0ES2_E13endExpressionEv
FN:1836,_ZNK5Catch16BinaryExpressionIRKlLNS_8Internal8OperatorE0ES2_E13endExpressionEv
FN:1836,_ZNK5Catch16BinaryExpressionIRKyLNS_8Internal8OperatorE0ERKiE13endExpressionEv
FN:1836,_ZNK5Catch16BinaryExpressionIRKjLNS_8Internal8OperatorE2ES2_E13endExpressionEv
FN:1836,_ZNK5Catch16BinaryExpressionIRKdLNS_8Internal8OperatorE4ES2_E13endExpressionEv
FN:1836,_ZNK5Catch16BinaryExpressionIRKdLNS_8Internal8OperatorE2ES2_E13endExpressionEv
FN:1836,_ZNK5Catch16BinaryExpressionIRKjLNS_8Internal8OperatorE4ES2_E13endExpressionEv
FN:1842,_ZNK5Catch16BinaryExpressionIRKjLNS_8Internal8OperatorE2ES2_E18isBinaryExpressionEv
FN:1842,_ZNK5Catch16BinaryExpressionIRKdLNS_8Internal8OperatorE0ES2_E18isBinaryExpressionEv
FN:1842,_ZNK5Catch16BinaryExpressionIRKjLNS_8Internal8OperatorE4ES2_E18isBinaryExpressionEv
FN:1842,_ZNK5Catch16BinaryExpressionIRKyLNS_8Internal8OperatorE0ES2_E18isBinaryExpressionEv
FN:1842,_ZNK5Catch16BinaryExpressionIRKdLNS_8Internal8OperatorE4ES2_E18isBinaryExpressionEv
FN:1842,_ZNK5Catch16BinaryExpressionIRKlLNS_8Internal8OperatorE0ES2_E18isBinaryExpressionEv
FN:1842,_ZNK5Catch16BinaryExpressionIRKdLNS_8Internal8OperatorE2ES2_E18isBinaryExpressionEv
FN:1842,_ZNK5Catch16BinaryExpressionIRKyLNS_8Internal8OperatorE0ERKiE18isBinaryExpressionEv
FN:1842,_ZNK5Catch16BinaryExpressionIRKjLNS_8Internal8OperatorE0ERKiE18isBinaryExpressionEv
FN:1846,_ZNK5Catch16BinaryExpressionIRKyLNS_8Internal8OperatorE0ES2_E21reconstructExpressionERNSt7__cxx1112basic_stringIcSt11char_traitsIcESaIcEEE
FN:1846,_ZNK5Catch16BinaryExpressionIRKyLNS_8Internal8OperatorE0ERKiE21reconstructExpressionERNSt7__cxx1112basic_stringIcSt11char_traitsIcESaIcEEE
FN:1846,_ZNK5Catch16BinaryExpressionIRKdLNS_8Internal8OperatorE4ES2_E21reconstructExpressionERNSt7__cxx1112basic_stringIcSt11char_traitsIcESaIcEEE
FN:1846,_ZNK5Catch16BinaryExpressionIRKlLNS_8Internal8OperatorE0ES2_E21reconstructExpressionERNSt7__cxx1112basic_stringIcSt11char_traitsIcESaIcEEE
FN:1846,_ZNK5Catch16BinaryExpressionIRKjLNS_8Internal8OperatorE4ES2_E21reconstructExpressionERNSt7__cxx1112basic_stringIcSt11char_traitsIcESaIcEEE
FN:1846,_ZNK5Catch16BinaryExpressionIRKdLNS_8Internal8OperatorE2ES2_E21reconstructExpressionERNSt7__cxx1112basic_stringIcSt11char_traitsIcESaIcEEE
FN:1846,_ZNK5Catch16BinaryExpressionIRKjLNS_8Internal8OperatorE2ES2_E21reconstructExpressionERNSt7__cxx1112basic_stringIcSt11char_traitsIcESaIcEEE
FN:1846,_ZNK5Catch16BinaryExpressionIRKdLNS_8Internal8OperatorE0ES2_E21reconstructExpressionERNSt7__cxx1112basic_stringIcSt11char_traitsIcESaIcEEE
FN:1846,_ZNK5Catch16BinaryExpressionIRKjLNS_8Internal8OperatorE0ERKiE21reconstructExpressionERNSt7__cxx1112basic_stringIcSt11char_traitsIcESaIcEEE
FN:1902,_ZN5Catch13ResultBuilderleIyEENS_13ExpressionLhsIRKT_EES5_
FN:1902,_ZN5Catch13ResultBuilderleIjEENS_13ExpressionLhsIRKT_EES5_
FN:1902,_ZN5Catch13ResultBuilderleIdEENS_13ExpressionLhsIRKT_EES5_
FN:1902,_ZN5Catch13ResultBuilderleIlEENS_13ExpressionLhsIRKT_EES5_
FN:1906,_ZN5Catch13ResultBuilderleEb
FNDA:572,_ZN5Catch6isTrueEb
FNDA:6,_ZN5Catch11NameAndDescC2EPKcS2_
FNDA:1202,_ZN5Catch20DecomposedExpressionC2Ev
FNDA:0,_ZN5Catch20DecomposedExpressionD0Ev
FNDA:1202,_ZN5Catch20DecomposedExpressionD2Ev
FNDA:0,_ZNK5Catch20DecomposedExpression18isBinaryExpressionEv
FNDA:0,_ZN5Catch8Internal14OperatorTraitsILNS0_8OperatorE0EE7getNameEv
FNDA:0,_ZN5Catch8Internal14OperatorTraitsILNS0_8OperatorE2EE7getNameEv
FNDA:0,_ZN5Catch8Internal14OperatorTraitsILNS0_8OperatorE4EE7getNameEv
FNDA:12,_ZN5Catch8Internal11removeConstIlEERT_RKS2_
FNDA:3,_ZN5Catch8Internal11removeConstIyEERT_RKS2_
FNDA:48,_ZN5Catch8Internal11removeConstIdEERT_RKS2_
FNDA:19,_ZN5Catch8Internal11removeConstIiEERT_RKS2_
FNDA:34,_ZN5Catch8Internal11removeConstIjEERT_RKS2_
FNDA:1,_ZN5Catch8Internal9EvaluatorIRKyRKiLNS0_8OperatorE0EE8evaluateES3_S5_
FNDA:6,_ZN5Catch8Internal9EvaluatorIRKlS3_LNS0_8OperatorE0EE8evaluateES3_S3_
FNDA:1,_ZN5Catch8Internal9EvaluatorIRKyS3_LNS0_8OperatorE0EE8evaluateES3_S3_
FNDA:16,_ZN5Catch8Internal9EvaluatorIRKdS3_LNS0_8OperatorE0EE8evaluateES3_S3_
FNDA:18,_ZN5Catch8Internal9EvaluatorIRKjRKiLNS0_8OperatorE0EE8evaluateES3_S5_
FNDA:4,_ZN5Catch8Internal9EvaluatorIRKdS3_LNS0_8OperatorE2EE8evaluateES3_S3_
FNDA:4,_ZN5Catch8Internal9EvaluatorIRKjS3_LNS0_8OperatorE2EE8evaluateES3_S3_
FNDA:4,_ZN5Catch8Internal9EvaluatorIRKdS3_LNS0_8OperatorE4EE8evaluateES3_S3_
FNDA:4,_ZN5Catch8Internal9EvaluatorIRKjS3_LNS0_8OperatorE4EE8evaluateES3_S3_
FNDA:0,_ZN5Catch6Detail15StringMakerBaseILb1EE7convertIlEENSt7__cxx1112basic_stringIcSt11char_traitsIcESaIcEEERKT_
FNDA:0,_ZN5Catch8toStringIlEENSt7__cxx1112basic_stringIcSt11char_traitsIcESaIcEEERKT_
FNDA:0,_ZN5Catch13ExpressionLhsIbED0Ev
FNDA:514,_ZN5Catch13ExpressionLhsIbED2Ev
FNDA:0,_ZN5Catch13ExpressionLhsIRKjED0Ev
FNDA:26,_ZN5Catch13ExpressionLhsIRKjED2Ev
FNDA:0,_ZN5Catch13ExpressionLhsIRKdED0Ev
FNDA:24,_ZN5Catch13ExpressionLhsIRKdED2Ev
FNDA:0,_ZN5Catch13ExpressionLhsIRKyED0Ev
FNDA:2,_ZN5Catch13ExpressionLhsIRKyED2Ev
FNDA:0,_ZN5Catch13ExpressionLhsIRKlED0Ev
FNDA:6,_ZN5Catch13ExpressionLhsIRKlED2Ev
FNDA:6,_ZN5Catch13ExpressionLhsIRKlEC2ERNS_13ResultBuilderES2_
FNDA:2,_ZN5Catch13ExpressionLhsIRKyEC2ERNS_13ResultBuilderES2_
FNDA:24,_ZN5Catch13ExpressionLhsIRKdEC2ERNS_13ResultBuilderES2_
FNDA:26,_ZN5Catch13ExpressionLhsIRKjEC2ERNS_13ResultBuilderES2_
FNDA:514,_ZN5Catch13ExpressionLhsIbEC2ERNS_13ResultBuilderEb
FNDA:1,_ZN5Catch13ExpressionLhsIRKyEeqIiEENS_16BinaryExpressionIS2_LNS_8Internal8OperatorE0ERKT_EESA_
FNDA:6,_ZN5Catch13ExpressionLhsIRKlEeqIlEENS_16BinaryExpressionIS2_LNS_8Internal8OperatorE0ERKT_EESA_
FNDA:1,_ZN5Catch13ExpressionLhsIRKyEeqIyEENS_16BinaryExpressionIS2_LNS_8Internal8OperatorE0ERKT_EESA_
FNDA:16,_ZN5Catch13ExpressionLhsIRKdEeqIdEENS_16BinaryExpressionIS2_LNS_8Internal8OperatorE0ERKT_EESA_
FNDA:18,_ZN5Catch13ExpressionLhsIRKjEeqIiEENS_16BinaryExpressionIS2_LNS_8Internal8OperatorE0ERKT_EESA_
FNDA:4,_ZN5Catch13ExpressionLhsIRKdEltIdEENS_16BinaryExpressionIS2_LNS_8Internal8OperatorE2ERKT_EESA_
FNDA:4,_ZN5Catch13ExpressionLhsIRKjEltIjEENS_16BinaryExpressionIS2_LNS_8Internal8OperatorE2ERKT_EESA_
FNDA:4,_ZN5Catch13ExpressionLhsIRKdEleIdEENS_16BinaryExpressionIS2_LNS_8Internal8OperatorE4ERKT_EESA_
FNDA:4,_ZN5Catch13ExpressionLhsIRKjEleIjEENS_16BinaryExpressionIS2_LNS_8Internal8OperatorE4ERKT_EESA_
FNDA:514,_ZN5Catch13ExpressionLhsIbE13endExpressionEv
FNDA:0,_ZNK5Catch13ExpressionLhsIbE21reconstructExpressionERNSt7__cxx1112basic_stringIcSt11char_traitsIcESaIcEEE
FNDA:0,_ZNK5Catch13ExpressionLhsIRKjE21reconstructExpressionERNSt7__cxx1112basic_stringIcSt11char_traitsIcESaIcEEE
FNDA:0,_ZNK5Catch13ExpressionLhsIRKdE21reconstructExpressionERNSt7__cxx1112basic_stringIcSt11char_traitsIcESaIcEEE
FNDA:0,_ZNK5Catch13ExpressionLhsIRKyE21reconstructExpressionERNSt7__cxx1112basic_stringIcSt11char_traitsIcESaIcEEE
FNDA:0,_ZNK5Catch13ExpressionLhsIRKlE21reconstructExpressionERNSt7__cxx1112basic_stringIcSt11char_traitsIcESaIcEEE
FNDA:1,_ZNK5Catch13ExpressionLhsIRKyE17captureExpressionILNS_8Internal8OperatorE0EKiEENS_16BinaryExpressionIS2_XT_ERT0_EESA_
FNDA:4,_ZNK5Catch13ExpressionLhsIRKdE17captureExpressionILNS_8Internal8OperatorE4ES1_EENS_16BinaryExpressionIS2_XT_ERT0_EES9_
FNDA:4,_ZNK5Catch13ExpressionLhsIRKdE17captureExpressionILNS_8Internal8OperatorE2ES1_EENS_16BinaryExpressionIS2_XT_ERT0_EES9_
FNDA:4,_ZNK5Catch13ExpressionLhsIRKjE17captureExpressionILNS_8Internal8OperatorE4ES1_EENS_16BinaryExpressionIS2_XT_ERT0_EES9_
FNDA:4,_ZNK5Catch13ExpressionLhsIRKjE17captureExpressionILNS_8Internal8OperatorE2ES1_EENS_16BinaryExpressionIS2_XT_ERT0_EES9_
FNDA:6,_ZNK5Catch13ExpressionLhsIRKlE17captureExpressionILNS_8Internal8OperatorE0ES1_EENS_16BinaryExpressionIS2_XT_ERT0_EES9_
FNDA:1,_ZNK5Catch13ExpressionLhsIRKyE17captureExpressionILNS_8Internal8OperatorE0ES1_EENS_16BinaryExpressionIS2_XT_ERT0_EES9_
FNDA:16,_ZNK5Catch13ExpressionLhsIRKdE17captureExpressionILNS_8Internal8OperatorE0ES1_EENS_16BinaryExpressionIS2_XT_ERT0_EES9_
FNDA:18,_ZNK5Catch13ExpressionLhsIRKjE17captureExpressionILNS_8Internal8OperatorE0EKiEENS_16BinaryExpressionIS2_XT_ERT0_EESA_
FNDA:0,_ZN5Catch16BinaryExpressionIRKjLNS_8Internal8OperatorE0ERKiED0Ev
FNDA:18,_ZN5Catch16BinaryExpressionIRKjLNS_8Internal8OperatorE0ERKiED2Ev
FNDA:0,_ZN5Catch16BinaryExpressionIRKdLNS_8Internal8OperatorE0ES2_ED0Ev
FNDA:16,_ZN5Catch16BinaryExpressionIRKdLNS_8Internal8OperatorE0ES2_ED2Ev
FNDA:0,_ZN5Catch16BinaryExpressionIRKyLNS_8Internal8OperatorE0ES2_ED0Ev
FNDA:1,_ZN5Catch16BinaryExpressionIRKyLNS_8Internal8OperatorE0ES2_ED2Ev
FNDA:0,_ZN5Catch16BinaryExpressionIRKlLNS_8Internal8OperatorE0ES2_ED0Ev
FNDA:6,_ZN5Catch16BinaryExpressionIRKlLNS_8Internal8OperatorE0ES2_ED2Ev
FNDA:0,_ZN5Catch16BinaryExpressionIRKjLNS_8Internal8OperatorE2ES2_ED0Ev
FNDA:4,_ZN5Catch16BinaryExpressionIRKjLNS_8Internal8OperatorE2ES2_ED2Ev
FNDA:0,_ZN5Catch16BinaryExpressionIRKjLNS_8Internal8OperatorE4ES2_ED0Ev
FNDA:4,_ZN5Catch16BinaryExpressionIRKjLNS_8Internal8OperatorE4ES2_ED2Ev
FNDA:0,_ZN5Catch16BinaryExpressionIRKdLNS_8Internal8OperatorE2ES2_ED0Ev
FNDA:4,_ZN5Catch16BinaryExpressionIRKdLNS_8Internal8OperatorE2ES2_ED2Ev
FNDA:0,_ZN5Catch16BinaryExpressionIRKdLNS_8Internal8OperatorE4ES2_ED0Ev
FNDA:4,_ZN5Catch16BinaryExpressionIRKdLNS_8Internal8OperatorE4ES2_ED2Ev
FNDA:0,_ZN5Catch16BinaryExpressionIRKyLNS_8Internal8OperatorE0ERKiED0Ev
FNDA:1,_ZN5Catch16BinaryExpressionIRKyLNS_8Internal8OperatorE0ERKiED2Ev
FNDA:1,_ZN5Catch16BinaryExpressionIRKyLNS_8Internal8OperatorE0ERKiEC2ERNS_13ResultBuilderES2_S6_
FNDA:4,_ZN5Catch16BinaryExpressionIRKdLNS_8Internal8OperatorE4ES2_EC2ERNS_13ResultBuilderES2_S2_
FNDA:4,_ZN5Catch16BinaryExpressionIRKdLNS_8Internal8OperatorE2ES2_EC2ERNS_13ResultBuilderES2_S2_
FNDA:4,_ZN5Catch16BinaryExpressionIRKjLNS_8Internal8OperatorE4ES2_EC2ERNS_13ResultBuilderES2_S2_
FNDA:4,_ZN5Catch16BinaryExpressionIRKjLNS_8Internal8OperatorE2ES2_EC2ERNS_13ResultBuilderES2_S2_
FNDA:6,_ZN5Catch16BinaryExpressionIRKlLNS_8Internal8OperatorE0ES2_EC2ERNS_13ResultBuilderES2_S2_
FNDA:1,_ZN5Catch16BinaryExpressionIRKyLNS_8Internal8OperatorE0ES2_EC2ERNS_13ResultBuilderES2_S2_
FNDA:16,_ZN5Catch16BinaryExpressionIRKdLNS_8Internal8OperatorE0ES2_EC2ERNS_13ResultBuilderES2_S2_
FNDA:18,_ZN5Catch16BinaryExpressionIRKjLNS_8Internal8OperatorE0ERKiEC2ERNS_13ResultBuilderES2_S6_
FNDA:1,_ZNK5Catch16BinaryExpressionIRKyLNS_8Internal8OperatorE0ERKiE13endExpressionEv
FNDA:4,_ZNK5Catch16BinaryExpressionIRKdLNS_8Internal8OperatorE4ES2_E13endExpressionEv
FNDA:4,_ZNK5Catch16BinaryExpressionIRKdLNS_8Internal8OperatorE2ES2_E13endExpressionEv
FNDA:4,_ZNK5Catch16BinaryExpressionIRKjLNS_8Internal8OperatorE4ES2_E13endExpressionEv
FNDA:4,_ZNK5Catch16BinaryExpressionIRKjLNS_8Internal8OperatorE2ES2_E13endExpressionEv
FNDA:6,_ZNK5Catch16BinaryExpressionIRKlLNS_8Internal8OperatorE0ES2_E13endExpressionEv
FNDA:1,_ZNK5Catch16BinaryExpressionIRKyLNS_8Internal8OperatorE0ES2_E13endExpressionEv
FNDA:16,_ZNK5Catch16BinaryExpressionIRKdLNS_8Internal8OperatorE0ES2_E13endExpressionEv
FNDA:18,_ZNK5Catch16BinaryExpressionIRKjLNS_8Internal8OperatorE0ERKiE13endExpressionEv
FNDA:0,_ZNK5Catch16BinaryExpressionIRKjLNS_8Internal8OperatorE0ERKiE18isBinaryExpressionEv
FNDA:0,_ZNK5Catch16BinaryExpressionIRKdLNS_8Internal8OperatorE0ES2_E18isBinaryExpressionEv
FNDA:0,_ZNK5Catch16BinaryExpressionIRKyLNS_8Internal8OperatorE0ES2_E18isBinaryExpressionEv
FNDA:0,_ZNK5Catch16BinaryExpressionIRKlLNS_8Internal8OperatorE0ES2_E18isBinaryExpressionEv
FNDA:0,_ZNK5Catch16BinaryExpressionIRKjLNS_8Internal8OperatorE2ES2_E18isBinaryExpressionEv
FNDA:0,_ZNK5Catch16BinaryExpressionIRKjLNS_8Internal8OperatorE4ES2_E18isBinaryExpressionEv
FNDA:0,_ZNK5Catch16BinaryExpressionIRKdLNS_8Internal8OperatorE2ES2_E18isBinaryExpressionEv
FNDA:0,_ZNK5Catch16BinaryExpressionIRKdLNS_8Internal8OperatorE4ES2_E18isBinaryExpressionEv
FNDA:0,_ZNK5Catch16BinaryExpressionIRKyLNS_8Internal8OperatorE0ERKiE18isBinaryExpressionEv
FNDA:0,_ZNK5Catch16BinaryExpressionIRKjLNS_8Internal8OperatorE0ERKiE21reconstructExpressionERNSt7__cxx1112basic_stringIcSt11char_traitsIcESaIcEEE
FNDA:0,_ZNK5Catch16BinaryExpressionIRKdLNS_8Internal8OperatorE0ES2_E21reconstructExpressionERNSt7__cxx1112basic_stringIcSt11char_traitsIcESaIcEEE
FNDA:0,_ZNK5Catch16BinaryExpressionIRKyLNS_8Internal8OperatorE0ES2_E21reconstructExpressionERNSt7__cxx1112basic_stringIcSt11char_traitsIcESaIcEEE
FNDA:0,_ZNK5Catch16BinaryExpressionIRKlLNS_8Internal8OperatorE0ES2_E21reconstructExpressionERNSt7__cxx1112basic_stringIcSt11char_traitsIcESaIcEEE
FNDA:0,_ZNK5Catch16BinaryExpressionIRKjLNS_8Internal8OperatorE2ES2_E21reconstructExpressionERNSt7__cxx1112basic_stringIcSt11char_traitsIcESaIcEEE
FNDA:0,_ZNK5Catch16BinaryExpressionIRKjLNS_8Internal8OperatorE4ES2_E21reconstructExpressionERNSt7__cxx1112basic_stringIcSt11char_traitsIcESaIcEEE
FNDA:0,_ZNK5Catch16BinaryExpressionIRKdLNS_8Internal8OperatorE2ES2_E21reconstructExpressionERNSt7__cxx1112basic_stringIcSt11char_traitsIcESaIcEEE
FNDA:0,_ZNK5Catch16BinaryExpressionIRKdLNS_8Internal8OperatorE4ES2_E21reconstructExpressionERNSt7__cxx1112basic_stringIcSt11char_traitsIcESaIcEEE
FNDA:0,_ZNK5Catch16BinaryExpressionIRKyLNS_8Internal8OperatorE0ERKiE21reconstructExpressionERNSt7__cxx1112basic_stringIcSt11char_traitsIcESaIcEEE
FNDA:6,_ZN5Catch13ResultBuilderleIlEENS_13ExpressionLhsIRKT_EES5_
FNDA:2,_ZN5Catch13ResultBuilderleIyEENS_13ExpressionLhsIRKT_EES5_
FNDA:24,_ZN5Catch13ResultBuilderleIdEENS_13ExpressionLhsIRKT_EES5_
FNDA:26,_ZN5Catch13ResultBuilderleIjEENS_13ExpressionLhsIRKT_EES5_
FNDA:514,_ZN5Catch13ResultBuilderleEb
FNF:123
FNH:79
DA:476,572
DA:724,6
DA:725,6
DA:726,6
DA:916,1202
DA:918,1202
DA:919,0
DA:920,0
DA:1313,0
DA:1315,0
DA:1317,0
DA:1321,116
DA:1333,42
DA:1334,42
DA:1345,8
DA:1346,8
DA:1363,8
DA:1364,8
DA:1603,0
DA:1604,0
DA:1605,0
DA:1606,0
DA:1718,0
DA:1719,0
DA:1750,572
DA:1752,572
DA:1758,42
DA:1759,42
DA:1770,8
DA:1771,8
DA:1782,8
DA:1783,8
DA:1800,514
DA:1801,514
DA:1802,1028
DA:1803,514
DA:1805,514
DA:1807,0
DA:1808,0
DA:1809,0
DA:1813,58
DA:1814,58
DA:1829,58
DA:1831,58
DA:1832,58
DA:1836,58
DA:1837,116
DA:1838,58
DA:1840,58
DA:1842,0
DA:1843,0
DA:1846,0
DA:1847,0
DA:1848,0
DA:1849,0
DA:1850,0
DA:1851,0
DA:1852,0
DA:1857,0
DA:1858,0
DA:1859,0
DA:1860,0
DA:1861,0
DA:1862,0
DA:1902,58
DA:1903,58
DA:1906,514
DA:1907,514
LF:68
LH:39
end_of_record
SF:/mnt/7AAA6049AA60044B/GitHub/supercomputer-simulation/testing/test_config.cpp
FN:3,_ZL29____C_A_T_C_H____T_E_S_T____0v
FN:36,_ZL29____C_A_T_C_H____T_E_S_T____2v
FN:122,_GLOBAL__sub_I_test_config.cpp
FN:122,_Z41__static_initialization_and_destruction_0ii
FNDA:1,_ZL29____C_A_T_C_H____T_E_S_T____0v
FNDA:1,_ZL29____C_A_T_C_H____T_E_S_T____2v
FNDA:1,_GLOBAL__sub_I_test_config.cpp
FNDA:1,_Z41__static_initialization_and_destruction_0ii
FNF:4
FNH:4
DA:3,2
DA:4,1
DA:6,1
DA:7,1
DA:8,1
DA:9,1
DA:11,1
DA:12,1
DA:13,1
DA:14,1
DA:16,1
DA:17,1
DA:19,1
DA:20,1
DA:22,1
DA:23,1
DA:24,1
DA:25,1
DA:27,1
DA:28,1
DA:29,1
DA:30,1
DA:32,1
DA:33,1
DA:34,1
DA:36,2
DA:37,1
DA:39,1
DA:40,1
DA:41,1
DA:42,1
DA:43,1
DA:44,1
DA:45,1
DA:46,1
DA:47,1
DA:48,1
DA:49,1
DA:51,1
DA:52,1
DA:54,1
DA:55,1
DA:56,1
DA:57,1
DA:58,1
DA:59,1
DA:60,1
DA:61,1
DA:62,1
DA:63,1
DA:64,1
DA:66,1
DA:67,1
DA:69,1
DA:70,1
DA:71,1
DA:72,1
DA:73,1
DA:74,1
DA:75,1
DA:76,1
DA:77,1
DA:78,1
DA:79,1
DA:80,1
DA:82,1
DA:83,1
DA:84,1
DA:85,1
DA:87,1
DA:88,1
DA:89,1
DA:90,1
DA:91,1
DA:92,1
DA:93,1
DA:94,1
DA:95,1
DA:96,1
DA:98,1
DA:99,1
DA:101,1
DA:102,1
DA:103,1
DA:104,1
DA:105,1
DA:106,1
DA:107,1
DA:108,1
DA:109,1
DA:110,1
DA:112,1
DA:113,1
DA:115,1
DA:116,1
DA:118,1
DA:119,1
DA:120,1
DA:121,1
DA:122,4
LF:100
LH:100
end_of_record
TN:Supercomputer_Simulation_test_coverage
SF:/usr/include/c++/5/iostream
DA:74,1
LF:1
LH:1
end_of_record
SF:/mnt/7AAA6049AA60044B/GitHub/supercomputer-simulation/testing/catch.hpp
FN:476,_ZN5Catch6isTrueEb
FN:724,_ZN5Catch11NameAndDescC2EPKcS2_
FN:916,_ZN5Catch20DecomposedExpressionC2Ev
FN:918,_ZN5Catch20DecomposedExpressionD2Ev
FN:918,_ZN5Catch20DecomposedExpressionD0Ev
FN:919,_ZNK5Catch20DecomposedExpression18isBinaryExpressionEv
FN:1313,_ZN5Catch8Internal14OperatorTraitsILNS0_8OperatorE0EE7getNameEv
FN:1321,_ZN5Catch8Internal11removeConstIlEERT_RKS2_
FN:1321,_ZN5Catch8Internal11removeConstIdEERT_RKS2_
FN:1333,_ZN5Catch8Internal9EvaluatorIRKdS3_LNS0_8OperatorE0EE8evaluateES3_S3_
FN:1333,_ZN5Catch8Internal9EvaluatorIRKlS3_LNS0_8OperatorE0EE8evaluateES3_S3_
FN:1603,_ZN5Catch6Detail15StringMakerBaseILb1EE7convertIlEENSt7__cxx1112basic_stringIcSt11char_traitsIcESaIcEEERKT_
FN:1718,_ZN5Catch8toStringIlEENSt7__cxx1112basic_stringIcSt11char_traitsIcESaIcEEERKT_
FN:1750,_ZN5Catch13ExpressionLhsIbED0Ev
FN:1750,_ZN5Catch13ExpressionLhsIRKdED0Ev
FN:1750,_ZN5Catch13ExpressionLhsIbED2Ev
FN:1750,_ZN5Catch13ExpressionLhsIRKlED0Ev
FN:1750,_ZN5Catch13ExpressionLhsIRKdED2Ev
FN:1750,_ZN5Catch13ExpressionLhsIRKlED2Ev
FN:1752,_ZN5Catch13ExpressionLhsIRKlEC2ERNS_13ResultBuilderES2_
FN:1752,_ZN5Catch13ExpressionLhsIbEC2ERNS_13ResultBuilderEb
FN:1752,_ZN5Catch13ExpressionLhsIRKdEC2ERNS_13ResultBuilderES2_
FN:1758,_ZN5Catch13ExpressionLhsIRKlEeqIlEENS_16BinaryExpressionIS2_LNS_8Internal8OperatorE0ERKT_EESA_
FN:1758,_ZN5Catch13ExpressionLhsIRKdEeqIdEENS_16BinaryExpressionIS2_LNS_8Internal8OperatorE0ERKT_EESA_
FN:1800,_ZN5Catch13ExpressionLhsIbE13endExpressionEv
FN:1807,_ZNK5Catch13ExpressionLhsIRKlE21reconstructExpressionERNSt7__cxx1112basic_stringIcSt11char_traitsIcESaIcEEE
FN:1807,_ZNK5Catch13ExpressionLhsIbE21reconstructExpressionERNSt7__cxx1112basic_stringIcSt11char_traitsIcESaIcEEE
FN:1807,_ZNK5Catch13ExpressionLhsIRKdE21reconstructExpressionERNSt7__cxx1112basic_stringIcSt11char_traitsIcESaIcEEE
FN:1813,_ZNK5Catch13ExpressionLhsIRKdE17captureExpressionILNS_8Internal8OperatorE0ES1_EENS_16BinaryExpressionIS2_XT_ERT0_EES9_
FN:1813,_ZNK5Catch13ExpressionLhsIRKlE17captureExpressionILNS_8Internal8OperatorE0ES1_EENS_16BinaryExpressionIS2_XT_ERT0_EES9_
FN:1829,_ZN5Catch16BinaryExpressionIRKlLNS_8Internal8OperatorE0ES2_ED0Ev
FN:1829,_ZN5Catch16BinaryExpressionIRKdLNS_8Internal8OperatorE0ES2_ED0Ev
FN:1829,_ZN5Catch16BinaryExpressionIRKlLNS_8Internal8OperatorE0ES2_ED2Ev
FN:1829,_ZN5Catch16BinaryExpressionIRKdLNS_8Internal8OperatorE0ES2_ED2Ev
FN:1831,_ZN5Catch16BinaryExpressionIRKlLNS_8Internal8OperatorE0ES2_EC2ERNS_13ResultBuilderES2_S2_
FN:1831,_ZN5Catch16BinaryExpressionIRKdLNS_8Internal8OperatorE0ES2_EC2ERNS_13ResultBuilderES2_S2_
FN:1836,_ZNK5Catch16BinaryExpressionIRKlLNS_8Internal8OperatorE0ES2_E13endExpressionEv
FN:1836,_ZNK5Catch16BinaryExpressionIRKdLNS_8Internal8OperatorE0ES2_E13endExpressionEv
FN:1842,_ZNK5Catch16BinaryExpressionIRKdLNS_8Internal8OperatorE0ES2_E18isBinaryExpressionEv
FN:1842,_ZNK5Catch16BinaryExpressionIRKlLNS_8Internal8OperatorE0ES2_E18isBinaryExpressionEv
FN:1846,_ZNK5Catch16BinaryExpressionIRKlLNS_8Internal8OperatorE0ES2_E21reconstructExpressionERNSt7__cxx1112basic_stringIcSt11char_traitsIcESaIcEEE
FN:1846,_ZNK5Catch16BinaryExpressionIRKdLNS_8Internal8OperatorE0ES2_E21reconstructExpressionERNSt7__cxx1112basic_stringIcSt11char_traitsIcESaIcEEE
FN:1902,_ZN5Catch13ResultBuilderleIdEENS_13ExpressionLhsIRKT_EES5_
FN:1902,_ZN5Catch13ResultBuilderleIlEENS_13ExpressionLhsIRKT_EES5_
FN:1906,_ZN5Catch13ResultBuilderleEb
FNDA:0,_ZN5Catch6isTrueEb
FNDA:0,_ZN5Catch11NameAndDescC2EPKcS2_
FNDA:0,_ZN5Catch20DecomposedExpressionC2Ev
FNDA:0,_ZN5Catch20DecomposedExpressionD0Ev
FNDA:0,_ZN5Catch20DecomposedExpressionD2Ev
FNDA:0,_ZNK5Catch20DecomposedExpression18isBinaryExpressionEv
FNDA:0,_ZN5Catch8Internal14OperatorTraitsILNS0_8OperatorE0EE7getNameEv
FNDA:0,_ZN5Catch8Internal11removeConstIlEERT_RKS2_
FNDA:0,_ZN5Catch8Internal11removeConstIdEERT_RKS2_
FNDA:0,_ZN5Catch8Internal9EvaluatorIRKlS3_LNS0_8OperatorE0EE8evaluateES3_S3_
FNDA:0,_ZN5Catch8Internal9EvaluatorIRKdS3_LNS0_8OperatorE0EE8evaluateES3_S3_
FNDA:0,_ZN5Catch6Detail15StringMakerBaseILb1EE7convertIlEENSt7__cxx1112basic_stringIcSt11char_traitsIcESaIcEEERKT_
FNDA:0,_ZN5Catch8toStringIlEENSt7__cxx1112basic_stringIcSt11char_traitsIcESaIcEEERKT_
FNDA:0,_ZN5Catch13ExpressionLhsIbED0Ev
FNDA:0,_ZN5Catch13ExpressionLhsIbED2Ev
FNDA:0,_ZN5Catch13ExpressionLhsIRKdED0Ev
FNDA:0,_ZN5Catch13ExpressionLhsIRKdED2Ev
FNDA:0,_ZN5Catch13ExpressionLhsIRKlED0Ev
FNDA:0,_ZN5Catch13ExpressionLhsIRKlED2Ev
FNDA:0,_ZN5Catch13ExpressionLhsIRKlEC2ERNS_13ResultBuilderES2_
FNDA:0,_ZN5Catch13ExpressionLhsIRKdEC2ERNS_13ResultBuilderES2_
FNDA:0,_ZN5Catch13ExpressionLhsIbEC2ERNS_13ResultBuilderEb
FNDA:0,_ZN5Catch13ExpressionLhsIRKlEeqIlEENS_16BinaryExpressionIS2_LNS_8Internal8OperatorE0ERKT_EESA_
FNDA:0,_ZN5Catch13ExpressionLhsIRKdEeqIdEENS_16BinaryExpressionIS2_LNS_8Internal8OperatorE0ERKT_EESA_
FNDA:0,_ZN5Catch13ExpressionLhsIbE13endExpressionEv
FNDA:0,_ZNK5Catch13ExpressionLhsIbE21reconstructExpressionERNSt7__cxx1112basic_stringIcSt11char_traitsIcESaIcEEE
FNDA:0,_ZNK5Catch13ExpressionLhsIRKdE21reconstructExpressionERNSt7__cxx1112basic_stringIcSt11char_traitsIcESaIcEEE
FNDA:0,_ZNK5Catch13ExpressionLhsIRKlE21reconstructExpressionERNSt7__cxx1112basic_stringIcSt11char_traitsIcESaIcEEE
FNDA:0,_ZNK5Catch13ExpressionLhsIRKlE17captureExpressionILNS_8Internal8OperatorE0ES1_EENS_16BinaryExpressionIS2_XT_ERT0_EES9_
FNDA:0,_ZNK5Catch13ExpressionLhsIRKdE17captureExpressionILNS_8Internal8OperatorE0ES1_EENS_16BinaryExpressionIS2_XT_ERT0_EES9_
FNDA:0,_ZN5Catch16BinaryExpressionIRKdLNS_8Internal8OperatorE0ES2_ED0Ev
FNDA:0,_ZN5Catch16BinaryExpressionIRKdLNS_8Internal8OperatorE0ES2_ED2Ev
FNDA:0,_ZN5Catch16BinaryExpressionIRKlLNS_8Internal8OperatorE0ES2_ED0Ev
FNDA:0,_ZN5Catch16BinaryExpressionIRKlLNS_8Internal8OperatorE0ES2_ED2Ev
FNDA:0,_ZN5Catch16BinaryExpressionIRKlLNS_8Internal8OperatorE0ES2_EC2ERNS_13ResultBuilderES2_S2_
FNDA:0,_ZN5Catch16BinaryExpressionIRKdLNS_8Internal8OperatorE0ES2_EC2ERNS_13ResultBuilderES2_S2_
FNDA:0,_ZNK5Catch16BinaryExpressionIRKlLNS_8Internal8OperatorE0ES2_E13endExpressionEv
FNDA:0,_ZNK5Catch16BinaryExpressionIRKdLNS_8Internal8OperatorE0ES2_E13endExpressionEv
FNDA:0,_ZNK5Catch16BinaryExpressionIRKdLNS_8Internal8OperatorE0ES2_E18isBinaryExpressionEv
FNDA:0,_ZNK5Catch16BinaryExpressionIRKlLNS_8Internal8OperatorE0ES2_E18isBinaryExpressionEv
FNDA:0,_ZNK5Catch16BinaryExpressionIRKdLNS_8Internal8OperatorE0ES2_E21reconstructExpressionERNSt7__cxx1112basic_stringIcSt11char_traitsIcESaIcEEE
FNDA:0,_ZNK5Catch16BinaryExpressionIRKlLNS_8Internal8OperatorE0ES2_E21reconstructExpressionERNSt7__cxx1112basic_stringIcSt11char_traitsIcESaIcEEE
FNDA:0,_ZN5Catch13ResultBuilderleIlEENS_13ExpressionLhsIRKT_EES5_
FNDA:0,_ZN5Catch13ResultBuilderleIdEENS_13ExpressionLhsIRKT_EES5_
FNDA:0,_ZN5Catch13ResultBuilderleEb
FNF:45
FNH:0
DA:476,0
DA:724,0
DA:725,0
DA:726,0
DA:916,0
DA:918,0
DA:919,0
DA:920,0
DA:1313,0
DA:1321,0
DA:1333,0
DA:1334,0
DA:1603,0
DA:1604,0
DA:1605,0
DA:1606,0
DA:1718,0
DA:1719,0
DA:1750,0
DA:1752,0
DA:1758,0
DA:1759,0
DA:1800,0
DA:1801,0
DA:1802,0
DA:1803,0
DA:1805,0
DA:1807,0
DA:1808,0
DA:1809,0
DA:1813,0
DA:1814,0
DA:1829,0
DA:1831,0
DA:1832,0
DA:1836,0
DA:1837,0
DA:1838,0
DA:1840,0
DA:1842,0
DA:1843,0
DA:1846,0
DA:1847,0
DA:1848,0
DA:1849,0
DA:1850,0
DA:1851,0
DA:1852,0
DA:1857,0
DA:1858,0
DA:1859,0
DA:1860,0
DA:1861,0
DA:1862,0
DA:1902,0
DA:1903,0
DA:1906,0
DA:1907,0
LF:58
LH:0
end_of_record
SF:/mnt/7AAA6049AA60044B/GitHub/supercomputer-simulation/testing/test_job.cpp
FN:3,_ZL29____C_A_T_C_H____T_E_S_T____0v
FN:26,_Z41__static_initialization_and_destruction_0ii
FN:26,_GLOBAL__sub_I_test_job.cpp
FNDA:1,_ZL29____C_A_T_C_H____T_E_S_T____0v
FNDA:1,_GLOBAL__sub_I_test_job.cpp
FNDA:1,_Z41__static_initialization_and_destruction_0ii
FNF:3
FNH:3
DA:3,2
DA:4,1
DA:5,1
DA:7,1
DA:8,1
DA:9,1
DA:10,1
DA:12,1
DA:13,1
DA:14,1
DA:15,1
DA:17,1
DA:18,1
DA:19,1
DA:20,1
DA:22,1
DA:23,1
DA:24,1
DA:25,1
DA:26,4
LF:20
LH:20
end_of_record
TN:Supercomputer_Simulation_test_coverage
SF:/usr/include/c++/5/bits/alloc_traits.h
FN:490,_ZNSt16allocator_traitsISaISt4pairIccEEE8allocateERS2_m
FN:490,_ZNSt16allocator_traitsISaIN5Catch3PtrINS0_22CumulativeReporterBase4NodeINS0_12TestRunStatsENS3_INS0_14TestGroupStatsENS3_INS0_13TestCaseStatsENS2_11SectionNodeEEEEEEEEEEE8allocateERSC_m
FN:490,_ZNSt16allocator_traitsISaI3JobEE8allocateERS1_m
FN:490,_ZNSt16allocator_traitsISaIN5Catch3PtrINS0_18IStreamingReporterEEEEE8allocateERS4_m
FN:490,_ZNSt16allocator_traitsISaISt4pairINSt7__cxx1112basic_stringIcSt11char_traitsIcESaIcEEES6_EEE8allocateERS8_m
FN:490,_ZNSt16allocator_traitsISaIPNSt8__detail9_StateSeqINSt7__cxx1112regex_traitsIcEEEEEE8allocateERS7_m
FN:490,_ZNSt16allocator_traitsISaISt4pairIN9__gnu_cxx17__normal_iteratorIPKcNSt7__cxx1112basic_stringIcSt11char_traitsIcESaIcEEEEEiEEE8allocateERSD_m
FN:490,_ZNSt16allocator_traitsISaIN5Catch3PtrINS0_16TestCaseTracking8ITrackerEEEEE8allocateERS5_m
FN:490,_ZNSt16allocator_traitsISaIN5Catch3PtrINS0_22CumulativeReporterBase11SectionNodeEEEEE8allocateERS5_m
FN:490,_ZNSt16allocator_traitsISaIN5Catch11SectionInfoEEE8allocateERS2_m
FN:490,_ZNSt16allocator_traitsISaINSt8__detail6_StateINSt7__cxx1112regex_traitsIcEEEEEE8allocateERS6_m
FN:490,_ZNSt16allocator_traitsISaISt4pairIlSt6vectorINSt7__cxx119sub_matchIN9__gnu_cxx17__normal_iteratorIPKcNS2_12basic_stringIcSt11char_traitsIcESaIcEEEEEEESaISE_EEEEE8allocateERSI_m
FN:490,_ZNSt16allocator_traitsISaISt13_Rb_tree_nodeIN5Catch8TestCaseEEEE8allocateERS4_m
FN:490,_ZNSt16allocator_traitsISaIPlEE8allocateERS1_m
FN:490,_ZNSt16allocator_traitsISaIPN5Catch16TestCaseTracking8ITrackerEEE8allocateERS4_m
FN:490,_ZNSt16allocator_traitsISaINSt7__cxx1112regex_traitsIcE10_RegexMaskEEE8allocateERS4_m
FN:490,_ZNSt16allocator_traitsISaISt13_Rb_tree_nodeISt4pairIKNSt7__cxx1112basic_stringIcSt11char_traitsIcESaIcEEEN5Catch8TagAliasEEEEE8allocateERSD_m
FN:490,_ZNSt16allocator_traitsISaImEE8allocateERS0_m
FN:490,_ZNSt16allocator_traitsISaIN5Catch3PtrINS0_16IReporterFactoryEEEEE8allocateERS4_m
FN:490,_ZNSt16allocator_traitsISaIN5Catch5Clara11CommandLineINS0_10ConfigDataEE3ArgEEE8allocateERS6_m
FN:490,_ZNSt16allocator_traitsISaIN5Catch8TestSpec6FilterEEE8allocateERS3_m
FN:490,_ZNSt16allocator_traitsISaIPN5Catch14IGeneratorInfoEEE8allocateERS3_m
FN:490,_ZNSt16allocator_traitsISaISt13_Rb_tree_nodeISt4pairIKNSt7__cxx1112basic_stringIcSt11char_traitsIcESaIcEEEPN5Catch14IGeneratorInfoEEEEE8allocateERSE_m
FN:490,_ZNSt16allocator_traitsISaIP4UserEE8allocateERS2_m
FN:490,_ZNSt16allocator_traitsISaIN5Catch14SectionEndInfoEEE8allocateERS2_m
FN:490,_ZNSt16allocator_traitsISaIN5Catch5Clara6Parser5TokenEEE8allocateERS4_m
FN:490,_ZNSt16allocator_traitsISaISt13_Rb_tree_nodeISt4pairIKNSt7__cxx1112basic_stringIcSt11char_traitsIcESaIcEEEPN5Catch18IGeneratorsForTestEEEEE8allocateERSE_m
FN:490,_ZNSt16allocator_traitsISaIN5Catch15ConsoleReporter13SummaryColumnEEE8allocateERS3_m
FN:490,_ZNSt16allocator_traitsISaINSt7__cxx1112basic_stringIcSt11char_traitsIcESaIcEEEEE8allocateERS6_m
FN:490,_ZNSt16allocator_traitsISaIN5Catch3PtrINS0_22CumulativeReporterBase4NodeINS0_14TestGroupStatsENS3_INS0_13TestCaseStatsENS2_11SectionNodeEEEEEEEEE8allocateERSA_m
FN:490,_ZNSt16allocator_traitsISaISt13_Rb_tree_nodeINSt7__cxx1112basic_stringIcSt11char_traitsIcESaIcEEEEEE8allocateERS8_m
FN:490,_ZNSt16allocator_traitsISaISt13_Rb_tree_nodeISt4pairIKNSt7__cxx1112basic_stringIcSt11char_traitsIcESaIcEEEN5Catch3PtrINS9_16IReporterFactoryEEEEEEE8allocateERSF_m
FN:490,_ZNSt16allocator_traitsISaISt13_Rb_tree_nodeISt4pairIKllEEEE8allocateERS5_m
FN:490,_ZNSt16allocator_traitsISaIN5Catch3PtrINS0_22CumulativeReporterBase4NodeINS0_13TestCaseStatsENS2_11SectionNodeEEEEEEE8allocateERS8_m
FN:490,_ZNSt16allocator_traitsISaIN5Catch8TestCaseEEE8allocateERS2_m
FN:490,_ZNSt16allocator_traitsISaIN5Catch14AssertionStatsEEE8allocateERS2_m
FN:490,_ZNSt16allocator_traitsISaINSt7__cxx119sub_matchIN9__gnu_cxx17__normal_iteratorIPKcNS0_12basic_stringIcSt11char_traitsIcESaIcEEEEEEEEE8allocateERSD_m
FN:490,_ZNSt16allocator_traitsISaIlEE8allocateERS0_m
FN:490,_ZNSt16allocator_traitsISaISt13_Rb_tree_nodeISt4pairIKNSt7__cxx1112basic_stringIcSt11char_traitsIcESaIcEEEN5Catch7TagInfoEEEEE8allocateERSD_m
FN:490,_ZNSt16allocator_traitsISaIN5Catch11MessageInfoEEE8allocateERS2_m
FN:490,_ZNSt16allocator_traitsISaIPKN5Catch20IExceptionTranslatorEEE8allocateERS4_m
FN:490,_ZNSt16allocator_traitsISaIcEE8allocateERS0_m
FN:490,_ZNSt16allocator_traitsISaINSt8__detail9_StateSeqINSt7__cxx1112regex_traitsIcEEEEEE8allocateERS6_m
FN:490,_ZNSt16allocator_traitsISaIN5Catch3PtrINS0_8TestSpec7PatternEEEEE8allocateERS5_m
FN:490,_ZNSt16allocator_traitsISaISt23_Sp_counted_ptr_inplaceINSt8__detail4_NFAINSt7__cxx1112regex_traitsIcEEEESaIS6_ELN9__gnu_cxx12_Lock_policyE2EEEE8allocateERSB_m
FN:516,_ZNSt16allocator_traitsISaImEE10deallocateERS0_Pmm
FN:516,_ZNSt16allocator_traitsISaIN5Catch3PtrINS0_22CumulativeReporterBase4NodeINS0_13TestCaseStatsENS2_11SectionNodeEEEEEEE10deallocateERS8_PS7_m
FN:516,_ZNSt16allocator_traitsISaIN5Catch14SectionEndInfoEEE10deallocateERS2_PS1_m
FN:516,_ZNSt16allocator_traitsISaINSt7__cxx1112basic_stringIcSt11char_traitsIcESaIcEEEEE10deallocateERS6_PS5_m
FN:516,_ZNSt16allocator_traitsISaIN5Catch3PtrINS0_16TestCaseTracking8ITrackerEEEEE10deallocateERS5_PS4_m
FN:516,_ZNSt16allocator_traitsISaINSt8__detail6_StateINSt7__cxx1112regex_traitsIcEEEEEE10deallocateERS6_PS5_m
FN:516,_ZNSt16allocator_traitsISaIN5Catch11MessageInfoEEE10deallocateERS2_PS1_m
FN:516,_ZNSt16allocator_traitsISaISt6vectorIN5Catch3PtrINS1_22CumulativeReporterBase11SectionNodeEEESaIS5_EEEE10deallocateERS8_PS7_m
FN:516,_ZNSt16allocator_traitsISaINSt7__cxx1112regex_traitsIcE10_RegexMaskEEE10deallocateERS4_PS3_m
FN:516,_ZNSt16allocator_traitsISaIPNSt8__detail9_StateSeqINSt7__cxx1112regex_traitsIcEEEEEE10deallocateERS7_PS6_m
FN:516,_ZNSt16allocator_traitsISaIPlEE10deallocateERS1_PS0_m
FN:516,_ZNSt16allocator_traitsISaISt4pairIlSt6vectorINSt7__cxx119sub_matchIN9__gnu_cxx17__normal_iteratorIPKcNS2_12basic_stringIcSt11char_traitsIcESaIcEEEEEEESaISE_EEEEE10deallocateERSI_PSH_m
FN:516,_ZNSt16allocator_traitsISaISt4pairIN9__gnu_cxx17__normal_iteratorIPKcNSt7__cxx1112basic_stringIcSt11char_traitsIcESaIcEEEEEiEEE10deallocateERSD_PSC_m
FN:516,_ZNSt16allocator_traitsISaISt13_Rb_tree_nodeIN5Catch8TestCaseEEEE10deallocateERS4_PS3_m
FN:516,_ZNSt16allocator_traitsISaIN5Catch5Clara6Parser5TokenEEE10deallocateERS4_PS3_m
FN:516,_ZNSt16allocator_traitsISaIN5Catch15ConsoleReporter13SummaryColumnEEE10deallocateERS3_PS2_m
FN:516,_ZNSt16allocator_traitsISaIPKN5Catch8Matchers4Impl11MatcherBaseINSt7__cxx1112basic_stringIcSt11char_traitsIcESaIcEEES9_EEEE10deallocateERSD_PSC_m
FN:516,_ZNSt16allocator_traitsISaIN5Catch8TestCaseEEE10deallocateERS2_PS1_m
FN:516,_ZNSt16allocator_traitsISaIN5Catch3PtrINS0_22CumulativeReporterBase11SectionNodeEEEEE10deallocateERS5_PS4_m
FN:516,_ZNSt16allocator_traitsISaIP4UserEE10deallocateERS2_PS1_m
FN:516,_ZNSt16allocator_traitsISaIN5Catch3PtrINS0_22CumulativeReporterBase4NodeINS0_12TestRunStatsENS3_INS0_14TestGroupStatsENS3_INS0_13TestCaseStatsENS2_11SectionNodeEEEEEEEEEEE10deallocateERSC_PSB_m
FN:516,_ZNSt16allocator_traitsISaISt4pairIccEEE10deallocateERS2_PS1_m
FN:516,_ZNSt16allocator_traitsISaIN5Catch14AssertionStatsEEE10deallocateERS2_PS1_m
FN:516,_ZNSt16allocator_traitsISaISt4pairINSt7__cxx1112basic_stringIcSt11char_traitsIcESaIcEEES6_EEE10deallocateERS8_PS7_m
FN:516,_ZNSt16allocator_traitsISaIN5Catch3PtrINS0_8TestSpec7PatternEEEEE10deallocateERS5_PS4_m
FN:516,_ZNSt16allocator_traitsISaISt13_Rb_tree_nodeISt4pairIKNSt7__cxx1112basic_stringIcSt11char_traitsIcESaIcEEEPN5Catch18IGeneratorsForTestEEEEE10deallocateERSE_PSD_m
FN:516,_ZNSt16allocator_traitsISaISt13_Rb_tree_nodeISt4pairIKNSt7__cxx1112basic_stringIcSt11char_traitsIcESaIcEEEPN5Catch14IGeneratorInfoEEEEE10deallocateERSE_PSD_m
FN:516,_ZNSt16allocator_traitsISaIN5Catch11SectionInfoEEE10deallocateERS2_PS1_m
FN:516,_ZNSt16allocator_traitsISaIPN5Catch16TestCaseTracking8ITrackerEEE10deallocateERS4_PS3_m
FN:516,_ZNSt16allocator_traitsISaIN5Catch3PtrINS0_16IReporterFactoryEEEEE10deallocateERS4_PS3_m
FN:516,_ZNSt16allocator_traitsISaI3JobEE10deallocateERS1_PS0_m
FN:516,_ZNSt16allocator_traitsISaIlEE10deallocateERS0_Plm
FN:516,_ZNSt16allocator_traitsISaISt13_Rb_tree_nodeISt4pairIKNSt7__cxx1112basic_stringIcSt11char_traitsIcESaIcEEEN5Catch8TagAliasEEEEE10deallocateERSD_PSC_m
FN:516,_ZNSt16allocator_traitsISaIPKN5Catch20IExceptionTranslatorEEE10deallocateERS4_PS3_m
FN:516,_ZNSt16allocator_traitsISaISt23_Sp_counted_ptr_inplaceINSt8__detail4_NFAINSt7__cxx1112regex_traitsIcEEEESaIS6_ELN9__gnu_cxx12_Lock_policyE2EEEE10deallocateERSB_PSA_m
FN:516,_ZNSt16allocator_traitsISaIN5Catch5Clara11CommandLineINS0_10ConfigDataEE3ArgEEE10deallocateERS6_PS5_m
FN:516,_ZNSt16allocator_traitsISaISt13_Rb_tree_nodeISt4pairIKiN5Catch5Clara11CommandLineINS3_10ConfigDataEE3ArgEEEEE10deallocateERSB_PSA_m
FN:516,_ZNSt16allocator_traitsISaINSt7__cxx119sub_matchIN9__gnu_cxx17__normal_iteratorIPKcNS0_12basic_stringIcSt11char_traitsIcESaIcEEEEEEEEE10deallocateERSD_PSC_m
FN:516,_ZNSt16allocator_traitsISaISt13_Rb_tree_nodeISt4pairIKNSt7__cxx1112basic_stringIcSt11char_traitsIcESaIcEEEN5Catch3PtrINS9_16IReporterFactoryEEEEEEE10deallocateERSF_PSE_m
FN:516,_ZNSt16allocator_traitsISaIN5Catch3PtrINS0_18IStreamingReporterEEEEE10deallocateERS4_PS3_m
FN:516,_ZNSt16allocator_traitsISaIN5Catch3PtrINS0_22CumulativeReporterBase4NodeINS0_14TestGroupStatsENS3_INS0_13TestCaseStatsENS2_11SectionNodeEEEEEEEEE10deallocateERSA_PS9_m
FN:516,_ZNSt16allocator_traitsISaINSt8__detail9_StateSeqINSt7__cxx1112regex_traitsIcEEEEEE10deallocateERS6_PS5_m
FN:516,_ZNSt16allocator_traitsISaIcEE10deallocateERS0_Pcm
FN:516,_ZNSt16allocator_traitsISaIN5Catch8TestSpec6FilterEEE10deallocateERS3_PS2_m
FN:516,_ZNSt16allocator_traitsISaISt13_Rb_tree_nodeISt4pairIKllEEEE10deallocateERS5_PS4_m
FN:516,_ZNSt16allocator_traitsISaISt13_Rb_tree_nodeISt4pairIKNSt7__cxx1112basic_stringIcSt11char_traitsIcESaIcEEEN5Catch7TagInfoEEEEE10deallocateERSD_PSC_m
FN:516,_ZNSt16allocator_traitsISaIPN5Catch14IGeneratorInfoEEE10deallocateERS3_PS2_m
FN:516,_ZNSt16allocator_traitsISaISt13_Rb_tree_nodeINSt7__cxx1112basic_stringIcSt11char_traitsIcESaIcEEEEEE10deallocateERS8_PS7_m
FN:529,_ZNSt16allocator_traitsISaIN5Catch3PtrINS0_22CumulativeReporterBase4NodeINS0_14TestGroupStatsENS3_INS0_13TestCaseStatsENS2_11SectionNodeEEEEEEEEE9constructIS9_JRKS9_EEEvRSA_PT_DpOT0_
FN:529,_ZNSt16allocator_traitsISaIN5Catch14AssertionStatsEEE9constructIS1_JRKS1_EEEvRS2_PT_DpOT0_
FN:529,_ZNSt16allocator_traitsISaISt13_Rb_tree_nodeISt4pairIKNSt7__cxx1112basic_stringIcSt11char_traitsIcESaIcEEEPN5Catch18IGeneratorsForTestEEEEE9constructISC_JS1_IS7_SB_EEEEvRSE_PT_DpOT0_
FN:529,_ZNSt16allocator_traitsISaIN5Catch5Clara6Parser5TokenEEE9constructIS3_JRKS3_EEEvRS4_PT_DpOT0_
FN:529,_ZNSt16allocator_traitsISaIN5Catch11SectionInfoEEE9constructIS1_JRKS1_EEEvRS2_PT_DpOT0_
FN:529,_ZNSt16allocator_traitsISaImEE9constructImJRKmEEEvRS0_PT_DpOT0_
FN:529,_ZNSt16allocator_traitsISaISt13_Rb_tree_nodeISt4pairIKllEEEE9constructIS3_JRKSt21piecewise_construct_tSt5tupleIJRS2_EESB_IJEEEEEvRS5_PT_DpOT0_
FN:529,_ZNSt16allocator_traitsISaISt4pairIccEEE9constructIS1_JS1_EEEvRS2_PT_DpOT0_
FN:529,_ZNSt16allocator_traitsISaISt4pairIlSt6vectorINSt7__cxx119sub_matchIN9__gnu_cxx17__normal_iteratorIPKcNS2_12basic_stringIcSt11char_traitsIcESaIcEEEEEEESaISE_EEEEE9constructISH_JRlRKSG_EEEvRSI_PT_DpOT0_
FN:529,_ZNSt16allocator_traitsISaIN5Catch3PtrINS0_22CumulativeReporterBase4NodeINS0_13TestCaseStatsENS2_11SectionNodeEEEEEEE9constructIS7_JRKS7_EEEvRS8_PT_DpOT0_
FN:529,_ZNSt16allocator_traitsISaISt13_Rb_tree_nodeISt4pairIKNSt7__cxx1112basic_stringIcSt11char_traitsIcESaIcEEEN5Catch3PtrINS9_16IReporterFactoryEEEEEEE9constructISD_JS1_IS7_SC_EEEEvRSF_PT_DpOT0_
FN:529,_ZNSt16allocator_traitsISaIN5Catch3PtrINS0_18IStreamingReporterEEEEE9constructIS3_JRKS3_EEEvRS4_PT_DpOT0_
FN:529,_ZNSt16allocator_traitsISaIN5Catch8TestCaseEEE9constructIS1_JRKS1_EEEvRS2_PT_DpOT0_
FN:529,_ZNSt16allocator_traitsISaINSt7__cxx1112basic_stringIcSt11char_traitsIcESaIcEEEEE9constructIS5_JRKS5_EEEvRS6_PT_DpOT0_
FN:529,_ZNSt16allocator_traitsISaIN5Catch3PtrINS0_16TestCaseTracking8ITrackerEEEEE9constructIS4_JRKS4_EEEvRS5_PT_DpOT0_
FN:529,_ZNSt16allocator_traitsISaINSt8__detail4_NFAINSt7__cxx1112regex_traitsIcEEEEEE9constructIS5_JRKSt6localeRNSt15regex_constants18syntax_option_typeEEEEvRS6_PT_DpOT0_
FN:529,_ZNSt16allocator_traitsISaIN5Catch14SectionEndInfoEEE9constructIS1_JRKS1_EEEvRS2_PT_DpOT0_
FN:529,_ZNSt16allocator_traitsISaINSt7__cxx1112basic_stringIcSt11char_traitsIcESaIcEEEEE9constructIS5_JS5_EEEvRS6_PT_DpOT0_
FN:529,_ZNSt16allocator_traitsISaISt13_Rb_tree_nodeINSt7__cxx1112basic_stringIcSt11char_traitsIcESaIcEEEEEE9constructIS6_JS6_EEEvRS8_PT_DpOT0_
FN:529,_ZNSt16allocator_traitsISaIPKN5Catch20IExceptionTranslatorEEE9constructIS3_JRKS3_EEEvRS4_PT_DpOT0_
FN:529,_ZNSt16allocator_traitsISaIN5Catch3PtrINS0_8TestSpec7PatternEEEEE9constructIS4_JRKS4_EEEvRS5_PT_DpOT0_
FN:529,_ZNSt16allocator_traitsISaIN5Catch11MessageInfoEEE9constructIS1_JRKS1_EEEvRS2_PT_DpOT0_
FN:529,_ZNSt16allocator_traitsISaIN5Catch3PtrINS0_16IReporterFactoryEEEEE9constructIS3_JRKS3_EEEvRS4_PT_DpOT0_
FN:529,_ZNSt16allocator_traitsISaIPN5Catch14IGeneratorInfoEEE9constructIS2_JRKS2_EEEvRS3_PT_DpOT0_
FN:529,_ZNSt16allocator_traitsISaIN5Catch3PtrINS0_22CumulativeReporterBase4NodeINS0_12TestRunStatsENS3_INS0_14TestGroupStatsENS3_INS0_13TestCaseStatsENS2_11SectionNodeEEEEEEEEEEE9constructISB_JRKSB_EEEvRSC_PT_DpOT0_
FN:529,_ZNSt16allocator_traitsISaIN5Catch8TestSpec6FilterEEE9constructIS2_JRKS2_EEEvRS3_PT_DpOT0_
FN:529,_ZNSt16allocator_traitsISaIcEE9constructIcJcEEEvRS0_PT_DpOT0_
FN:529,_ZNSt16allocator_traitsISaINSt8__detail6_StateINSt7__cxx1112regex_traitsIcEEEEEE9constructIS5_JS5_EEEvRS6_PT_DpOT0_
FN:529,_ZNSt16allocator_traitsISaINSt7__cxx1112regex_traitsIcE10_RegexMaskEEE9constructIS3_JRKS3_EEEvRS4_PT_DpOT0_
FN:529,_ZNSt16allocator_traitsISaIlEE9constructIlJRKlEEEvRS0_PT_DpOT0_
FN:529,_ZNSt16allocator_traitsISaISt13_Rb_tree_nodeISt4pairIKNSt7__cxx1112basic_stringIcSt11char_traitsIcESaIcEEEN5Catch7TagInfoEEEEE9constructISB_JS1_IS7_SA_EEEEvRSD_PT_DpOT0_
FN:529,_ZNSt16allocator_traitsISaIN5Catch3PtrINS0_22CumulativeReporterBase11SectionNodeEEEEE9constructIS4_JRKS4_EEEvRS5_PT_DpOT0_
FN:529,_ZNSt16allocator_traitsISaIN5Catch5Clara11CommandLineINS0_10ConfigDataEE3ArgEEE9constructIS5_JS5_EEEvRS6_PT_DpOT0_
FN:529,_ZNSt16allocator_traitsISaISt13_Rb_tree_nodeISt4pairIKNSt7__cxx1112basic_stringIcSt11char_traitsIcESaIcEEEPN5Catch14IGeneratorInfoEEEEE9constructISC_JS1_IS7_SB_EEEEvRSE_PT_DpOT0_
FN:529,_ZNSt16allocator_traitsISaINSt8__detail9_StateSeqINSt7__cxx1112regex_traitsIcEEEEEE9constructIS5_JRKS5_EEEvRS6_PT_DpOT0_
FN:529,_ZNSt16allocator_traitsISaINSt8__detail9_StateSeqINSt7__cxx1112regex_traitsIcEEEEEE9constructIS5_JS5_EEEvRS6_PT_DpOT0_
FN:529,_ZNSt16allocator_traitsISaIPN5Catch16TestCaseTracking8ITrackerEEE9constructIS3_JS3_EEEvRS4_PT_DpOT0_
FN:529,_ZNSt16allocator_traitsISaIN5Catch15ConsoleReporter13SummaryColumnEEE9constructIS2_JS2_EEEvRS3_PT_DpOT0_
FN:529,_ZNSt16allocator_traitsISaISt13_Rb_tree_nodeISt4pairIKNSt7__cxx1112basic_stringIcSt11char_traitsIcESaIcEEEN5Catch8TagAliasEEEEE9constructISB_JS1_IS7_SA_EEEEvRSD_PT_DpOT0_
FN:529,_ZNSt16allocator_traitsISaISt4pairINSt7__cxx1112basic_stringIcSt11char_traitsIcESaIcEEES6_EEE9constructIS7_JS7_EEEvRS8_PT_DpOT0_
FN:529,_ZNSt16allocator_traitsISaIN5Catch5Clara6Parser5TokenEEE9constructIS3_JS3_EEEvRS4_PT_DpOT0_
FN:529,_ZNSt16allocator_traitsISaISt13_Rb_tree_nodeIN5Catch8TestCaseEEEE9constructIS2_JRKS2_EEEvRS4_PT_DpOT0_
FN:529,_ZNSt16allocator_traitsISaISt13_Rb_tree_nodeINSt7__cxx1112basic_stringIcSt11char_traitsIcESaIcEEEEEE9constructIS6_JRKS6_EEEvRS8_PT_DpOT0_
FN:541,_ZNSt16allocator_traitsISaISt13_Rb_tree_nodeISt4pairIKiN5Catch5Clara11CommandLineINS3_10ConfigDataEE3ArgEEEEE7destroyIS9_EEvRSB_PT_
FN:541,_ZNSt16allocator_traitsISaIN5Catch8TestCaseEEE7destroyIS1_EEvRS2_PT_
FN:541,_ZNSt16allocator_traitsISaIN5Catch14SectionEndInfoEEE7destroyIS1_EEvRS2_PT_
FN:541,_ZNSt16allocator_traitsISaISt4pairIccEEE7destroyIS1_EEvRS2_PT_
FN:541,_ZNSt16allocator_traitsISaIN5Catch11MessageInfoEEE7destroyIS1_EEvRS2_PT_
FN:541,_ZNSt16allocator_traitsISaIN5Catch3PtrINS0_22CumulativeReporterBase11SectionNodeEEEEE7destroyIS4_EEvRS5_PT_
FN:541,_ZNSt16allocator_traitsISaIPN5Catch14IGeneratorInfoEEE7destroyIS2_EEvRS3_PT_
FN:541,_ZNSt16allocator_traitsISaIN5Catch3PtrINS0_8TestSpec7PatternEEEEE7destroyIS4_EEvRS5_PT_
FN:541,_ZNSt16allocator_traitsISaIN5Catch11SectionInfoEEE7destroyIS1_EEvRS2_PT_
FN:541,_ZNSt16allocator_traitsISaIcEE7destroyIcEEvRS0_PT_
FN:541,_ZNSt16allocator_traitsISaIN5Catch3PtrINS0_22CumulativeReporterBase4NodeINS0_14TestGroupStatsENS3_INS0_13TestCaseStatsENS2_11SectionNodeEEEEEEEEE7destroyIS9_EEvRSA_PT_
FN:541,_ZNSt16allocator_traitsISaIlEE7destroyIlEEvRS0_PT_
FN:541,_ZNSt16allocator_traitsISaINSt7__cxx1112basic_stringIcSt11char_traitsIcESaIcEEEEE7destroyIS5_EEvRS6_PT_
FN:541,_ZNSt16allocator_traitsISaISt13_Rb_tree_nodeISt4pairIKNSt7__cxx1112basic_stringIcSt11char_traitsIcESaIcEEEPN5Catch18IGeneratorsForTestEEEEE7destroyISC_EEvRSE_PT_
FN:541,_ZNSt16allocator_traitsISaISt13_Rb_tree_nodeISt4pairIKNSt7__cxx1112basic_stringIcSt11char_traitsIcESaIcEEEN5Catch3PtrINS9_16IReporterFactoryEEEEEEE7destroyISD_EEvRSF_PT_
FN:541,_ZNSt16allocator_traitsISaIN5Catch15ConsoleReporter13SummaryColumnEEE7destroyIS2_EEvRS3_PT_
FN:541,_ZNSt16allocator_traitsISaIN5Catch3PtrINS0_22CumulativeReporterBase4NodeINS0_13TestCaseStatsENS2_11SectionNodeEEEEEEE7destroyIS7_EEvRS8_PT_
FN:541,_ZNSt16allocator_traitsISaIN5Catch8TestSpec6FilterEEE7destroyIS2_EEvRS3_PT_
FN:541,_ZNSt16allocator_traitsISaISt13_Rb_tree_nodeINSt7__cxx1112basic_stringIcSt11char_traitsIcESaIcEEEEEE7destroyIS6_EEvRS8_PT_
FN:541,_ZNSt16allocator_traitsISaINSt8__detail6_StateINSt7__cxx1112regex_traitsIcEEEEEE7destroyIS5_EEvRS6_PT_
FN:541,_ZNSt16allocator_traitsISaIN5Catch5Clara11CommandLineINS0_10ConfigDataEE3ArgEEE7destroyIS5_EEvRS6_PT_
FN:541,_ZNSt16allocator_traitsISaINSt8__detail4_NFAINSt7__cxx1112regex_traitsIcEEEEEE7destroyIS5_EEvRS6_PT_
FN:541,_ZNSt16allocator_traitsISaISt4pairIlSt6vectorINSt7__cxx119sub_matchIN9__gnu_cxx17__normal_iteratorIPKcNS2_12basic_stringIcSt11char_traitsIcESaIcEEEEEEESaISE_EEEEE7destroyISH_EEvRSI_PT_
FN:541,_ZNSt16allocator_traitsISaISt13_Rb_tree_nodeISt4pairIKNSt7__cxx1112basic_stringIcSt11char_traitsIcESaIcEEEPN5Catch14IGeneratorInfoEEEEE7destroyISC_EEvRSE_PT_
FN:541,_ZNSt16allocator_traitsISaIPKN5Catch20IExceptionTranslatorEEE7destroyIS3_EEvRS4_PT_
FN:541,_ZNSt16allocator_traitsISaIN5Catch14AssertionStatsEEE7destroyIS1_EEvRS2_PT_
FN:541,_ZNSt16allocator_traitsISaIN5Catch5Clara6Parser5TokenEEE7destroyIS3_EEvRS4_PT_
FN:541,_ZNSt16allocator_traitsISaISt13_Rb_tree_nodeISt4pairIKNSt7__cxx1112basic_stringIcSt11char_traitsIcESaIcEEEN5Catch8TagAliasEEEEE7destroyISB_EEvRSD_PT_
FN:541,_ZNSt16allocator_traitsISaISt13_Rb_tree_nodeIN5Catch8TestCaseEEEE7destroyIS2_EEvRS4_PT_
FN:541,_ZNSt16allocator_traitsISaINSt8__detail9_StateSeqINSt7__cxx1112regex_traitsIcEEEEEE7destroyIS5_EEvRS6_PT_
FN:541,_ZNSt16allocator_traitsISaIPN5Catch16TestCaseTracking8ITrackerEEE7destroyIS3_EEvRS4_PT_
FN:541,_ZNSt16allocator_traitsISaIN5Catch3PtrINS0_16TestCaseTracking8ITrackerEEEEE7destroyIS4_EEvRS5_PT_
FN:541,_ZNSt16allocator_traitsISaISt13_Rb_tree_nodeISt4pairIKNSt7__cxx1112basic_stringIcSt11char_traitsIcESaIcEEEN5Catch7TagInfoEEEEE7destroyISB_EEvRSD_PT_
FN:541,_ZNSt16allocator_traitsISaISt13_Rb_tree_nodeISt4pairIKllEEEE7destroyIS3_EEvRS5_PT_
FN:541,_ZNSt16allocator_traitsISaISt4pairINSt7__cxx1112basic_stringIcSt11char_traitsIcESaIcEEES6_EEE7destroyIS7_EEvRS8_PT_
FN:541,_ZNSt16allocator_traitsISaImEE7destroyImEEvRS0_PT_
FN:541,_ZNSt16allocator_traitsISaIN5Catch3PtrINS0_22CumulativeReporterBase4NodeINS0_12TestRunStatsENS3_INS0_14TestGroupStatsENS3_INS0_13TestCaseStatsENS2_11SectionNodeEEEEEEEEEEE7destroyISB_EEvRSC_PT_
FN:541,_ZNSt16allocator_traitsISaIN5Catch3PtrINS0_16IReporterFactoryEEEEE7destroyIS3_EEvRS4_PT_
FN:541,_ZNSt16allocator_traitsISaINSt7__cxx1112regex_traitsIcE10_RegexMaskEEE7destroyIS3_EEvRS4_PT_
FN:541,_ZNSt16allocator_traitsISaIN5Catch3PtrINS0_18IStreamingReporterEEEEE7destroyIS3_EEvRS4_PT_
FN:550,_ZNSt16allocator_traitsISaIcEE8max_sizeERKS0_
FN:550,_ZNSt16allocator_traitsISaIN5Catch3PtrINS0_22CumulativeReporterBase4NodeINS0_12TestRunStatsENS3_INS0_14TestGroupStatsENS3_INS0_13TestCaseStatsENS2_11SectionNodeEEEEEEEEEEE8max_sizeERKSC_
FN:550,_ZNSt16allocator_traitsISaIN5Catch3PtrINS0_22CumulativeReporterBase11SectionNodeEEEEE8max_sizeERKS5_
FN:550,_ZNSt16allocator_traitsISaIN5Catch11SectionInfoEEE8max_sizeERKS2_
FN:550,_ZNSt16allocator_traitsISaIN5Catch3PtrINS0_18IStreamingReporterEEEEE8max_sizeERKS4_
FN:550,_ZNSt16allocator_traitsISaIN5Catch5Clara6Parser5TokenEEE8max_sizeERKS4_
FN:550,_ZNSt16allocator_traitsISaIPKN5Catch20IExceptionTranslatorEEE8max_sizeERKS4_
FN:550,_ZNSt16allocator_traitsISaIPN5Catch16TestCaseTracking8ITrackerEEE8max_sizeERKS4_
FN:550,_ZNSt16allocator_traitsISaIN5Catch14SectionEndInfoEEE8max_sizeERKS2_
FN:550,_ZNSt16allocator_traitsISaINSt7__cxx119sub_matchIN9__gnu_cxx17__normal_iteratorIPKcNS0_12basic_stringIcSt11char_traitsIcESaIcEEEEEEEEE8max_sizeERKSD_
FN:550,_ZNSt16allocator_traitsISaIPN5Catch14IGeneratorInfoEEE8max_sizeERKS3_
FN:550,_ZNSt16allocator_traitsISaISt4pairIccEEE8max_sizeERKS2_
FN:550,_ZNSt16allocator_traitsISaIN5Catch5Clara11CommandLineINS0_10ConfigDataEE3ArgEEE8max_sizeERKS6_
FN:550,_ZNSt16allocator_traitsISaIN5Catch15ConsoleReporter13SummaryColumnEEE8max_sizeERKS3_
FN:550,_ZNSt16allocator_traitsISaImEE8max_sizeERKS0_
FN:550,_ZNSt16allocator_traitsISaIN5Catch3PtrINS0_16TestCaseTracking8ITrackerEEEEE8max_sizeERKS5_
FN:550,_ZNSt16allocator_traitsISaISt4pairINSt7__cxx1112basic_stringIcSt11char_traitsIcESaIcEEES6_EEE8max_sizeERKS8_
FN:550,_ZNSt16allocator_traitsISaIN5Catch8TestCaseEEE8max_sizeERKS2_
FN:550,_ZNSt16allocator_traitsISaIN5Catch3PtrINS0_22CumulativeReporterBase4NodeINS0_14TestGroupStatsENS3_INS0_13TestCaseStatsENS2_11SectionNodeEEEEEEEEE8max_sizeERKSA_
FN:550,_ZNSt16allocator_traitsISaIN5Catch3PtrINS0_16IReporterFactoryEEEEE8max_sizeERKS4_
FN:550,_ZNSt16allocator_traitsISaINSt8__detail6_StateINSt7__cxx1112regex_traitsIcEEEEEE8max_sizeERKS6_
FN:550,_ZNSt16allocator_traitsISaINSt7__cxx1112regex_traitsIcE10_RegexMaskEEE8max_sizeERKS4_
FN:550,_ZNSt16allocator_traitsISaIN5Catch3PtrINS0_8TestSpec7PatternEEEEE8max_sizeERKS5_
FN:550,_ZNSt16allocator_traitsISaIN5Catch8TestSpec6FilterEEE8max_sizeERKS3_
FN:550,_ZNSt16allocator_traitsISaISt4pairIlSt6vectorINSt7__cxx119sub_matchIN9__gnu_cxx17__normal_iteratorIPKcNS2_12basic_stringIcSt11char_traitsIcESaIcEEEEEEESaISE_EEEEE8max_sizeERKSI_
FN:550,_ZNSt16allocator_traitsISaIN5Catch3PtrINS0_22CumulativeReporterBase4NodeINS0_13TestCaseStatsENS2_11SectionNodeEEEEEEE8max_sizeERKS8_
FN:550,_ZNSt16allocator_traitsISaINSt7__cxx1112basic_stringIcSt11char_traitsIcESaIcEEEEE8max_sizeERKS6_
FN:550,_ZNSt16allocator_traitsISaIN5Catch11MessageInfoEEE8max_sizeERKS2_
FN:550,_ZNSt16allocator_traitsISaIN5Catch14AssertionStatsEEE8max_sizeERKS2_
FN:559,_ZNSt16allocator_traitsISaIN5Catch5Clara6Parser5TokenEEE37select_on_container_copy_constructionERKS4_
FN:559,_ZNSt16allocator_traitsISaIN5Catch8TestCaseEEE37select_on_container_copy_constructionERKS2_
FN:559,_ZNSt16allocator_traitsISaINSt7__cxx1112basic_stringIcSt11char_traitsIcESaIcEEEEE37select_on_container_copy_constructionERKS6_
FN:559,_ZNSt16allocator_traitsISaIP4UserEE37select_on_container_copy_constructionERKS2_
FN:559,_ZNSt16allocator_traitsISaINSt7__cxx1112regex_traitsIcE10_RegexMaskEEE37select_on_container_copy_constructionERKS4_
FN:559,_ZNSt16allocator_traitsISaINSt7__cxx119sub_matchIN9__gnu_cxx17__normal_iteratorIPKcNS0_12basic_stringIcSt11char_traitsIcESaIcEEEEEEEEE37select_on_container_copy_constructionERKSD_
FN:559,_ZNSt16allocator_traitsISaIcEE37select_on_container_copy_constructionERKS0_
FN:559,_ZNSt16allocator_traitsISaISt4pairIccEEE37select_on_container_copy_constructionERKS2_
FN:559,_ZNSt16allocator_traitsISaIN5Catch11MessageInfoEEE37select_on_container_copy_constructionERKS2_
FN:559,_ZNSt16allocator_traitsISaIN5Catch8TestSpec6FilterEEE37select_on_container_copy_constructionERKS3_
FN:559,_ZNSt16allocator_traitsISaISt4pairINSt7__cxx1112basic_stringIcSt11char_traitsIcESaIcEEES6_EEE37select_on_container_copy_constructionERKS8_
FN:559,_ZNSt16allocator_traitsISaIN5Catch3PtrINS0_8TestSpec7PatternEEEEE37select_on_container_copy_constructionERKS5_
FN:559,_ZNSt16allocator_traitsISaI3JobEE37select_on_container_copy_constructionERKS1_
FN:559,_ZNSt16allocator_traitsISaIN5Catch3PtrINS0_16IReporterFactoryEEEEE37select_on_container_copy_constructionERKS4_
FN:559,_ZNSt16allocator_traitsISaISt13_Rb_tree_nodeINSt7__cxx1112basic_stringIcSt11char_traitsIcESaIcEEEEEE37select_on_container_copy_constructionERKS8_
FN:571,_ZSt18__do_alloc_on_copyISaISt13_Rb_tree_nodeINSt7__cxx1112basic_stringIcSt11char_traitsIcESaIcEEEEEEvRT_RKS9_St17integral_constantIbLb0EE
FN:571,_ZSt18__do_alloc_on_copyISaINSt7__cxx119sub_matchIN9__gnu_cxx17__normal_iteratorIPKcNS0_12basic_stringIcSt11char_traitsIcESaIcEEEEEEEEEvRT_RKSE_St17integral_constantIbLb0EE
FN:575,_ZSt15__alloc_on_copyISaISt13_Rb_tree_nodeINSt7__cxx1112basic_stringIcSt11char_traitsIcESaIcEEEEEEvRT_RKS9_
FN:575,_ZSt15__alloc_on_copyISaINSt7__cxx119sub_matchIN9__gnu_cxx17__normal_iteratorIPKcNS0_12basic_stringIcSt11char_traitsIcESaIcEEEEEEEEEvRT_RKSE_
FN:590,_ZSt18__do_alloc_on_moveISaIN5Catch8TestSpec6FilterEEEvRT_S5_St17integral_constantIbLb1EE
FN:590,_ZSt18__do_alloc_on_moveISaIN5Catch3PtrINS0_8TestSpec7PatternEEEEEvRT_S7_St17integral_constantIbLb1EE
FN:590,_ZSt18__do_alloc_on_moveISaINSt7__cxx119sub_matchIN9__gnu_cxx17__normal_iteratorIPKcNS0_12basic_stringIcSt11char_traitsIcESaIcEEEEEEEEEvRT_SF_St17integral_constantIbLb1EE
FN:590,_ZSt18__do_alloc_on_moveISaIN5Catch8TestCaseEEEvRT_S4_St17integral_constantIbLb1EE
FN:590,_ZSt18__do_alloc_on_moveISaIN5Catch5Clara6Parser5TokenEEEvRT_S6_St17integral_constantIbLb1EE
FN:598,_ZSt15__alloc_on_moveISaIN5Catch8TestSpec6FilterEEEvRT_S5_
FN:598,_ZSt15__alloc_on_moveISaIN5Catch3PtrINS0_8TestSpec7PatternEEEEEvRT_S7_
FN:598,_ZSt15__alloc_on_moveISaINSt7__cxx119sub_matchIN9__gnu_cxx17__normal_iteratorIPKcNS0_12basic_stringIcSt11char_traitsIcESaIcEEEEEEEEEvRT_SF_
FN:598,_ZSt15__alloc_on_moveISaIN5Catch5Clara6Parser5TokenEEEvRT_S6_
FN:598,_ZSt15__alloc_on_moveISaIN5Catch8TestCaseEEEvRT_S4_
FN:613,_ZSt18__do_alloc_on_swapISaISt13_Rb_tree_nodeINSt7__cxx1112basic_stringIcSt11char_traitsIcESaIcEEEEEEvRT_SA_St17integral_constantIbLb0EE
FN:613,_ZSt18__do_alloc_on_swapISaIN5Catch3PtrINS0_22CumulativeReporterBase4NodeINS0_13TestCaseStatsENS2_11SectionNodeEEEEEEEvRT_SA_St17integral_constantIbLb0EE
FN:613,_ZSt18__do_alloc_on_swapISaIN5Catch3PtrINS0_22CumulativeReporterBase4NodeINS0_14TestGroupStatsENS3_INS0_13TestCaseStatsENS2_11SectionNodeEEEEEEEEEvRT_SC_St17integral_constantIbLb0EE
FN:617,_ZSt15__alloc_on_swapISaIN5Catch3PtrINS0_22CumulativeReporterBase4NodeINS0_14TestGroupStatsENS3_INS0_13TestCaseStatsENS2_11SectionNodeEEEEEEEEEvRT_SC_
FN:617,_ZSt15__alloc_on_swapISaISt13_Rb_tree_nodeINSt7__cxx1112basic_stringIcSt11char_traitsIcESaIcEEEEEEvRT_SA_
FN:617,_ZSt15__alloc_on_swapISaIN5Catch3PtrINS0_22CumulativeReporterBase4NodeINS0_13TestCaseStatsENS2_11SectionNodeEEEEEEEvRT_SA_
FNDA:0,_ZNSt16allocator_traitsISaISt4pairINSt7__cxx1112basic_stringIcSt11char_traitsIcESaIcEEES6_EEE8allocateERS8_m
FNDA:224,_ZNSt16allocator_traitsISaISt4pairIccEEE8allocateERS2_m
FNDA:24194,_ZNSt16allocator_traitsISaIcEE8allocateERS0_m
FNDA:0,_ZNSt16allocator_traitsISaISt13_Rb_tree_nodeISt4pairIKllEEEE8allocateERS5_m
FNDA:0,_ZNSt16allocator_traitsISaINSt7__cxx1112regex_traitsIcE10_RegexMaskEEE8allocateERS4_m
FNDA:0,_ZNSt16allocator_traitsISaIlEE8allocateERS0_m
FNDA:0,_ZNSt16allocator_traitsISaIPlEE8allocateERS1_m
FNDA:0,_ZNSt16allocator_traitsISaISt4pairIlSt6vectorINSt7__cxx119sub_matchIN9__gnu_cxx17__normal_iteratorIPKcNS2_12basic_stringIcSt11char_traitsIcESaIcEEEEEEESaISE_EEEEE8allocateERSI_m
FNDA:22,_ZNSt16allocator_traitsISaINSt8__detail6_StateINSt7__cxx1112regex_traitsIcEEEEEE8allocateERS6_m
FNDA:2,_ZNSt16allocator_traitsISaISt23_Sp_counted_ptr_inplaceINSt8__detail4_NFAINSt7__cxx1112regex_traitsIcEEEESaIS6_ELN9__gnu_cxx12_Lock_policyE2EEEE8allocateERSB_m
FNDA:4,_ZNSt16allocator_traitsISaINSt8__detail9_StateSeqINSt7__cxx1112regex_traitsIcEEEEEE8allocateERS6_m
FNDA:501,_ZNSt16allocator_traitsISaISt4pairIN9__gnu_cxx17__normal_iteratorIPKcNSt7__cxx1112basic_stringIcSt11char_traitsIcESaIcEEEEEiEEE8allocateERSD_m
FNDA:4,_ZNSt16allocator_traitsISaIPNSt8__detail9_StateSeqINSt7__cxx1112regex_traitsIcEEEEEE8allocateERS7_m
FNDA:1002,_ZNSt16allocator_traitsISaINSt7__cxx119sub_matchIN9__gnu_cxx17__normal_iteratorIPKcNS0_12basic_stringIcSt11char_traitsIcESaIcEEEEEEEEE8allocateERSD_m
FNDA:0,_ZNSt16allocator_traitsISaISt13_Rb_tree_nodeISt4pairIKNSt7__cxx1112basic_stringIcSt11char_traitsIcESaIcEEEN5Catch8TagAliasEEEEE8allocateERSD_m
FNDA:0,_ZNSt16allocator_traitsISaISt13_Rb_tree_nodeISt4pairIKNSt7__cxx1112basic_stringIcSt11char_traitsIcESaIcEEEPN5Catch14IGeneratorInfoEEEEE8allocateERSE_m
FNDA:0,_ZNSt16allocator_traitsISaISt13_Rb_tree_nodeISt4pairIKNSt7__cxx1112basic_stringIcSt11char_traitsIcESaIcEEEPN5Catch18IGeneratorsForTestEEEEE8allocateERSE_m
FNDA:4,_ZNSt16allocator_traitsISaISt13_Rb_tree_nodeISt4pairIKNSt7__cxx1112basic_stringIcSt11char_traitsIcESaIcEEEN5Catch3PtrINS9_16IReporterFactoryEEEEEEE8allocateERSF_m
FNDA:6,_ZNSt16allocator_traitsISaISt13_Rb_tree_nodeIN5Catch8TestCaseEEEE8allocateERS4_m
FNDA:0,_ZNSt16allocator_traitsISaISt13_Rb_tree_nodeISt4pairIKNSt7__cxx1112basic_stringIcSt11char_traitsIcESaIcEEEN5Catch7TagInfoEEEEE8allocateERSD_m
FNDA:116,_ZNSt16allocator_traitsISaISt13_Rb_tree_nodeINSt7__cxx1112basic_stringIcSt11char_traitsIcESaIcEEEEEE8allocateERS8_m
FNDA:6,_ZNSt16allocator_traitsISaIN5Catch5Clara11CommandLineINS0_10ConfigDataEE3ArgEEE8allocateERS6_m
FNDA:0,_ZNSt16allocator_traitsISaIN5Catch15ConsoleReporter13SummaryColumnEEE8allocateERS3_m
FNDA:0,_ZNSt16allocator_traitsISaIPN5Catch16TestCaseTracking8ITrackerEEE8allocateERS4_m
FNDA:0,_ZNSt16allocator_traitsISaIN5Catch5Clara6Parser5TokenEEE8allocateERS4_m
FNDA:3,_ZNSt16allocator_traitsISaIN5Catch3PtrINS0_8TestSpec7PatternEEEEE8allocateERS5_m
FNDA:5003,_ZNSt16allocator_traitsISaI3JobEE8allocateERS1_m
FNDA:5003,_ZNSt16allocator_traitsISaIP4UserEE8allocateERS2_m
FNDA:0,_ZNSt16allocator_traitsISaIN5Catch3PtrINS0_22CumulativeReporterBase4NodeINS0_12TestRunStatsENS3_INS0_14TestGroupStatsENS3_INS0_13TestCaseStatsENS2_11SectionNodeEEEEEEEEEEE8allocateERSC_m
FNDA:0,_ZNSt16allocator_traitsISaIN5Catch3PtrINS0_22CumulativeReporterBase4NodeINS0_14TestGroupStatsENS3_INS0_13TestCaseStatsENS2_11SectionNodeEEEEEEEEE8allocateERSA_m
FNDA:0,_ZNSt16allocator_traitsISaIN5Catch3PtrINS0_22CumulativeReporterBase4NodeINS0_13TestCaseStatsENS2_11SectionNodeEEEEEEE8allocateERS8_m
FNDA:0,_ZNSt16allocator_traitsISaIN5Catch14AssertionStatsEEE8allocateERS2_m
FNDA:0,_ZNSt16allocator_traitsISaIN5Catch3PtrINS0_22CumulativeReporterBase11SectionNodeEEEEE8allocateERS5_m
FNDA:1,_ZNSt16allocator_traitsISaIN5Catch11SectionInfoEEE8allocateERS2_m
FNDA:0,_ZNSt16allocator_traitsISaIN5Catch3PtrINS0_18IStreamingReporterEEEEE8allocateERS4_m
FNDA:0,_ZNSt16allocator_traitsISaIPN5Catch14IGeneratorInfoEEE8allocateERS3_m
FNDA:0,_ZNSt16allocator_traitsISaIPKN5Catch20IExceptionTranslatorEEE8allocateERS4_m
FNDA:0,_ZNSt16allocator_traitsISaIN5Catch3PtrINS0_16IReporterFactoryEEEEE8allocateERS4_m
FNDA:5,_ZNSt16allocator_traitsISaIN5Catch8TestCaseEEE8allocateERS2_m
FNDA:0,_ZNSt16allocator_traitsISaIN5Catch14SectionEndInfoEEE8allocateERS2_m
FNDA:6,_ZNSt16allocator_traitsISaIN5Catch3PtrINS0_16TestCaseTracking8ITrackerEEEEE8allocateERS5_m
FNDA:0,_ZNSt16allocator_traitsISaIN5Catch11MessageInfoEEE8allocateERS2_m
FNDA:51,_ZNSt16allocator_traitsISaINSt7__cxx1112basic_stringIcSt11char_traitsIcESaIcEEEEE8allocateERS6_m
FNDA:2,_ZNSt16allocator_traitsISaIN5Catch8TestSpec6FilterEEE8allocateERS3_m
FNDA:6,_ZNSt16allocator_traitsISaImEE8allocateERS0_m
FNDA:0,_ZNSt16allocator_traitsISaISt13_Rb_tree_nodeISt4pairIKllEEEE10deallocateERS5_PS4_m
FNDA:0,_ZNSt16allocator_traitsISaIlEE10deallocateERS0_Plm
FNDA:0,_ZNSt16allocator_traitsISaISt4pairINSt7__cxx1112basic_stringIcSt11char_traitsIcESaIcEEES6_EEE10deallocateERS8_PS7_m
FNDA:0,_ZNSt16allocator_traitsISaINSt7__cxx1112regex_traitsIcE10_RegexMaskEEE10deallocateERS4_PS3_m
FNDA:224,_ZNSt16allocator_traitsISaISt4pairIccEEE10deallocateERS2_PS1_m
FNDA:0,_ZNSt16allocator_traitsISaIPlEE10deallocateERS1_PS0_m
FNDA:22,_ZNSt16allocator_traitsISaINSt8__detail6_StateINSt7__cxx1112regex_traitsIcEEEEEE10deallocateERS6_PS5_m
FNDA:2,_ZNSt16allocator_traitsISaISt23_Sp_counted_ptr_inplaceINSt8__detail4_NFAINSt7__cxx1112regex_traitsIcEEEESaIS6_ELN9__gnu_cxx12_Lock_policyE2EEEE10deallocateERSB_PSA_m
FNDA:4,_ZNSt16allocator_traitsISaINSt8__detail9_StateSeqINSt7__cxx1112regex_traitsIcEEEEEE10deallocateERS6_PS5_m
FNDA:0,_ZNSt16allocator_traitsISaISt4pairIlSt6vectorINSt7__cxx119sub_matchIN9__gnu_cxx17__normal_iteratorIPKcNS2_12basic_stringIcSt11char_traitsIcESaIcEEEEEEESaISE_EEEEE10deallocateERSI_PSH_m
FNDA:501,_ZNSt16allocator_traitsISaISt4pairIN9__gnu_cxx17__normal_iteratorIPKcNSt7__cxx1112basic_stringIcSt11char_traitsIcESaIcEEEEEiEEE10deallocateERSD_PSC_m
FNDA:4,_ZNSt16allocator_traitsISaIPNSt8__detail9_StateSeqINSt7__cxx1112regex_traitsIcEEEEEE10deallocateERS7_PS6_m
FNDA:1002,_ZNSt16allocator_traitsISaINSt7__cxx119sub_matchIN9__gnu_cxx17__normal_iteratorIPKcNS0_12basic_stringIcSt11char_traitsIcESaIcEEEEEEEEE10deallocateERSD_PSC_m
FNDA:0,_ZNSt16allocator_traitsISaISt13_Rb_tree_nodeISt4pairIKNSt7__cxx1112basic_stringIcSt11char_traitsIcESaIcEEEPN5Catch14IGeneratorInfoEEEEE10deallocateERSE_PSD_m
FNDA:0,_ZNSt16allocator_traitsISaISt13_Rb_tree_nodeISt4pairIKNSt7__cxx1112basic_stringIcSt11char_traitsIcESaIcEEEPN5Catch18IGeneratorsForTestEEEEE10deallocateERSE_PSD_m
FNDA:0,_ZNSt16allocator_traitsISaISt13_Rb_tree_nodeISt4pairIKNSt7__cxx1112basic_stringIcSt11char_traitsIcESaIcEEEN5Catch8TagAliasEEEEE10deallocateERSD_PSC_m
FNDA:4,_ZNSt16allocator_traitsISaISt13_Rb_tree_nodeISt4pairIKNSt7__cxx1112basic_stringIcSt11char_traitsIcESaIcEEEN5Catch3PtrINS9_16IReporterFactoryEEEEEEE10deallocateERSF_PSE_m
FNDA:6,_ZNSt16allocator_traitsISaISt13_Rb_tree_nodeIN5Catch8TestCaseEEEE10deallocateERS4_PS3_m
FNDA:0,_ZNSt16allocator_traitsISaISt13_Rb_tree_nodeISt4pairIKNSt7__cxx1112basic_stringIcSt11char_traitsIcESaIcEEEN5Catch7TagInfoEEEEE10deallocateERSD_PSC_m
FNDA:116,_ZNSt16allocator_traitsISaISt13_Rb_tree_nodeINSt7__cxx1112basic_stringIcSt11char_traitsIcESaIcEEEEEE10deallocateERS8_PS7_m
FNDA:0,_ZNSt16allocator_traitsISaISt13_Rb_tree_nodeISt4pairIKiN5Catch5Clara11CommandLineINS3_10ConfigDataEE3ArgEEEEE10deallocateERSB_PSA_m
FNDA:4502,_ZNSt16allocator_traitsISaI3JobEE10deallocateERS1_PS0_m
FNDA:4502,_ZNSt16allocator_traitsISaIP4UserEE10deallocateERS2_PS1_m
FNDA:0,_ZNSt16allocator_traitsISaIN5Catch15ConsoleReporter13SummaryColumnEEE10deallocateERS3_PS2_m
FNDA:0,_ZNSt16allocator_traitsISaIN5Catch3PtrINS0_22CumulativeReporterBase4NodeINS0_12TestRunStatsENS3_INS0_14TestGroupStatsENS3_INS0_13TestCaseStatsENS2_11SectionNodeEEEEEEEEEEE10deallocateERSC_PSB_m
FNDA:0,_ZNSt16allocator_traitsISaIN5Catch3PtrINS0_22CumulativeReporterBase4NodeINS0_14TestGroupStatsENS3_INS0_13TestCaseStatsENS2_11SectionNodeEEEEEEEEE10deallocateERSA_PS9_m
FNDA:0,_ZNSt16allocator_traitsISaIN5Catch3PtrINS0_22CumulativeReporterBase4NodeINS0_13TestCaseStatsENS2_11SectionNodeEEEEEEE10deallocateERS8_PS7_m
FNDA:0,_ZNSt16allocator_traitsISaISt6vectorIN5Catch3PtrINS1_22CumulativeReporterBase11SectionNodeEEESaIS5_EEEE10deallocateERS8_PS7_m
FNDA:0,_ZNSt16allocator_traitsISaIN5Catch14AssertionStatsEEE10deallocateERS2_PS1_m
FNDA:0,_ZNSt16allocator_traitsISaIN5Catch3PtrINS0_22CumulativeReporterBase11SectionNodeEEEEE10deallocateERS5_PS4_m
FNDA:1,_ZNSt16allocator_traitsISaIN5Catch11SectionInfoEEE10deallocateERS2_PS1_m
FNDA:0,_ZNSt16allocator_traitsISaIN5Catch3PtrINS0_18IStreamingReporterEEEEE10deallocateERS4_PS3_m
FNDA:0,_ZNSt16allocator_traitsISaIPKN5Catch8Matchers4Impl11MatcherBaseINSt7__cxx1112basic_stringIcSt11char_traitsIcESaIcEEES9_EEEE10deallocateERSD_PSC_m
FNDA:0,_ZNSt16allocator_traitsISaIPN5Catch14IGeneratorInfoEEE10deallocateERS3_PS2_m
FNDA:0,_ZNSt16allocator_traitsISaIPKN5Catch20IExceptionTranslatorEEE10deallocateERS4_PS3_m
FNDA:0,_ZNSt16allocator_traitsISaIN5Catch5Clara6Parser5TokenEEE10deallocateERS4_PS3_m
FNDA:0,_ZNSt16allocator_traitsISaIN5Catch3PtrINS0_16IReporterFactoryEEEEE10deallocateERS4_PS3_m
FNDA:0,_ZNSt16allocator_traitsISaIPN5Catch16TestCaseTracking8ITrackerEEE10deallocateERS4_PS3_m
FNDA:0,_ZNSt16allocator_traitsISaIN5Catch14SectionEndInfoEEE10deallocateERS2_PS1_m
FNDA:6,_ZNSt16allocator_traitsISaIN5Catch3PtrINS0_16TestCaseTracking8ITrackerEEEEE10deallocateERS5_PS4_m
FNDA:0,_ZNSt16allocator_traitsISaIN5Catch11MessageInfoEEE10deallocateERS2_PS1_m
FNDA:6,_ZNSt16allocator_traitsISaIN5Catch5Clara11CommandLineINS0_10ConfigDataEE3ArgEEE10deallocateERS6_PS5_m
FNDA:2,_ZNSt16allocator_traitsISaIN5Catch8TestSpec6FilterEEE10deallocateERS3_PS2_m
FNDA:3,_ZNSt16allocator_traitsISaIN5Catch3PtrINS0_8TestSpec7PatternEEEEE10deallocateERS5_PS4_m
FNDA:6,_ZNSt16allocator_traitsISaImEE10deallocateERS0_Pmm
FNDA:24194,_ZNSt16allocator_traitsISaIcEE10deallocateERS0_Pcm
FNDA:5,_ZNSt16allocator_traitsISaIN5Catch8TestCaseEEE10deallocateERS2_PS1_m
FNDA:51,_ZNSt16allocator_traitsISaINSt7__cxx1112basic_stringIcSt11char_traitsIcESaIcEEEEE10deallocateERS6_PS5_m
FNDA:0,_ZNSt16allocator_traitsISaISt4pairINSt7__cxx1112basic_stringIcSt11char_traitsIcESaIcEEES6_EEE9constructIS7_JS7_EEEvRS8_PT_DpOT0_
FNDA:94,_ZNSt16allocator_traitsISaISt4pairIccEEE9constructIS1_JS1_EEEvRS2_PT_DpOT0_
FNDA:0,_ZNSt16allocator_traitsISaISt13_Rb_tree_nodeISt4pairIKllEEEE9constructIS3_JRKSt21piecewise_construct_tSt5tupleIJRS2_EESB_IJEEEEEvRS5_PT_DpOT0_
FNDA:94,_ZNSt16allocator_traitsISaIcEE9constructIcJcEEEvRS0_PT_DpOT0_
FNDA:0,_ZNSt16allocator_traitsISaINSt7__cxx1112regex_traitsIcE10_RegexMaskEEE9constructIS3_JRKS3_EEEvRS4_PT_DpOT0_
FNDA:0,_ZNSt16allocator_traitsISaIlEE9constructIlJRKlEEEvRS0_PT_DpOT0_
FNDA:2,_ZNSt16allocator_traitsISaINSt8__detail4_NFAINSt7__cxx1112regex_traitsIcEEEEEE9constructIS5_JRKSt6localeRNSt15regex_constants18syntax_option_typeEEEEvRS6_PT_DpOT0_
FNDA:0,_ZNSt16allocator_traitsISaISt4pairIlSt6vectorINSt7__cxx119sub_matchIN9__gnu_cxx17__normal_iteratorIPKcNS2_12basic_stringIcSt11char_traitsIcESaIcEEEEEEESaISE_EEEEE9constructISH_JRlRKSG_EEEvRSI_PT_DpOT0_
FNDA:968,_ZNSt16allocator_traitsISaINSt8__detail9_StateSeqINSt7__cxx1112regex_traitsIcEEEEEE9constructIS5_JS5_EEEvRS6_PT_DpOT0_
FNDA:1118,_ZNSt16allocator_traitsISaINSt8__detail9_StateSeqINSt7__cxx1112regex_traitsIcEEEEEE9constructIS5_JRKS5_EEEvRS6_PT_DpOT0_
FNDA:1300,_ZNSt16allocator_traitsISaINSt8__detail6_StateINSt7__cxx1112regex_traitsIcEEEEEE9constructIS5_JS5_EEEvRS6_PT_DpOT0_
FNDA:0,_ZNSt16allocator_traitsISaISt13_Rb_tree_nodeISt4pairIKNSt7__cxx1112basic_stringIcSt11char_traitsIcESaIcEEEN5Catch8TagAliasEEEEE9constructISB_JS1_IS7_SA_EEEEvRSD_PT_DpOT0_
FNDA:0,_ZNSt16allocator_traitsISaISt13_Rb_tree_nodeISt4pairIKNSt7__cxx1112basic_stringIcSt11char_traitsIcESaIcEEEPN5Catch14IGeneratorInfoEEEEE9constructISC_JS1_IS7_SB_EEEEvRSE_PT_DpOT0_
FNDA:0,_ZNSt16allocator_traitsISaISt13_Rb_tree_nodeISt4pairIKNSt7__cxx1112basic_stringIcSt11char_traitsIcESaIcEEEPN5Catch18IGeneratorsForTestEEEEE9constructISC_JS1_IS7_SB_EEEEvRSE_PT_DpOT0_
FNDA:4,_ZNSt16allocator_traitsISaISt13_Rb_tree_nodeISt4pairIKNSt7__cxx1112basic_stringIcSt11char_traitsIcESaIcEEEN5Catch3PtrINS9_16IReporterFactoryEEEEEEE9constructISD_JS1_IS7_SC_EEEEvRSF_PT_DpOT0_
FNDA:6,_ZNSt16allocator_traitsISaISt13_Rb_tree_nodeIN5Catch8TestCaseEEEE9constructIS2_JRKS2_EEEvRS4_PT_DpOT0_
FNDA:0,_ZNSt16allocator_traitsISaISt13_Rb_tree_nodeINSt7__cxx1112basic_stringIcSt11char_traitsIcESaIcEEEEEE9constructIS6_JS6_EEEvRS8_PT_DpOT0_
FNDA:0,_ZNSt16allocator_traitsISaISt13_Rb_tree_nodeISt4pairIKNSt7__cxx1112basic_stringIcSt11char_traitsIcESaIcEEEN5Catch7TagInfoEEEEE9constructISB_JS1_IS7_SA_EEEEvRSD_PT_DpOT0_
FNDA:116,_ZNSt16allocator_traitsISaISt13_Rb_tree_nodeINSt7__cxx1112basic_stringIcSt11char_traitsIcESaIcEEEEEE9constructIS6_JRKS6_EEEvRS8_PT_DpOT0_
FNDA:0,_ZNSt16allocator_traitsISaIN5Catch5Clara6Parser5TokenEEE9constructIS3_JRKS3_EEEvRS4_PT_DpOT0_
FNDA:27,_ZNSt16allocator_traitsISaIN5Catch5Clara11CommandLineINS0_10ConfigDataEE3ArgEEE9constructIS5_JS5_EEEvRS6_PT_DpOT0_
FNDA:0,_ZNSt16allocator_traitsISaIN5Catch15ConsoleReporter13SummaryColumnEEE9constructIS2_JS2_EEEvRS3_PT_DpOT0_
FNDA:0,_ZNSt16allocator_traitsISaIPN5Catch16TestCaseTracking8ITrackerEEE9constructIS3_JS3_EEEvRS4_PT_DpOT0_
FNDA:0,_ZNSt16allocator_traitsISaIN5Catch5Clara6Parser5TokenEEE9constructIS3_JS3_EEEvRS4_PT_DpOT0_
FNDA:19,_ZNSt16allocator_traitsISaINSt7__cxx1112basic_stringIcSt11char_traitsIcESaIcEEEEE9constructIS5_JS5_EEEvRS6_PT_DpOT0_
FNDA:1,_ZNSt16allocator_traitsISaIN5Catch3PtrINS0_8TestSpec7PatternEEEEE9constructIS4_JRKS4_EEEvRS5_PT_DpOT0_
FNDA:0,_ZNSt16allocator_traitsISaIN5Catch3PtrINS0_22CumulativeReporterBase4NodeINS0_12TestRunStatsENS3_INS0_14TestGroupStatsENS3_INS0_13TestCaseStatsENS2_11SectionNodeEEEEEEEEEEE9constructISB_JRKSB_EEEvRSC_PT_DpOT0_
FNDA:0,_ZNSt16allocator_traitsISaIN5Catch3PtrINS0_22CumulativeReporterBase4NodeINS0_14TestGroupStatsENS3_INS0_13TestCaseStatsENS2_11SectionNodeEEEEEEEEE9constructIS9_JRKS9_EEEvRSA_PT_DpOT0_
FNDA:0,_ZNSt16allocator_traitsISaIN5Catch3PtrINS0_22CumulativeReporterBase4NodeINS0_13TestCaseStatsENS2_11SectionNodeEEEEEEE9constructIS7_JRKS7_EEEvRS8_PT_DpOT0_
FNDA:0,_ZNSt16allocator_traitsISaIN5Catch14AssertionStatsEEE9constructIS1_JRKS1_EEEvRS2_PT_DpOT0_
FNDA:0,_ZNSt16allocator_traitsISaIN5Catch3PtrINS0_22CumulativeReporterBase11SectionNodeEEEEE9constructIS4_JRKS4_EEEvRS5_PT_DpOT0_
FNDA:6,_ZNSt16allocator_traitsISaIN5Catch11SectionInfoEEE9constructIS1_JRKS1_EEEvRS2_PT_DpOT0_
FNDA:0,_ZNSt16allocator_traitsISaIN5Catch3PtrINS0_18IStreamingReporterEEEEE9constructIS3_JRKS3_EEEvRS4_PT_DpOT0_
FNDA:0,_ZNSt16allocator_traitsISaIPN5Catch14IGeneratorInfoEEE9constructIS2_JRKS2_EEEvRS3_PT_DpOT0_
FNDA:0,_ZNSt16allocator_traitsISaIPKN5Catch20IExceptionTranslatorEEE9constructIS3_JRKS3_EEEvRS4_PT_DpOT0_
FNDA:0,_ZNSt16allocator_traitsISaIN5Catch3PtrINS0_16IReporterFactoryEEEEE9constructIS3_JRKS3_EEEvRS4_PT_DpOT0_
FNDA:6,_ZNSt16allocator_traitsISaIN5Catch8TestCaseEEE9constructIS1_JRKS1_EEEvRS2_PT_DpOT0_
FNDA:0,_ZNSt16allocator_traitsISaIN5Catch14SectionEndInfoEEE9constructIS1_JRKS1_EEEvRS2_PT_DpOT0_
FNDA:6,_ZNSt16allocator_traitsISaIN5Catch3PtrINS0_16TestCaseTracking8ITrackerEEEEE9constructIS4_JRKS4_EEEvRS5_PT_DpOT0_
FNDA:0,_ZNSt16allocator_traitsISaIN5Catch11MessageInfoEEE9constructIS1_JRKS1_EEEvRS2_PT_DpOT0_
FNDA:0,_ZNSt16allocator_traitsISaINSt7__cxx1112basic_stringIcSt11char_traitsIcESaIcEEEEE9constructIS5_JRKS5_EEEvRS6_PT_DpOT0_
FNDA:1,_ZNSt16allocator_traitsISaIN5Catch8TestSpec6FilterEEE9constructIS2_JRKS2_EEEvRS3_PT_DpOT0_
FNDA:10,_ZNSt16allocator_traitsISaImEE9constructImJRKmEEEvRS0_PT_DpOT0_
FNDA:2,_ZNSt16allocator_traitsISaINSt8__detail4_NFAINSt7__cxx1112regex_traitsIcEEEEEE7destroyIS5_EEvRS6_PT_
FNDA:0,_ZNSt16allocator_traitsISaISt4pairINSt7__cxx1112basic_stringIcSt11char_traitsIcESaIcEEES6_EEE7destroyIS7_EEvRS8_PT_
FNDA:0,_ZNSt16allocator_traitsISaISt4pairIccEEE7destroyIS1_EEvRS2_PT_
FNDA:0,_ZNSt16allocator_traitsISaIcEE7destroyIcEEvRS0_PT_
FNDA:0,_ZNSt16allocator_traitsISaISt13_Rb_tree_nodeISt4pairIKllEEEE7destroyIS3_EEvRS5_PT_
FNDA:0,_ZNSt16allocator_traitsISaINSt7__cxx1112regex_traitsIcE10_RegexMaskEEE7destroyIS3_EEvRS4_PT_
FNDA:0,_ZNSt16allocator_traitsISaIlEE7destroyIlEEvRS0_PT_
FNDA:0,_ZNSt16allocator_traitsISaISt4pairIlSt6vectorINSt7__cxx119sub_matchIN9__gnu_cxx17__normal_iteratorIPKcNS2_12basic_stringIcSt11char_traitsIcESaIcEEEEEEESaISE_EEEEE7destroyISH_EEvRSI_PT_
FNDA:0,_ZNSt16allocator_traitsISaINSt8__detail6_StateINSt7__cxx1112regex_traitsIcEEEEEE7destroyIS5_EEvRS6_PT_
FNDA:2086,_ZNSt16allocator_traitsISaINSt8__detail9_StateSeqINSt7__cxx1112regex_traitsIcEEEEEE7destroyIS5_EEvRS6_PT_
FNDA:0,_ZNSt16allocator_traitsISaISt13_Rb_tree_nodeISt4pairIKNSt7__cxx1112basic_stringIcSt11char_traitsIcESaIcEEEPN5Catch14IGeneratorInfoEEEEE7destroyISC_EEvRSE_PT_
FNDA:0,_ZNSt16allocator_traitsISaISt13_Rb_tree_nodeISt4pairIKNSt7__cxx1112basic_stringIcSt11char_traitsIcESaIcEEEPN5Catch18IGeneratorsForTestEEEEE7destroyISC_EEvRSE_PT_
FNDA:0,_ZNSt16allocator_traitsISaISt13_Rb_tree_nodeISt4pairIKNSt7__cxx1112basic_stringIcSt11char_traitsIcESaIcEEEN5Catch8TagAliasEEEEE7destroyISB_EEvRSD_PT_
FNDA:4,_ZNSt16allocator_traitsISaISt13_Rb_tree_nodeISt4pairIKNSt7__cxx1112basic_stringIcSt11char_traitsIcESaIcEEEN5Catch3PtrINS9_16IReporterFactoryEEEEEEE7destroyISD_EEvRSF_PT_
FNDA:6,_ZNSt16allocator_traitsISaISt13_Rb_tree_nodeIN5Catch8TestCaseEEEE7destroyIS2_EEvRS4_PT_
FNDA:0,_ZNSt16allocator_traitsISaISt13_Rb_tree_nodeISt4pairIKNSt7__cxx1112basic_stringIcSt11char_traitsIcESaIcEEEN5Catch7TagInfoEEEEE7destroyISB_EEvRSD_PT_
FNDA:116,_ZNSt16allocator_traitsISaISt13_Rb_tree_nodeINSt7__cxx1112basic_stringIcSt11char_traitsIcESaIcEEEEEE7destroyIS6_EEvRS8_PT_
FNDA:0,_ZNSt16allocator_traitsISaIN5Catch5Clara11CommandLineINS0_10ConfigDataEE3ArgEEE7destroyIS5_EEvRS6_PT_
FNDA:0,_ZNSt16allocator_traitsISaISt13_Rb_tree_nodeISt4pairIKiN5Catch5Clara11CommandLineINS3_10ConfigDataEE3ArgEEEEE7destroyIS9_EEvRSB_PT_
FNDA:0,_ZNSt16allocator_traitsISaIN5Catch15ConsoleReporter13SummaryColumnEEE7destroyIS2_EEvRS3_PT_
FNDA:0,_ZNSt16allocator_traitsISaIN5Catch5Clara6Parser5TokenEEE7destroyIS3_EEvRS4_PT_
FNDA:0,_ZNSt16allocator_traitsISaIN5Catch3PtrINS0_8TestSpec7PatternEEEEE7destroyIS4_EEvRS5_PT_
FNDA:0,_ZNSt16allocator_traitsISaIN5Catch3PtrINS0_22CumulativeReporterBase4NodeINS0_12TestRunStatsENS3_INS0_14TestGroupStatsENS3_INS0_13TestCaseStatsENS2_11SectionNodeEEEEEEEEEEE7destroyISB_EEvRSC_PT_
FNDA:0,_ZNSt16allocator_traitsISaIN5Catch3PtrINS0_22CumulativeReporterBase4NodeINS0_14TestGroupStatsENS3_INS0_13TestCaseStatsENS2_11SectionNodeEEEEEEEEE7destroyIS9_EEvRSA_PT_
FNDA:0,_ZNSt16allocator_traitsISaIN5Catch3PtrINS0_22CumulativeReporterBase4NodeINS0_13TestCaseStatsENS2_11SectionNodeEEEEEEE7destroyIS7_EEvRS8_PT_
FNDA:0,_ZNSt16allocator_traitsISaIN5Catch14AssertionStatsEEE7destroyIS1_EEvRS2_PT_
FNDA:0,_ZNSt16allocator_traitsISaIN5Catch3PtrINS0_18IStreamingReporterEEEEE7destroyIS3_EEvRS4_PT_
FNDA:0,_ZNSt16allocator_traitsISaIPN5Catch14IGeneratorInfoEEE7destroyIS2_EEvRS3_PT_
FNDA:0,_ZNSt16allocator_traitsISaIPKN5Catch20IExceptionTranslatorEEE7destroyIS3_EEvRS4_PT_
FNDA:0,_ZNSt16allocator_traitsISaIN5Catch3PtrINS0_16IReporterFactoryEEEEE7destroyIS3_EEvRS4_PT_
FNDA:0,_ZNSt16allocator_traitsISaIN5Catch8TestCaseEEE7destroyIS1_EEvRS2_PT_
FNDA:0,_ZNSt16allocator_traitsISaIN5Catch14SectionEndInfoEEE7destroyIS1_EEvRS2_PT_
FNDA:0,_ZNSt16allocator_traitsISaIN5Catch3PtrINS0_16TestCaseTracking8ITrackerEEEEE7destroyIS4_EEvRS5_PT_
FNDA:0,_ZNSt16allocator_traitsISaIN5Catch11MessageInfoEEE7destroyIS1_EEvRS2_PT_
FNDA:0,_ZNSt16allocator_traitsISaIN5Catch8TestSpec6FilterEEE7destroyIS2_EEvRS3_PT_
FNDA:10,_ZNSt16allocator_traitsISaImEE7destroyImEEvRS0_PT_
FNDA:0,_ZNSt16allocator_traitsISaINSt7__cxx1112basic_stringIcSt11char_traitsIcESaIcEEEEE7destroyIS5_EEvRS6_PT_
FNDA:0,_ZNSt16allocator_traitsISaIN5Catch3PtrINS0_22CumulativeReporterBase11SectionNodeEEEEE7destroyIS4_EEvRS5_PT_
FNDA:6,_ZNSt16allocator_traitsISaIN5Catch11SectionInfoEEE7destroyIS1_EEvRS2_PT_
FNDA:0,_ZNSt16allocator_traitsISaIPN5Catch16TestCaseTracking8ITrackerEEE7destroyIS3_EEvRS4_PT_
FNDA:0,_ZNSt16allocator_traitsISaISt4pairINSt7__cxx1112basic_stringIcSt11char_traitsIcESaIcEEES6_EEE8max_sizeERKS8_
FNDA:188,_ZNSt16allocator_traitsISaISt4pairIccEEE8max_sizeERKS2_
FNDA:0,_ZNSt16allocator_traitsISaINSt7__cxx1112regex_traitsIcE10_RegexMaskEEE8max_sizeERKS4_
FNDA:0,_ZNSt16allocator_traitsISaISt4pairIlSt6vectorINSt7__cxx119sub_matchIN9__gnu_cxx17__normal_iteratorIPKcNS2_12basic_stringIcSt11char_traitsIcESaIcEEEEEEESaISE_EEEEE8max_sizeERKSI_
FNDA:44,_ZNSt16allocator_traitsISaINSt8__detail6_StateINSt7__cxx1112regex_traitsIcEEEEEE8max_sizeERKS6_
FNDA:1002,_ZNSt16allocator_traitsISaINSt7__cxx119sub_matchIN9__gnu_cxx17__normal_iteratorIPKcNS0_12basic_stringIcSt11char_traitsIcESaIcEEEEEEEEE8max_sizeERKSD_
FNDA:12,_ZNSt16allocator_traitsISaIN5Catch5Clara11CommandLineINS0_10ConfigDataEE3ArgEEE8max_sizeERKS6_
FNDA:0,_ZNSt16allocator_traitsISaIN5Catch15ConsoleReporter13SummaryColumnEEE8max_sizeERKS3_
FNDA:0,_ZNSt16allocator_traitsISaIPN5Catch16TestCaseTracking8ITrackerEEE8max_sizeERKS4_
FNDA:0,_ZNSt16allocator_traitsISaIN5Catch5Clara6Parser5TokenEEE8max_sizeERKS4_
FNDA:2,_ZNSt16allocator_traitsISaIN5Catch3PtrINS0_8TestSpec7PatternEEEEE8max_sizeERKS5_
FNDA:0,_ZNSt16allocator_traitsISaIN5Catch3PtrINS0_22CumulativeReporterBase4NodeINS0_12TestRunStatsENS3_INS0_14TestGroupStatsENS3_INS0_13TestCaseStatsENS2_11SectionNodeEEEEEEEEEEE8max_sizeERKSC_
FNDA:0,_ZNSt16allocator_traitsISaIN5Catch3PtrINS0_22CumulativeReporterBase4NodeINS0_14TestGroupStatsENS3_INS0_13TestCaseStatsENS2_11SectionNodeEEEEEEEEE8max_sizeERKSA_
FNDA:0,_ZNSt16allocator_traitsISaIN5Catch3PtrINS0_22CumulativeReporterBase4NodeINS0_13TestCaseStatsENS2_11SectionNodeEEEEEEE8max_sizeERKS8_
FNDA:0,_ZNSt16allocator_traitsISaIN5Catch14AssertionStatsEEE8max_sizeERKS2_
FNDA:0,_ZNSt16allocator_traitsISaIN5Catch3PtrINS0_22CumulativeReporterBase11SectionNodeEEEEE8max_sizeERKS5_
FNDA:2,_ZNSt16allocator_traitsISaIN5Catch11SectionInfoEEE8max_sizeERKS2_
FNDA:0,_ZNSt16allocator_traitsISaIN5Catch3PtrINS0_18IStreamingReporterEEEEE8max_sizeERKS4_
FNDA:0,_ZNSt16allocator_traitsISaIPN5Catch14IGeneratorInfoEEE8max_sizeERKS3_
FNDA:0,_ZNSt16allocator_traitsISaIPKN5Catch20IExceptionTranslatorEEE8max_sizeERKS4_
FNDA:0,_ZNSt16allocator_traitsISaIN5Catch3PtrINS0_16IReporterFactoryEEEEE8max_sizeERKS4_
FNDA:0,_ZNSt16allocator_traitsISaIN5Catch14SectionEndInfoEEE8max_sizeERKS2_
FNDA:12,_ZNSt16allocator_traitsISaIN5Catch3PtrINS0_16TestCaseTracking8ITrackerEEEEE8max_sizeERKS5_
FNDA:0,_ZNSt16allocator_traitsISaIN5Catch11MessageInfoEEE8max_sizeERKS2_
FNDA:38,_ZNSt16allocator_traitsISaINSt7__cxx1112basic_stringIcSt11char_traitsIcESaIcEEEEE8max_sizeERKS6_
FNDA:2,_ZNSt16allocator_traitsISaIN5Catch8TestSpec6FilterEEE8max_sizeERKS3_
FNDA:12,_ZNSt16allocator_traitsISaImEE8max_sizeERKS0_
FNDA:188,_ZNSt16allocator_traitsISaIcEE8max_sizeERKS0_
FNDA:8,_ZNSt16allocator_traitsISaIN5Catch8TestCaseEEE8max_sizeERKS2_
FNDA:0,_ZNSt16allocator_traitsISaISt4pairINSt7__cxx1112basic_stringIcSt11char_traitsIcESaIcEEES6_EEE37select_on_container_copy_constructionERKS8_
FNDA:130,_ZNSt16allocator_traitsISaINSt7__cxx1112regex_traitsIcE10_RegexMaskEEE37select_on_container_copy_constructionERKS4_
FNDA:130,_ZNSt16allocator_traitsISaISt4pairIccEEE37select_on_container_copy_constructionERKS2_
FNDA:130,_ZNSt16allocator_traitsISaIcEE37select_on_container_copy_constructionERKS0_
FNDA:0,_ZNSt16allocator_traitsISaINSt7__cxx119sub_matchIN9__gnu_cxx17__normal_iteratorIPKcNS0_12basic_stringIcSt11char_traitsIcESaIcEEEEEEEEE37select_on_container_copy_constructionERKSD_
FNDA:0,_ZNSt16allocator_traitsISaIN5Catch5Clara6Parser5TokenEEE37select_on_container_copy_constructionERKS4_
FNDA:2,_ZNSt16allocator_traitsISaIN5Catch3PtrINS0_8TestSpec7PatternEEEEE37select_on_container_copy_constructionERKS5_
FNDA:98,_ZNSt16allocator_traitsISaISt13_Rb_tree_nodeINSt7__cxx1112basic_stringIcSt11char_traitsIcESaIcEEEEEE37select_on_container_copy_constructionERKS8_
FNDA:1,_ZNSt16allocator_traitsISaI3JobEE37select_on_container_copy_constructionERKS1_
FNDA:1,_ZNSt16allocator_traitsISaIP4UserEE37select_on_container_copy_constructionERKS2_
FNDA:1,_ZNSt16allocator_traitsISaIN5Catch8TestCaseEEE37select_on_container_copy_constructionERKS2_
FNDA:1,_ZNSt16allocator_traitsISaIN5Catch3PtrINS0_16IReporterFactoryEEEEE37select_on_container_copy_constructionERKS4_
FNDA:0,_ZNSt16allocator_traitsISaIN5Catch11MessageInfoEEE37select_on_container_copy_constructionERKS2_
FNDA:165,_ZNSt16allocator_traitsISaINSt7__cxx1112basic_stringIcSt11char_traitsIcESaIcEEEEE37select_on_container_copy_constructionERKS6_
FNDA:2,_ZNSt16allocator_traitsISaIN5Catch8TestSpec6FilterEEE37select_on_container_copy_constructionERKS3_
FNDA:0,_ZSt18__do_alloc_on_copyISaINSt7__cxx119sub_matchIN9__gnu_cxx17__normal_iteratorIPKcNS0_12basic_stringIcSt11char_traitsIcESaIcEEEEEEEEEvRT_RKSE_St17integral_constantIbLb0EE
FNDA:0,_ZSt18__do_alloc_on_copyISaISt13_Rb_tree_nodeINSt7__cxx1112basic_stringIcSt11char_traitsIcESaIcEEEEEEvRT_RKS9_St17integral_constantIbLb0EE
FNDA:0,_ZSt15__alloc_on_copyISaINSt7__cxx119sub_matchIN9__gnu_cxx17__normal_iteratorIPKcNS0_12basic_stringIcSt11char_traitsIcESaIcEEEEEEEEEvRT_RKSE_
FNDA:0,_ZSt15__alloc_on_copyISaISt13_Rb_tree_nodeINSt7__cxx1112basic_stringIcSt11char_traitsIcESaIcEEEEEEvRT_RKS9_
FNDA:0,_ZSt18__do_alloc_on_moveISaINSt7__cxx119sub_matchIN9__gnu_cxx17__normal_iteratorIPKcNS0_12basic_stringIcSt11char_traitsIcESaIcEEEEEEEEEvRT_SF_St17integral_constantIbLb1EE
FNDA:1,_ZSt18__do_alloc_on_moveISaIN5Catch8TestCaseEEEvRT_S4_St17integral_constantIbLb1EE
FNDA:3,_ZSt18__do_alloc_on_moveISaIN5Catch5Clara6Parser5TokenEEEvRT_S6_St17integral_constantIbLb1EE
FNDA:1,_ZSt18__do_alloc_on_moveISaIN5Catch8TestSpec6FilterEEEvRT_S5_St17integral_constantIbLb1EE
FNDA:1,_ZSt18__do_alloc_on_moveISaIN5Catch3PtrINS0_8TestSpec7PatternEEEEEvRT_S7_St17integral_constantIbLb1EE
FNDA:0,_ZSt15__alloc_on_moveISaINSt7__cxx119sub_matchIN9__gnu_cxx17__normal_iteratorIPKcNS0_12basic_stringIcSt11char_traitsIcESaIcEEEEEEEEEvRT_SF_
FNDA:1,_ZSt15__alloc_on_moveISaIN5Catch8TestCaseEEEvRT_S4_
FNDA:3,_ZSt15__alloc_on_moveISaIN5Catch5Clara6Parser5TokenEEEvRT_S6_
FNDA:1,_ZSt15__alloc_on_moveISaIN5Catch8TestSpec6FilterEEEvRT_S5_
FNDA:1,_ZSt15__alloc_on_moveISaIN5Catch3PtrINS0_8TestSpec7PatternEEEEEvRT_S7_
FNDA:0,_ZSt18__do_alloc_on_swapISaISt13_Rb_tree_nodeINSt7__cxx1112basic_stringIcSt11char_traitsIcESaIcEEEEEEvRT_SA_St17integral_constantIbLb0EE
FNDA:0,_ZSt18__do_alloc_on_swapISaIN5Catch3PtrINS0_22CumulativeReporterBase4NodeINS0_14TestGroupStatsENS3_INS0_13TestCaseStatsENS2_11SectionNodeEEEEEEEEEvRT_SC_St17integral_constantIbLb0EE
FNDA:0,_ZSt18__do_alloc_on_swapISaIN5Catch3PtrINS0_22CumulativeReporterBase4NodeINS0_13TestCaseStatsENS2_11SectionNodeEEEEEEEvRT_SA_St17integral_constantIbLb0EE
FNDA:0,_ZSt15__alloc_on_swapISaISt13_Rb_tree_nodeINSt7__cxx1112basic_stringIcSt11char_traitsIcESaIcEEEEEEvRT_SA_
FNDA:0,_ZSt15__alloc_on_swapISaIN5Catch3PtrINS0_22CumulativeReporterBase4NodeINS0_14TestGroupStatsENS3_INS0_13TestCaseStatsENS2_11SectionNodeEEEEEEEEEvRT_SC_
FNDA:0,_ZSt15__alloc_on_swapISaIN5Catch3PtrINS0_22CumulativeReporterBase4NodeINS0_13TestCaseStatsENS2_11SectionNodeEEEEEEEvRT_SA_
FNF:240
FNH:97
DA:490,36165
DA:491,36165
DA:516,35163
DA:517,35163
DA:529,3778
DA:530,3778
DA:541,2230
DA:542,2230
DA:550,1510
DA:551,1510
DA:559,661
DA:560,661
DA:571,0
DA:572,0
DA:575,0
DA:579,0
DA:580,0
DA:590,6
DA:591,6
DA:598,6
DA:602,6
DA:603,6
DA:613,0
DA:614,0
DA:617,0
DA:621,0
DA:622,0
LF:27
LH:17
end_of_record
SF:/usr/include/c++/5/bits/allocated_ptr.h
FN:52,_ZNSt15__allocated_ptrISaISt23_Sp_counted_ptr_inplaceINSt8__detail4_NFAINSt7__cxx1112regex_traitsIcEEEESaIS6_ELN9__gnu_cxx12_Lock_policyE2EEEEC2ERSB_PSA_
FN:69,_ZNSt15__allocated_ptrISaISt23_Sp_counted_ptr_inplaceINSt8__detail4_NFAINSt7__cxx1112regex_traitsIcEEEESaIS6_ELN9__gnu_cxx12_Lock_policyE2EEEED2Ev
FN:77,_ZNSt15__allocated_ptrISaISt23_Sp_counted_ptr_inplaceINSt8__detail4_NFAINSt7__cxx1112regex_traitsIcEEEESaIS6_ELN9__gnu_cxx12_Lock_policyE2EEEEaSEDn
FN:84,_ZNSt15__allocated_ptrISaISt23_Sp_counted_ptr_inplaceINSt8__detail4_NFAINSt7__cxx1112regex_traitsIcEEEESaIS6_ELN9__gnu_cxx12_Lock_policyE2EEEE3getEv
FN:87,_ZNSt15__allocated_ptrISaISt23_Sp_counted_ptr_inplaceINSt8__detail4_NFAINSt7__cxx1112regex_traitsIcEEEESaIS6_ELN9__gnu_cxx12_Lock_policyE2EEEE10_S_raw_ptrEPSA_
FN:100,_ZSt18__allocate_guardedISaISt23_Sp_counted_ptr_inplaceINSt8__detail4_NFAINSt7__cxx1112regex_traitsIcEEEESaIS6_ELN9__gnu_cxx12_Lock_policyE2EEEESt15__allocated_ptrIT_ERSD_
FNDA:4,_ZNSt15__allocated_ptrISaISt23_Sp_counted_ptr_inplaceINSt8__detail4_NFAINSt7__cxx1112regex_traitsIcEEEESaIS6_ELN9__gnu_cxx12_Lock_policyE2EEEEC2ERSB_PSA_
FNDA:4,_ZNSt15__allocated_ptrISaISt23_Sp_counted_ptr_inplaceINSt8__detail4_NFAINSt7__cxx1112regex_traitsIcEEEESaIS6_ELN9__gnu_cxx12_Lock_policyE2EEEED2Ev
FNDA:2,_ZNSt15__allocated_ptrISaISt23_Sp_counted_ptr_inplaceINSt8__detail4_NFAINSt7__cxx1112regex_traitsIcEEEESaIS6_ELN9__gnu_cxx12_Lock_policyE2EEEEaSEDn
FNDA:2,_ZNSt15__allocated_ptrISaISt23_Sp_counted_ptr_inplaceINSt8__detail4_NFAINSt7__cxx1112regex_traitsIcEEEESaIS6_ELN9__gnu_cxx12_Lock_policyE2EEEE3getEv
FNDA:2,_ZNSt15__allocated_ptrISaISt23_Sp_counted_ptr_inplaceINSt8__detail4_NFAINSt7__cxx1112regex_traitsIcEEEESaIS6_ELN9__gnu_cxx12_Lock_policyE2EEEE10_S_raw_ptrEPSA_
FNDA:2,_ZSt18__allocate_guardedISaISt23_Sp_counted_ptr_inplaceINSt8__detail4_NFAINSt7__cxx1112regex_traitsIcEEEESaIS6_ELN9__gnu_cxx12_Lock_policyE2EEEESt15__allocated_ptrIT_ERSD_
FNF:6
FNH:6
DA:52,4
DA:53,4
DA:54,4
DA:69,4
DA:71,4
DA:72,2
DA:73,4
DA:77,2
DA:79,2
DA:80,2
DA:84,2
DA:87,2
DA:100,2
DA:102,2
LF:14
LH:14
end_of_record
SF:/usr/include/c++/5/bits/allocator.h
FN:113,_ZNSaISt4pairIccEEC2Ev
FN:113,_ZNSaIN5Catch5Clara6Parser5TokenEEC2Ev
FN:113,_ZNSaISt4pairIN9__gnu_cxx17__normal_iteratorIPKcNSt7__cxx1112basic_stringIcSt11char_traitsIcESaIcEEEEEiEEC2Ev
FN:113,_ZNSaINSt7__cxx1112regex_traitsIcE10_RegexMaskEEC2Ev
FN:113,_ZNSaISt13_Rb_tree_nodeIN5Catch8TestCaseEEEC2Ev
FN:113,_ZNSaIN5Catch11MessageInfoEEC2Ev
FN:113,_ZNSaISt13_Rb_tree_nodeISt4pairIKNSt7__cxx1112basic_stringIcSt11char_traitsIcESaIcEEEN5Catch3PtrINS8_16IReporterFactoryEEEEEEC2Ev
FN:113,_ZNSaIP4UserEC2Ev
FN:113,_ZNSaImEC2Ev
FN:113,_ZNSaISt13_Rb_tree_nodeISt4pairIKiN5Catch5Clara11CommandLineINS2_10ConfigDataEE3ArgEEEEC2Ev
FN:113,_ZNSaIN5Catch3PtrINS_22CumulativeReporterBase4NodeINS_12TestRunStatsENS2_INS_14TestGroupStatsENS2_INS_13TestCaseStatsENS1_11SectionNodeEEEEEEEEEEC2Ev
FN:113,_ZNSaIN5Catch3PtrINS_16IReporterFactoryEEEEC2Ev
FN:113,_ZNSaISt13_Rb_tree_nodeISt4pairIKNSt7__cxx1112basic_stringIcSt11char_traitsIcESaIcEEEN5Catch7TagInfoEEEEC2Ev
FN:113,_ZNSaIlEC2Ev
FN:113,_ZNSaIN5Catch3PtrINS_16TestCaseTracking8ITrackerEEEEC2Ev
FN:113,_ZNSaIN5Catch14SectionEndInfoEEC2Ev
FN:113,_ZNSaISt13_Rb_tree_nodeISt4pairIKNSt7__cxx1112basic_stringIcSt11char_traitsIcESaIcEEEPN5Catch14IGeneratorInfoEEEEC2Ev
FN:113,_ZNSaIN5Catch14AssertionStatsEEC2Ev
FN:113,_ZNSaINSt8__detail9_StateSeqINSt7__cxx1112regex_traitsIcEEEEEC2Ev
FN:113,_ZNSaIN5Catch3PtrINS_18IStreamingReporterEEEEC2Ev
FN:113,_ZNSaISt13_Rb_tree_nodeISt4pairIKllEEEC2Ev
FN:113,_ZNSaIN5Catch3PtrINS_22CumulativeReporterBase4NodeINS_14TestGroupStatsENS2_INS_13TestCaseStatsENS1_11SectionNodeEEEEEEEEC2Ev
FN:113,_ZNSaINSt7__cxx119sub_matchIN9__gnu_cxx17__normal_iteratorIPKcNS_12basic_stringIcSt11char_traitsIcESaIcEEEEEEEEC2Ev
FN:113,_ZNSaIN5Catch11SectionInfoEEC2Ev
FN:113,_ZNSaISt4pairINSt7__cxx1112basic_stringIcSt11char_traitsIcESaIcEEES5_EEC2Ev
FN:113,_ZNSaIN5Catch3PtrINS_8TestSpec7PatternEEEEC2Ev
FN:113,_ZNSaINSt8__detail4_NFAINSt7__cxx1112regex_traitsIcEEEEEC2Ev
FN:113,_ZNSaINSt7__cxx1112basic_stringIcSt11char_traitsIcESaIcEEEEC2Ev
FN:113,_ZNSaIPKN5Catch20IExceptionTranslatorEEC2Ev
FN:113,_ZNSaIPN5Catch14IGeneratorInfoEEC2Ev
FN:113,_ZNSaISt4pairIlSt6vectorINSt7__cxx119sub_matchIN9__gnu_cxx17__normal_iteratorIPKcNS1_12basic_stringIcSt11char_traitsIcESaIcEEEEEEESaISD_EEEEC2Ev
FN:113,_ZNSaIN5Catch8TestSpec6FilterEEC2Ev
FN:113,_ZNSaIPKN5Catch8Matchers4Impl11MatcherBaseINSt7__cxx1112basic_stringIcSt11char_traitsIcESaIcEEES8_EEEC2Ev
FN:113,_ZNSaIN5Catch3PtrINS_22CumulativeReporterBase11SectionNodeEEEEC2Ev
FN:113,_ZNSaISt13_Rb_tree_nodeISt4pairIKNSt7__cxx1112basic_stringIcSt11char_traitsIcESaIcEEEN5Catch8TagAliasEEEEC2Ev
FN:113,_ZNSaISt13_Rb_tree_nodeISt4pairIKNSt7__cxx1112basic_stringIcSt11char_traitsIcESaIcEEEPN5Catch18IGeneratorsForTestEEEEC2Ev
FN:113,_ZNSaI3JobEC2Ev
FN:113,_ZNSaIN5Catch5Clara11CommandLineINS_10ConfigDataEE3ArgEEC2Ev
FN:113,_ZNSaIN5Catch15ConsoleReporter13SummaryColumnEEC2Ev
FN:113,_ZNSaIN5Catch8TestCaseEEC2Ev
FN:113,_ZNSaIN5Catch3PtrINS_22CumulativeReporterBase4NodeINS_13TestCaseStatsENS1_11SectionNodeEEEEEEC2Ev
FN:113,_ZNSaINSt8__detail6_StateINSt7__cxx1112regex_traitsIcEEEEEC2Ev
FN:113,_ZNSaISt13_Rb_tree_nodeINSt7__cxx1112basic_stringIcSt11char_traitsIcESaIcEEEEEC2Ev
FN:113,_ZNSaIPN5Catch16TestCaseTracking8ITrackerEEC2Ev
FN:113,_ZNSaISt6vectorIN5Catch3PtrINS0_22CumulativeReporterBase11SectionNodeEEESaIS4_EEEC2Ev
FN:115,_ZNSaIN5Catch5Clara6Parser5TokenEEC2ERKS3_
FN:115,_ZNSaINSt7__cxx1112basic_stringIcSt11char_traitsIcESaIcEEEEC2ERKS5_
FN:115,_ZNSaIN5Catch3PtrINS_8TestSpec7PatternEEEEC2ERKS4_
FN:115,_ZNSaINSt7__cxx1112regex_traitsIcE10_RegexMaskEEC2ERKS3_
FN:115,_ZNSaINSt7__cxx119sub_matchIN9__gnu_cxx17__normal_iteratorIPKcNS_12basic_stringIcSt11char_traitsIcESaIcEEEEEEEEC2ERKSC_
FN:115,_ZNSaINSt8__detail4_NFAINSt7__cxx1112regex_traitsIcEEEEEC2ERKS5_
FN:115,_ZNSaISt13_Rb_tree_nodeINSt7__cxx1112basic_stringIcSt11char_traitsIcESaIcEEEEEC2ERKS7_
FN:115,_ZNSaISt4pairIN9__gnu_cxx17__normal_iteratorIPKcNSt7__cxx1112basic_stringIcSt11char_traitsIcESaIcEEEEEiEEC2ERKSC_
FN:115,_ZNSaIN5Catch8TestSpec6FilterEEC2ERKS2_
FN:115,_ZNSaIN5Catch8TestCaseEEC2ERKS1_
FN:115,_ZNSaISt4pairINSt7__cxx1112basic_stringIcSt11char_traitsIcESaIcEEES5_EEC2ERKS7_
FN:115,_ZNSaIN5Catch11MessageInfoEEC2ERKS1_
FN:115,_ZNSaI3JobEC2ERKS0_
FN:115,_ZNSaIlEC2ERKS_
FN:115,_ZNSaISt4pairIlSt6vectorINSt7__cxx119sub_matchIN9__gnu_cxx17__normal_iteratorIPKcNS1_12basic_stringIcSt11char_traitsIcESaIcEEEEEEESaISD_EEEEC2ERKSH_
FN:115,_ZNSaIN5Catch3PtrINS_16IReporterFactoryEEEEC2ERKS3_
FN:115,_ZNSaISt4pairIccEEC2ERKS1_
FN:115,_ZNSaINSt8__detail9_StateSeqINSt7__cxx1112regex_traitsIcEEEEEC2ERKS5_
FN:115,_ZNSaIP4UserEC2ERKS1_
FN:119,_ZNSaIPlEC2IlEERKSaIT_E
FN:119,_ZNSaIPNSt8__detail9_StateSeqINSt7__cxx1112regex_traitsIcEEEEEC2IS4_EERKSaIT_E
FN:119,_ZNSaISt23_Sp_counted_ptr_inplaceINSt8__detail4_NFAINSt7__cxx1112regex_traitsIcEEEESaIS5_ELN9__gnu_cxx12_Lock_policyE2EEEC2IS5_EERKSaIT_E
FN:121,_ZNSaIN5Catch8TestCaseEED2Ev
FN:121,_ZNSaIN5Catch3PtrINS_16TestCaseTracking8ITrackerEEEED2Ev
FN:121,_ZNSaIN5Catch3PtrINS_22CumulativeReporterBase4NodeINS_12TestRunStatsENS2_INS_14TestGroupStatsENS2_INS_13TestCaseStatsENS1_11SectionNodeEEEEEEEEEED2Ev
FN:121,_ZNSaISt13_Rb_tree_nodeINSt7__cxx1112basic_stringIcSt11char_traitsIcESaIcEEEEED2Ev
FN:121,_ZNSaIPKN5Catch20IExceptionTranslatorEED2Ev
FN:121,_ZNSaIN5Catch11SectionInfoEED2Ev
FN:121,_ZNSaISt13_Rb_tree_nodeISt4pairIKiN5Catch5Clara11CommandLineINS2_10ConfigDataEE3ArgEEEED2Ev
FN:121,_ZNSaIN5Catch3PtrINS_16IReporterFactoryEEEED2Ev
FN:121,_ZNSaISt13_Rb_tree_nodeISt4pairIKNSt7__cxx1112basic_stringIcSt11char_traitsIcESaIcEEEPN5Catch18IGeneratorsForTestEEEED2Ev
FN:121,_ZNSaIN5Catch3PtrINS_18IStreamingReporterEEEED2Ev
FN:121,_ZNSaISt13_Rb_tree_nodeISt4pairIKNSt7__cxx1112basic_stringIcSt11char_traitsIcESaIcEEEPN5Catch14IGeneratorInfoEEEED2Ev
FN:121,_ZNSaISt13_Rb_tree_nodeISt4pairIKNSt7__cxx1112basic_stringIcSt11char_traitsIcESaIcEEEN5Catch3PtrINS8_16IReporterFactoryEEEEEED2Ev
FN:121,_ZNSaIN5Catch14AssertionStatsEED2Ev
FN:121,_ZNSaIN5Catch3PtrINS_22CumulativeReporterBase11SectionNodeEEEED2Ev
FN:121,_ZNSaISt4pairIN9__gnu_cxx17__normal_iteratorIPKcNSt7__cxx1112basic_stringIcSt11char_traitsIcESaIcEEEEEiEED2Ev
FN:121,_ZNSaISt4pairIccEED2Ev
FN:121,_ZNSaIN5Catch3PtrINS_22CumulativeReporterBase4NodeINS_14TestGroupStatsENS2_INS_13TestCaseStatsENS1_11SectionNodeEEEEEEEED2Ev
FN:121,_ZNSaIPlED2Ev
FN:121,_ZNSaISt13_Rb_tree_nodeISt4pairIKNSt7__cxx1112basic_stringIcSt11char_traitsIcESaIcEEEN5Catch8TagAliasEEEED2Ev
FN:121,_ZNSaISt13_Rb_tree_nodeISt4pairIKllEEED2Ev
FN:121,_ZNSaINSt8__detail9_StateSeqINSt7__cxx1112regex_traitsIcEEEEED2Ev
FN:121,_ZNSaIPKN5Catch8Matchers4Impl11MatcherBaseINSt7__cxx1112basic_stringIcSt11char_traitsIcESaIcEEES8_EEED2Ev
FN:121,_ZNSaINSt7__cxx1112basic_stringIcSt11char_traitsIcESaIcEEEED2Ev
FN:121,_ZNSaISt13_Rb_tree_nodeISt4pairIKNSt7__cxx1112basic_stringIcSt11char_traitsIcESaIcEEEN5Catch7TagInfoEEEED2Ev
FN:121,_ZNSaIN5Catch11MessageInfoEED2Ev
FN:121,_ZNSaIN5Catch15ConsoleReporter13SummaryColumnEED2Ev
FN:121,_ZNSaINSt8__detail4_NFAINSt7__cxx1112regex_traitsIcEEEEED2Ev
FN:121,_ZNSaIPN5Catch14IGeneratorInfoEED2Ev
FN:121,_ZNSaIP4UserED2Ev
FN:121,_ZNSaISt6vectorIN5Catch3PtrINS0_22CumulativeReporterBase11SectionNodeEEESaIS4_EEED2Ev
FN:121,_ZNSaIN5Catch5Clara11CommandLineINS_10ConfigDataEE3ArgEED2Ev
FN:121,_ZNSaIlED2Ev
FN:121,_ZNSaI3JobED2Ev
FN:121,_ZNSaINSt7__cxx119sub_matchIN9__gnu_cxx17__normal_iteratorIPKcNS_12basic_stringIcSt11char_traitsIcESaIcEEEEEEEED2Ev
FN:121,_ZNSaIPNSt8__detail9_StateSeqINSt7__cxx1112regex_traitsIcEEEEED2Ev
FN:121,_ZNSaISt23_Sp_counted_ptr_inplaceINSt8__detail4_NFAINSt7__cxx1112regex_traitsIcEEEESaIS5_ELN9__gnu_cxx12_Lock_policyE2EEED2Ev
FN:121,_ZNSaIN5Catch5Clara6Parser5TokenEED2Ev
FN:121,_ZNSaINSt7__cxx1112regex_traitsIcE10_RegexMaskEED2Ev
FN:121,_ZNSaImED2Ev
FN:121,_ZNSaISt13_Rb_tree_nodeIN5Catch8TestCaseEEED2Ev
FN:121,_ZNSaISt4pairINSt7__cxx1112basic_stringIcSt11char_traitsIcESaIcEEES5_EED2Ev
FN:121,_ZNSaIN5Catch3PtrINS_8TestSpec7PatternEEEED2Ev
FN:121,_ZNSaIN5Catch14SectionEndInfoEED2Ev
FN:121,_ZNSaISt4pairIlSt6vectorINSt7__cxx119sub_matchIN9__gnu_cxx17__normal_iteratorIPKcNS1_12basic_stringIcSt11char_traitsIcESaIcEEEEEEESaISD_EEEED2Ev
FN:121,_ZNSaINSt8__detail6_StateINSt7__cxx1112regex_traitsIcEEEEED2Ev
FN:121,_ZNSaIN5Catch3PtrINS_22CumulativeReporterBase4NodeINS_13TestCaseStatsENS1_11SectionNodeEEEEEED2Ev
FN:121,_ZNSaIN5Catch8TestSpec6FilterEED2Ev
FN:121,_ZNSaIPN5Catch16TestCaseTracking8ITrackerEED2Ev
FN:146,_ZStneISt13_Rb_tree_nodeINSt7__cxx1112basic_stringIcSt11char_traitsIcESaIcEEEEEbRKSaIT_ESB_
FN:146,_ZStneINSt7__cxx119sub_matchIN9__gnu_cxx17__normal_iteratorIPKcNS0_12basic_stringIcSt11char_traitsIcESaIcEEEEEEEEbRKSaIT_ESG_
FNDA:2,_ZNSaINSt8__detail6_StateINSt7__cxx1112regex_traitsIcEEEEEC2Ev
FNDA:0,_ZNSaISt4pairINSt7__cxx1112basic_stringIcSt11char_traitsIcESaIcEEES5_EEC2Ev
FNDA:94,_ZNSaINSt7__cxx1112regex_traitsIcE10_RegexMaskEEC2Ev
FNDA:94,_ZNSaISt4pairIccEEC2Ev
FNDA:0,_ZNSaISt13_Rb_tree_nodeISt4pairIKllEEEC2Ev
FNDA:0,_ZNSaIlEC2Ev
FNDA:0,_ZNSaISt4pairIlSt6vectorINSt7__cxx119sub_matchIN9__gnu_cxx17__normal_iteratorIPKcNS1_12basic_stringIcSt11char_traitsIcESaIcEEEEEEESaISD_EEEEC2Ev
FNDA:2,_ZNSaINSt8__detail9_StateSeqINSt7__cxx1112regex_traitsIcEEEEEC2Ev
FNDA:2,_ZNSaINSt8__detail4_NFAINSt7__cxx1112regex_traitsIcEEEEEC2Ev
FNDA:501,_ZNSaISt4pairIN9__gnu_cxx17__normal_iteratorIPKcNSt7__cxx1112basic_stringIcSt11char_traitsIcESaIcEEEEEiEEC2Ev
FNDA:1,_ZNSaISt13_Rb_tree_nodeISt4pairIKiN5Catch5Clara11CommandLineINS2_10ConfigDataEE3ArgEEEEC2Ev
FNDA:1,_ZNSaIN5Catch5Clara11CommandLineINS_10ConfigDataEE3ArgEEC2Ev
FNDA:0,_ZNSaIN5Catch15ConsoleReporter13SummaryColumnEEC2Ev
FNDA:0,_ZNSaIN5Catch3PtrINS_22CumulativeReporterBase4NodeINS_12TestRunStatsENS2_INS_14TestGroupStatsENS2_INS_13TestCaseStatsENS1_11SectionNodeEEEEEEEEEEC2Ev
FNDA:0,_ZNSaIN5Catch3PtrINS_22CumulativeReporterBase4NodeINS_14TestGroupStatsENS2_INS_13TestCaseStatsENS1_11SectionNodeEEEEEEEEC2Ev
FNDA:0,_ZNSaIN5Catch3PtrINS_22CumulativeReporterBase4NodeINS_13TestCaseStatsENS1_11SectionNodeEEEEEEC2Ev
FNDA:0,_ZNSaISt6vectorIN5Catch3PtrINS0_22CumulativeReporterBase11SectionNodeEEESaIS4_EEEC2Ev
FNDA:0,_ZNSaIN5Catch14AssertionStatsEEC2Ev
FNDA:0,_ZNSaIN5Catch3PtrINS_22CumulativeReporterBase11SectionNodeEEEEC2Ev
FNDA:1,_ZNSaIN5Catch11SectionInfoEEC2Ev
FNDA:0,_ZNSaIN5Catch3PtrINS_18IStreamingReporterEEEEC2Ev
FNDA:0,_ZNSaIPKN5Catch8Matchers4Impl11MatcherBaseINSt7__cxx1112basic_stringIcSt11char_traitsIcESaIcEEES8_EEEC2Ev
FNDA:0,_ZNSaIPN5Catch14IGeneratorInfoEEC2Ev
FNDA:0,_ZNSaISt13_Rb_tree_nodeISt4pairIKNSt7__cxx1112basic_stringIcSt11char_traitsIcESaIcEEEPN5Catch14IGeneratorInfoEEEEC2Ev
FNDA:1,_ZNSaISt13_Rb_tree_nodeISt4pairIKNSt7__cxx1112basic_stringIcSt11char_traitsIcESaIcEEEPN5Catch18IGeneratorsForTestEEEEC2Ev
FNDA:1,_ZNSaISt13_Rb_tree_nodeISt4pairIKNSt7__cxx1112basic_stringIcSt11char_traitsIcESaIcEEEN5Catch8TagAliasEEEEC2Ev
FNDA:1,_ZNSaIPKN5Catch20IExceptionTranslatorEEC2Ev
FNDA:1,_ZNSaIN5Catch3PtrINS_16IReporterFactoryEEEEC2Ev
FNDA:1,_ZNSaISt13_Rb_tree_nodeISt4pairIKNSt7__cxx1112basic_stringIcSt11char_traitsIcESaIcEEEN5Catch3PtrINS8_16IReporterFactoryEEEEEEC2Ev
FNDA:2,_ZNSaIN5Catch8TestCaseEEC2Ev
FNDA:1,_ZNSaISt13_Rb_tree_nodeIN5Catch8TestCaseEEEC2Ev
FNDA:5,_ZNSaIN5Catch5Clara6Parser5TokenEEC2Ev
FNDA:1,_ZNSaIPN5Catch16TestCaseTracking8ITrackerEEC2Ev
FNDA:1,_ZNSaIN5Catch14SectionEndInfoEEC2Ev
FNDA:1,_ZNSaIN5Catch11MessageInfoEEC2Ev
FNDA:12,_ZNSaIN5Catch3PtrINS_16TestCaseTracking8ITrackerEEEEC2Ev
FNDA:0,_ZNSaISt13_Rb_tree_nodeISt4pairIKNSt7__cxx1112basic_stringIcSt11char_traitsIcESaIcEEEN5Catch7TagInfoEEEEC2Ev
FNDA:18,_ZNSaISt13_Rb_tree_nodeINSt7__cxx1112basic_stringIcSt11char_traitsIcESaIcEEEEEC2Ev
FNDA:2,_ZNSaIN5Catch8TestSpec6FilterEEC2Ev
FNDA:2,_ZNSaIN5Catch3PtrINS_8TestSpec7PatternEEEEC2Ev
FNDA:3,_ZNSaImEC2Ev
FNDA:1002,_ZNSaINSt7__cxx119sub_matchIN9__gnu_cxx17__normal_iteratorIPKcNS_12basic_stringIcSt11char_traitsIcESaIcEEEEEEEEC2Ev
FNDA:502,_ZNSaI3JobEC2Ev
FNDA:502,_ZNSaIP4UserEC2Ev
FNDA:139,_ZNSaINSt7__cxx1112basic_stringIcSt11char_traitsIcESaIcEEEEC2Ev
FNDA:0,_ZNSaIlEC2ERKS_
FNDA:0,_ZNSaISt4pairINSt7__cxx1112basic_stringIcSt11char_traitsIcESaIcEEES5_EEC2ERKS7_
FNDA:448,_ZNSaINSt7__cxx1112regex_traitsIcE10_RegexMaskEEC2ERKS3_
FNDA:448,_ZNSaISt4pairIccEEC2ERKS1_
FNDA:0,_ZNSaISt4pairIlSt6vectorINSt7__cxx119sub_matchIN9__gnu_cxx17__normal_iteratorIPKcNS1_12basic_stringIcSt11char_traitsIcESaIcEEEEEEESaISD_EEEEC2ERKSH_
FNDA:2,_ZNSaINSt8__detail9_StateSeqINSt7__cxx1112regex_traitsIcEEEEEC2ERKS5_
FNDA:6,_ZNSaINSt8__detail4_NFAINSt7__cxx1112regex_traitsIcEEEEEC2ERKS5_
FNDA:501,_ZNSaISt4pairIN9__gnu_cxx17__normal_iteratorIPKcNSt7__cxx1112basic_stringIcSt11char_traitsIcESaIcEEEEEiEEC2ERKSC_
FNDA:501,_ZNSaINSt7__cxx119sub_matchIN9__gnu_cxx17__normal_iteratorIPKcNS_12basic_stringIcSt11char_traitsIcESaIcEEEEEEEEC2ERKSC_
FNDA:7,_ZNSaIN5Catch5Clara6Parser5TokenEEC2ERKS3_
FNDA:196,_ZNSaISt13_Rb_tree_nodeINSt7__cxx1112basic_stringIcSt11char_traitsIcESaIcEEEEEC2ERKS7_
FNDA:6,_ZNSaIN5Catch3PtrINS_8TestSpec7PatternEEEEC2ERKS4_
FNDA:3,_ZNSaI3JobEC2ERKS0_
FNDA:3,_ZNSaIP4UserEC2ERKS1_
FNDA:4,_ZNSaIN5Catch8TestCaseEEC2ERKS1_
FNDA:2,_ZNSaIN5Catch3PtrINS_16IReporterFactoryEEEEC2ERKS3_
FNDA:0,_ZNSaIN5Catch11MessageInfoEEC2ERKS1_
FNDA:546,_ZNSaINSt7__cxx1112basic_stringIcSt11char_traitsIcESaIcEEEEC2ERKS5_
FNDA:6,_ZNSaIN5Catch8TestSpec6FilterEEC2ERKS2_
FNDA:0,_ZNSaIPlEC2IlEERKSaIT_E
FNDA:4,_ZNSaISt23_Sp_counted_ptr_inplaceINSt8__detail4_NFAINSt7__cxx1112regex_traitsIcEEEESaIS5_ELN9__gnu_cxx12_Lock_policyE2EEEC2IS5_EERKSaIT_E
FNDA:8,_ZNSaIPNSt8__detail9_StateSeqINSt7__cxx1112regex_traitsIcEEEEEC2IS4_EERKSaIT_E
FNDA:2,_ZNSaINSt8__detail6_StateINSt7__cxx1112regex_traitsIcEEEEED2Ev
FNDA:0,_ZNSaIPlED2Ev
FNDA:0,_ZNSaISt4pairINSt7__cxx1112basic_stringIcSt11char_traitsIcESaIcEEES5_EED2Ev
FNDA:542,_ZNSaINSt7__cxx1112regex_traitsIcE10_RegexMaskEED2Ev
FNDA:542,_ZNSaISt4pairIccEED2Ev
FNDA:0,_ZNSaIlED2Ev
FNDA:0,_ZNSaISt13_Rb_tree_nodeISt4pairIKllEEED2Ev
FNDA:4,_ZNSaISt23_Sp_counted_ptr_inplaceINSt8__detail4_NFAINSt7__cxx1112regex_traitsIcEEEESaIS5_ELN9__gnu_cxx12_Lock_policyE2EEED2Ev
FNDA:8,_ZNSaIPNSt8__detail9_StateSeqINSt7__cxx1112regex_traitsIcEEEEED2Ev
FNDA:0,_ZNSaISt4pairIlSt6vectorINSt7__cxx119sub_matchIN9__gnu_cxx17__normal_iteratorIPKcNS1_12basic_stringIcSt11char_traitsIcESaIcEEEEEEESaISD_EEEED2Ev
FNDA:4,_ZNSaINSt8__detail9_StateSeqINSt7__cxx1112regex_traitsIcEEEEED2Ev
FNDA:8,_ZNSaINSt8__detail4_NFAINSt7__cxx1112regex_traitsIcEEEEED2Ev
FNDA:1002,_ZNSaISt4pairIN9__gnu_cxx17__normal_iteratorIPKcNSt7__cxx1112basic_stringIcSt11char_traitsIcESaIcEEEEEiEED2Ev
FNDA:1503,_ZNSaINSt7__cxx119sub_matchIN9__gnu_cxx17__normal_iteratorIPKcNS_12basic_stringIcSt11char_traitsIcESaIcEEEEEEEED2Ev
FNDA:0,_ZNSaIN5Catch15ConsoleReporter13SummaryColumnEED2Ev
FNDA:0,_ZNSaIN5Catch3PtrINS_22CumulativeReporterBase4NodeINS_12TestRunStatsENS2_INS_14TestGroupStatsENS2_INS_13TestCaseStatsENS1_11SectionNodeEEEEEEEEEED2Ev
FNDA:0,_ZNSaIN5Catch3PtrINS_22CumulativeReporterBase4NodeINS_14TestGroupStatsENS2_INS_13TestCaseStatsENS1_11SectionNodeEEEEEEEED2Ev
FNDA:0,_ZNSaIN5Catch3PtrINS_22CumulativeReporterBase4NodeINS_13TestCaseStatsENS1_11SectionNodeEEEEEED2Ev
FNDA:0,_ZNSaISt6vectorIN5Catch3PtrINS0_22CumulativeReporterBase11SectionNodeEEESaIS4_EEED2Ev
FNDA:0,_ZNSaIN5Catch14AssertionStatsEED2Ev
FNDA:0,_ZNSaIN5Catch3PtrINS_22CumulativeReporterBase11SectionNodeEEEED2Ev
FNDA:1,_ZNSaIN5Catch11SectionInfoEED2Ev
FNDA:0,_ZNSaIN5Catch3PtrINS_18IStreamingReporterEEEED2Ev
FNDA:0,_ZNSaIPKN5Catch8Matchers4Impl11MatcherBaseINSt7__cxx1112basic_stringIcSt11char_traitsIcESaIcEEES8_EEED2Ev
FNDA:0,_ZNSaIPN5Catch14IGeneratorInfoEED2Ev
FNDA:1,_ZNSaIPKN5Catch20IExceptionTranslatorEED2Ev
FNDA:12,_ZNSaIN5Catch5Clara6Parser5TokenEED2Ev
FNDA:1,_ZNSaIPN5Catch16TestCaseTracking8ITrackerEED2Ev
FNDA:1,_ZNSaIN5Catch14SectionEndInfoEED2Ev
FNDA:12,_ZNSaIN5Catch3PtrINS_16TestCaseTracking8ITrackerEEEED2Ev
FNDA:1,_ZNSaIN5Catch5Clara11CommandLineINS_10ConfigDataEE3ArgEED2Ev
FNDA:8,_ZNSaIN5Catch3PtrINS_8TestSpec7PatternEEEED2Ev
FNDA:3,_ZNSaImED2Ev
FNDA:0,_ZNSaISt13_Rb_tree_nodeISt4pairIKNSt7__cxx1112basic_stringIcSt11char_traitsIcESaIcEEEPN5Catch14IGeneratorInfoEEEED2Ev
FNDA:1,_ZNSaISt13_Rb_tree_nodeISt4pairIKNSt7__cxx1112basic_stringIcSt11char_traitsIcESaIcEEEPN5Catch18IGeneratorsForTestEEEED2Ev
FNDA:1,_ZNSaISt13_Rb_tree_nodeISt4pairIKNSt7__cxx1112basic_stringIcSt11char_traitsIcESaIcEEEN5Catch8TagAliasEEEED2Ev
FNDA:1,_ZNSaISt13_Rb_tree_nodeISt4pairIKNSt7__cxx1112basic_stringIcSt11char_traitsIcESaIcEEEN5Catch3PtrINS8_16IReporterFactoryEEEEEED2Ev
FNDA:1,_ZNSaISt13_Rb_tree_nodeIN5Catch8TestCaseEEED2Ev
FNDA:6,_ZNSaIN5Catch8TestCaseEED2Ev
FNDA:3,_ZNSaIN5Catch3PtrINS_16IReporterFactoryEEEED2Ev
FNDA:0,_ZNSaISt13_Rb_tree_nodeISt4pairIKNSt7__cxx1112basic_stringIcSt11char_traitsIcESaIcEEEN5Catch7TagInfoEEEED2Ev
FNDA:214,_ZNSaISt13_Rb_tree_nodeINSt7__cxx1112basic_stringIcSt11char_traitsIcESaIcEEEEED2Ev
FNDA:1,_ZNSaIN5Catch11MessageInfoEED2Ev
FNDA:1,_ZNSaISt13_Rb_tree_nodeISt4pairIKiN5Catch5Clara11CommandLineINS2_10ConfigDataEE3ArgEEEED2Ev
FNDA:8,_ZNSaIN5Catch8TestSpec6FilterEED2Ev
FNDA:4,_ZNSaI3JobED2Ev
FNDA:4,_ZNSaIP4UserED2Ev
FNDA:685,_ZNSaINSt7__cxx1112basic_stringIcSt11char_traitsIcESaIcEEEED2Ev
FNDA:0,_ZStneINSt7__cxx119sub_matchIN9__gnu_cxx17__normal_iteratorIPKcNS0_12basic_stringIcSt11char_traitsIcESaIcEEEEEEEEbRKSaIT_ESG_
FNDA:0,_ZStneISt13_Rb_tree_nodeINSt7__cxx1112basic_stringIcSt11char_traitsIcESaIcEEEEEbRKSaIT_ESB_
FNF:117
FNH:77
DA:113,2896
DA:115,2679
DA:116,2679
DA:119,12
DA:121,4585
DA:146,0
DA:148,0
LF:7
LH:5
end_of_record
SF:/usr/include/c++/5/bits/basic_string.h
FN:106,_ZNSt7__cxx1112basic_stringIcSt11char_traitsIcESaIcEE12_Alloc_hiderD2Ev
FN:191,_ZNSt7__cxx1112basic_stringIcSt11char_traitsIcESaIcEE16_M_construct_auxIPcEEvT_S7_St12__false_type
FN:191,_ZNSt7__cxx1112basic_stringIcSt11char_traitsIcESaIcEE16_M_construct_auxIN9__gnu_cxx17__normal_iteratorIPcS4_EEEEvT_SA_St12__false_type
FN:191,_ZNSt7__cxx1112basic_stringIcSt11char_traitsIcESaIcEE16_M_construct_auxIN9__gnu_cxx17__normal_iteratorIPKcS4_EEEEvT_SB_St12__false_type
FN:211,_ZNSt7__cxx1112basic_stringIcSt11char_traitsIcESaIcEE12_M_constructIN9__gnu_cxx17__normal_iteratorIPcS4_EEEEvT_SA_
FN:211,_ZNSt7__cxx1112basic_stringIcSt11char_traitsIcESaIcEE12_M_constructIPcEEvT_S7_
FN:211,_ZNSt7__cxx1112basic_stringIcSt11char_traitsIcESaIcEE12_M_constructIN9__gnu_cxx17__normal_iteratorIPKcS4_EEEEvT_SB_
FN:534,_ZNSt7__cxx1112basic_stringIcSt11char_traitsIcESaIcEEC2IPcvEET_S7_RKS3_
FN:534,_ZNSt7__cxx1112basic_stringIcSt11char_traitsIcESaIcEEC2IN9__gnu_cxx17__normal_iteratorIPcS4_EEvEET_SA_RKS3_
FN:534,_ZNSt7__cxx1112basic_stringIcSt11char_traitsIcESaIcEEC2IN9__gnu_cxx17__normal_iteratorIPKcS4_EEvEET_SB_RKS3_
FN:4836,_ZStplIcSt11char_traitsIcESaIcEENSt7__cxx1112basic_stringIT_T0_T1_EERKS8_S5_
FN:4848,_ZStplIcSt11char_traitsIcESaIcEENSt7__cxx1112basic_stringIT_T0_T1_EEOS8_RKS8_
FN:4854,_ZStplIcSt11char_traitsIcESaIcEENSt7__cxx1112basic_stringIT_T0_T1_EERKS8_OS8_
FN:4860,_ZStplIcSt11char_traitsIcESaIcEENSt7__cxx1112basic_stringIT_T0_T1_EEOS8_S9_
FN:4872,_ZStplIcSt11char_traitsIcESaIcEENSt7__cxx1112basic_stringIT_T0_T1_EEPKS5_OS8_
FN:4878,_ZStplIcSt11char_traitsIcESaIcEENSt7__cxx1112basic_stringIT_T0_T1_EES5_OS8_
FN:4884,_ZStplIcSt11char_traitsIcESaIcEENSt7__cxx1112basic_stringIT_T0_T1_EEOS8_PKS5_
FN:4890,_ZStplIcSt11char_traitsIcESaIcEENSt7__cxx1112basic_stringIT_T0_T1_EEOS8_S5_
FN:4911,_ZSteqIcEN9__gnu_cxx11__enable_ifIXsrSt9__is_charIT_E7__valueEbE6__typeERKNSt7__cxx1112basic_stringIS3_St11char_traitsIS3_ESaIS3_EEESE_
FN:4937,_ZSteqIcSt11char_traitsIcESaIcEEbRKNSt7__cxx1112basic_stringIT_T0_T1_EEPKS5_
FN:4950,_ZStneIcSt11char_traitsIcESaIcEEbRKNSt7__cxx1112basic_stringIT_T0_T1_EESA_
FN:4974,_ZStneIcSt11char_traitsIcESaIcEEbRKNSt7__cxx1112basic_stringIT_T0_T1_EEPKS5_
FN:4987,_ZStltIcSt11char_traitsIcESaIcEEbRKNSt7__cxx1112basic_stringIT_T0_T1_EESA_
FN:5061,_ZStleIcSt11char_traitsIcESaIcEEbRKNSt7__cxx1112basic_stringIT_T0_T1_EESA_
FNDA:0,_ZNSt7__cxx1112basic_stringIcSt11char_traitsIcESaIcEE12_Alloc_hiderD2Ev
FNDA:0,_ZNSt7__cxx1112basic_stringIcSt11char_traitsIcESaIcEE16_M_construct_auxIN9__gnu_cxx17__normal_iteratorIPcS4_EEEEvT_SA_St12__false_type
FNDA:0,_ZNSt7__cxx1112basic_stringIcSt11char_traitsIcESaIcEE16_M_construct_auxIN9__gnu_cxx17__normal_iteratorIPKcS4_EEEEvT_SB_St12__false_type
FNDA:107794,_ZNSt7__cxx1112basic_stringIcSt11char_traitsIcESaIcEE16_M_construct_auxIPcEEvT_S7_St12__false_type
FNDA:0,_ZNSt7__cxx1112basic_stringIcSt11char_traitsIcESaIcEE12_M_constructIN9__gnu_cxx17__normal_iteratorIPcS4_EEEEvT_SA_
FNDA:0,_ZNSt7__cxx1112basic_stringIcSt11char_traitsIcESaIcEE12_M_constructIN9__gnu_cxx17__normal_iteratorIPKcS4_EEEEvT_SB_
FNDA:107794,_ZNSt7__cxx1112basic_stringIcSt11char_traitsIcESaIcEE12_M_constructIPcEEvT_S7_
FNDA:0,_ZNSt7__cxx1112basic_stringIcSt11char_traitsIcESaIcEEC2IN9__gnu_cxx17__normal_iteratorIPcS4_EEvEET_SA_RKS3_
FNDA:107794,_ZNSt7__cxx1112basic_stringIcSt11char_traitsIcESaIcEEC2IPcvEET_S7_RKS3_
FNDA:0,_ZNSt7__cxx1112basic_stringIcSt11char_traitsIcESaIcEEC2IN9__gnu_cxx17__normal_iteratorIPKcS4_EEvEET_SB_RKS3_
FNDA:0,_ZStplIcSt11char_traitsIcESaIcEENSt7__cxx1112basic_stringIT_T0_T1_EERKS8_S5_
FNDA:0,_ZStplIcSt11char_traitsIcESaIcEENSt7__cxx1112basic_stringIT_T0_T1_EEOS8_RKS8_
FNDA:0,_ZStplIcSt11char_traitsIcESaIcEENSt7__cxx1112basic_stringIT_T0_T1_EERKS8_OS8_
FNDA:12,_ZStplIcSt11char_traitsIcESaIcEENSt7__cxx1112basic_stringIT_T0_T1_EEOS8_S9_
FNDA:0,_ZStplIcSt11char_traitsIcESaIcEENSt7__cxx1112basic_stringIT_T0_T1_EEPKS5_OS8_
FNDA:0,_ZStplIcSt11char_traitsIcESaIcEENSt7__cxx1112basic_stringIT_T0_T1_EES5_OS8_
FNDA:2004,_ZStplIcSt11char_traitsIcESaIcEENSt7__cxx1112basic_stringIT_T0_T1_EEOS8_PKS5_
FNDA:0,_ZStplIcSt11char_traitsIcESaIcEENSt7__cxx1112basic_stringIT_T0_T1_EEOS8_S5_
FNDA:63,_ZSteqIcEN9__gnu_cxx11__enable_ifIXsrSt9__is_charIT_E7__valueEbE6__typeERKNSt7__cxx1112basic_stringIS3_St11char_traitsIS3_ESaIS3_EEESE_
FNDA:108,_ZSteqIcSt11char_traitsIcESaIcEEbRKNSt7__cxx1112basic_stringIT_T0_T1_EEPKS5_
FNDA:0,_ZStneIcSt11char_traitsIcESaIcEEbRKNSt7__cxx1112basic_stringIT_T0_T1_EESA_
FNDA:0,_ZStneIcSt11char_traitsIcESaIcEEbRKNSt7__cxx1112basic_stringIT_T0_T1_EEPKS5_
FNDA:43,_ZStltIcSt11char_traitsIcESaIcEEbRKNSt7__cxx1112basic_stringIT_T0_T1_EESA_
FNDA:0,_ZStleIcSt11char_traitsIcESaIcEEbRKNSt7__cxx1112basic_stringIT_T0_T1_EESA_
FNF:24
FNH:8
DA:106,0
DA:191,107794
DA:195,107794
DA:196,107794
DA:211,107794
DA:214,107794
DA:215,107794
DA:534,107794
DA:536,107794
DA:537,107794
DA:4836,0
DA:4840,0
DA:4841,0
DA:4842,0
DA:4848,0
DA:4850,0
DA:4854,0
DA:4856,0
DA:4860,12
DA:4863,12
DA:4864,12
DA:4865,12
DA:4866,0
DA:4867,12
DA:4872,0
DA:4874,0
DA:4878,0
DA:4880,0
DA:4884,2004
DA:4886,2004
DA:4890,0
DA:4892,0
DA:4911,63
DA:4913,63
DA:4914,63
DA:4915,126
DA:4937,108
DA:4939,108
DA:4950,0
DA:4952,0
DA:4974,0
DA:4976,0
DA:4987,43
DA:4989,43
DA:5061,0
DA:5063,0
LF:46
LH:24
end_of_record
SF:/usr/include/c++/5/bits/basic_string.tcc
FN:210,_ZNSt7__cxx1112basic_stringIcSt11char_traitsIcESaIcEE12_M_constructIN9__gnu_cxx17__normal_iteratorIPKcS4_EEEEvT_SB_St20forward_iterator_tag
FN:210,_ZNSt7__cxx1112basic_stringIcSt11char_traitsIcESaIcEE12_M_constructIPcEEvT_S7_St20forward_iterator_tag
FN:210,_ZNSt7__cxx1112basic_stringIcSt11char_traitsIcESaIcEE12_M_constructIN9__gnu_cxx17__normal_iteratorIPcS4_EEEEvT_SA_St20forward_iterator_tag
FN:1151,_ZStplIcSt11char_traitsIcESaIcEENSt7__cxx1112basic_stringIT_T0_T1_EEPKS5_RKS8_
FN:1167,_ZStplIcSt11char_traitsIcESaIcEENSt7__cxx1112basic_stringIT_T0_T1_EES5_RKS8_
FNDA:0,_ZNSt7__cxx1112basic_stringIcSt11char_traitsIcESaIcEE12_M_constructIN9__gnu_cxx17__normal_iteratorIPcS4_EEEEvT_SA_St20forward_iterator_tag
FNDA:0,_ZNSt7__cxx1112basic_stringIcSt11char_traitsIcESaIcEE12_M_constructIN9__gnu_cxx17__normal_iteratorIPKcS4_EEEEvT_SB_St20forward_iterator_tag
FNDA:108432,_ZNSt7__cxx1112basic_stringIcSt11char_traitsIcESaIcEE12_M_constructIPcEEvT_S7_St20forward_iterator_tag
FNDA:0,_ZStplIcSt11char_traitsIcESaIcEENSt7__cxx1112basic_stringIT_T0_T1_EEPKS5_RKS8_
FNDA:0,_ZStplIcSt11char_traitsIcESaIcEENSt7__cxx1112basic_stringIT_T0_T1_EES5_RKS8_
FNF:5
FNH:1
DA:210,108432
DA:215,108432
DA:216,0
DA:219,108432
DA:221,108432
DA:223,126
DA:224,126
DA:229,108432
DA:230,0
DA:232,0
DA:233,0
DA:236,108432
DA:237,108432
DA:1151,0
DA:1157,0
DA:1158,0
DA:1159,0
DA:1160,0
DA:1161,0
DA:1162,0
DA:1167,0
DA:1171,0
DA:1172,0
DA:1173,0
DA:1174,0
DA:1175,0
DA:1176,0
LF:27
LH:9
end_of_record
SF:/usr/include/c++/5/bits/char_traits.h
FN:258,_ZNSt11char_traitsIcE7compareEPKcS2_m
FN:266,_ZNSt11char_traitsIcE6lengthEPKc
FNDA:63,_ZNSt11char_traitsIcE7compareEPKcS2_m
FNDA:0,_ZNSt11char_traitsIcE6lengthEPKc
FNF:2
FNH:1
DA:258,63
DA:260,63
DA:261,0
DA:262,63
DA:266,0
DA:267,0
LF:6
LH:3
end_of_record
SF:/usr/include/c++/5/bits/deque.tcc
FN:149,_ZNSt5dequeINSt8__detail9_StateSeqINSt7__cxx1112regex_traitsIcEEEESaIS5_EE12emplace_backIJS5_EEEvDpOT_
FN:462,_ZNSt5dequeIlSaIlEE16_M_push_back_auxIJRKlEEEvDpOT_
FN:462,_ZNSt5dequeINSt8__detail9_StateSeqINSt7__cxx1112regex_traitsIcEEEESaIS5_EE16_M_push_back_auxIJS5_EEEvDpOT_
FN:462,_ZNSt5dequeINSt8__detail9_StateSeqINSt7__cxx1112regex_traitsIcEEEESaIS5_EE16_M_push_back_auxIJRKS5_EEEvDpOT_
FN:530,_ZNSt5dequeIlSaIlEE15_M_pop_back_auxEv
FN:530,_ZNSt5dequeINSt8__detail9_StateSeqINSt7__cxx1112regex_traitsIcEEEESaIS5_EE15_M_pop_back_auxEv
FN:901,_ZNSt5dequeIlSaIlEE17_M_reallocate_mapEmb
FN:901,_ZNSt5dequeINSt8__detail9_StateSeqINSt7__cxx1112regex_traitsIcEEEESaIS5_EE17_M_reallocate_mapEmb
FNDA:968,_ZNSt5dequeINSt8__detail9_StateSeqINSt7__cxx1112regex_traitsIcEEEESaIS5_EE12emplace_backIJS5_EEEvDpOT_
FNDA:0,_ZNSt5dequeIlSaIlEE16_M_push_back_auxIJRKlEEEvDpOT_
FNDA:0,_ZNSt5dequeINSt8__detail9_StateSeqINSt7__cxx1112regex_traitsIcEEEESaIS5_EE16_M_push_back_auxIJS5_EEEvDpOT_
FNDA:0,_ZNSt5dequeINSt8__detail9_StateSeqINSt7__cxx1112regex_traitsIcEEEESaIS5_EE16_M_push_back_auxIJRKS5_EEEvDpOT_
FNDA:0,_ZNSt5dequeIlSaIlEE15_M_pop_back_auxEv
FNDA:0,_ZNSt5dequeINSt8__detail9_StateSeqINSt7__cxx1112regex_traitsIcEEEESaIS5_EE15_M_pop_back_auxEv
FNDA:0,_ZNSt5dequeIlSaIlEE17_M_reallocate_mapEmb
FNDA:0,_ZNSt5dequeINSt8__detail9_StateSeqINSt7__cxx1112regex_traitsIcEEEESaIS5_EE17_M_reallocate_mapEmb
FNF:8
FNH:1
DA:149,968
DA:152,968
DA:153,968
DA:155,968
DA:157,968
DA:158,968
DA:161,0
DA:162,968
DA:462,0
DA:470,0
DA:471,0
DA:475,0
DA:477,0
DA:481,0
DA:482,0
DA:483,0
DA:485,0
DA:487,0
DA:488,0
DA:490,0
DA:530,0
DA:533,0
DA:534,0
DA:535,0
DA:536,0
DA:538,0
DA:901,0
DA:905,0
DA:906,0
DA:909,0
DA:911,0
DA:912,0
DA:913,0
DA:914,0
DA:915,0
DA:916,0
DA:919,0
DA:920,0
DA:926,0
DA:927,0
DA:929,0
DA:930,0
DA:931,0
DA:932,0
DA:933,0
DA:935,0
DA:937,0
DA:938,0
DA:941,0
DA:942,0
DA:943,0
LF:51
LH:7
end_of_record
SF:/usr/include/c++/5/bits/ios_base.h
FN:83,_ZStanSt13_Ios_FmtflagsS_
FN:87,_ZStorSt13_Ios_FmtflagsS_
FN:95,_ZStcoSt13_Ios_Fmtflags
FN:99,_ZStoRRSt13_Ios_FmtflagsS_
FN:103,_ZStaNRSt13_Ios_FmtflagsS_
FN:129,_ZStorSt13_Ios_OpenmodeS_
FN:646,_ZNSt8ios_base4setfESt13_Ios_Fmtflags
FN:663,_ZNSt8ios_base4setfESt13_Ios_FmtflagsS0_
FN:958,_ZSt9uppercaseRSt8ios_base
FN:999,_ZSt4leftRSt8ios_base
FN:1024,_ZSt3hexRSt8ios_base
FN:1032,_ZSt3octRSt8ios_base
FN:1041,_ZSt5fixedRSt8ios_base
FNDA:11022,_ZStanSt13_Ios_FmtflagsS_
FNDA:5511,_ZStorSt13_Ios_FmtflagsS_
FNDA:5511,_ZStcoSt13_Ios_Fmtflags
FNDA:5511,_ZStoRRSt13_Ios_FmtflagsS_
FNDA:5511,_ZStaNRSt13_Ios_FmtflagsS_
FNDA:7014,_ZStorSt13_Ios_OpenmodeS_
FNDA:0,_ZNSt8ios_base4setfESt13_Ios_Fmtflags
FNDA:5511,_ZNSt8ios_base4setfESt13_Ios_FmtflagsS0_
FNDA:0,_ZSt9uppercaseRSt8ios_base
FNDA:0,_ZSt4leftRSt8ios_base
FNDA:0,_ZSt3hexRSt8ios_base
FNDA:0,_ZSt3octRSt8ios_base
FNDA:5511,_ZSt5fixedRSt8ios_base
FNF:13
FNH:8
DA:83,11022
DA:84,11022
DA:87,5511
DA:88,5511
DA:95,5511
DA:96,5511
DA:99,5511
DA:100,5511
DA:103,5511
DA:104,5511
DA:129,7014
DA:130,7014
DA:646,0
DA:648,0
DA:649,0
DA:650,0
DA:663,5511
DA:665,5511
DA:666,5511
DA:667,5511
DA:668,5511
DA:958,0
DA:960,0
DA:961,0
DA:999,0
DA:1001,0
DA:1002,0
DA:1024,0
DA:1026,0
DA:1027,0
DA:1032,0
DA:1034,0
DA:1035,0
DA:1041,5511
DA:1043,5511
DA:1044,5511
LF:36
LH:20
end_of_record
SF:/usr/include/c++/5/bits/locale_classes.tcc
FN:132,_ZSt9use_facetIKSt5ctypeIcEERKT_RKSt6locale
FNDA:2,_ZSt9use_facetIKSt5ctypeIcEERKT_RKSt6locale
FNF:1
FNH:1
DA:132,2
DA:134,2
DA:135,2
DA:136,2
DA:137,0
DA:139,2
LF:6
LH:5
end_of_record
SF:/usr/include/c++/5/bits/locale_facets.h
FN:835,_ZNKSt5ctypeIcE7tolowerEc
FN:852,_ZNKSt5ctypeIcE7tolowerEPcPKc
FN:872,_ZNKSt5ctypeIcE5widenEc
FN:930,_ZNKSt5ctypeIcE6narrowEcc
FNDA:0,_ZNKSt5ctypeIcE7tolowerEc
FNDA:23970,_ZNKSt5ctypeIcE7tolowerEPcPKc
FNDA:0,_ZNKSt5ctypeIcE5widenEc
FNDA:1458,_ZNKSt5ctypeIcE6narrowEcc
FNF:4
FNH:2
DA:835,0
DA:836,0
DA:852,23970
DA:853,23970
DA:872,0
DA:874,0
DA:875,0
DA:876,0
DA:877,0
DA:930,1458
DA:932,1458
DA:933,1308
DA:934,150
DA:935,150
DA:936,50
DA:937,150
LF:16
LH:9
end_of_record
SF:/usr/include/c++/5/bits/move.h
FN:47,_ZSt11__addressofIKNSt8__detail11_AnyMatcherINSt7__cxx1112regex_traitsIcEELb1ELb0ELb1EEEEPT_RS7_
FN:47,_ZSt11__addressofIN5Catch8TestCaseEEPT_RS2_
FN:47,_ZSt11__addressofINSt7__cxx1112basic_stringIcSt11char_traitsIcESaIcEEEEPT_RS6_
FN:47,_ZSt11__addressofIN5Catch3PtrINS0_18IStreamingReporterEEEEPT_RS4_
FN:47,_ZSt11__addressofIN5Catch5Clara11CommandLineINS0_10ConfigDataEE3ArgEEPT_RS6_
FN:47,_ZSt11__addressofINSt7__cxx119sub_matchIN9__gnu_cxx17__normal_iteratorIPKcNS0_12basic_stringIcSt11char_traitsIcESaIcEEEEEEEEPT_RSD_
FN:47,_ZSt11__addressofIN5Catch3PtrINS0_22CumulativeReporterBase4NodeINS0_12TestRunStatsENS3_INS0_14TestGroupStatsENS3_INS0_13TestCaseStatsENS2_11SectionNodeEEEEEEEEEEPT_RSC_
FN:47,_ZSt11__addressofIKcEPT_RS1_
FN:47,_ZSt11__addressofIKNSt8__detail12_CharMatcherINSt7__cxx1112regex_traitsIcEELb0ELb1EEEEPT_RS7_
FN:47,_ZSt11__addressofIN5Catch11SectionInfoEEPT_RS2_
FN:47,_ZSt11__addressofIN5Catch3PtrINS0_16IReporterFactoryEEEEPT_RS4_
FN:47,_ZSt11__addressofIKNSt8__detail11_AnyMatcherINSt7__cxx1112regex_traitsIcEELb0ELb1ELb0EEEEPT_RS7_
FN:47,_ZSt11__addressofIN5Catch8TestSpec6FilterEEPT_RS3_
FN:47,_ZSt11__addressofIN5Catch15ConsoleReporter13SummaryColumnEEPT_RS3_
FN:47,_ZSt11__addressofISt4pairIccEEPT_RS2_
FN:47,_ZSt11__addressofIKNSt8__detail11_AnyMatcherINSt7__cxx1112regex_traitsIcEELb1ELb1ELb1EEEEPT_RS7_
FN:47,_ZSt11__addressofIN5Catch14AssertionStatsEEPT_RS2_
FN:47,_ZSt11__addressofIN5Catch5Clara6Parser5TokenEEPT_RS4_
FN:47,_ZSt11__addressofIN5Catch11MessageInfoEEPT_RS2_
FN:47,_ZSt11__addressofIKNSt8__detail12_CharMatcherINSt7__cxx1112regex_traitsIcEELb1ELb0EEEEPT_RS7_
FN:47,_ZSt11__addressofIKNSt8__detail12_CharMatcherINSt7__cxx1112regex_traitsIcEELb1ELb1EEEEPT_RS7_
FN:47,_ZSt11__addressofIKNSt8__detail11_AnyMatcherINSt7__cxx1112regex_traitsIcEELb1ELb0ELb0EEEEPT_RS7_
FN:47,_ZSt11__addressofINSt8__detail6_StateINSt7__cxx1112regex_traitsIcEEEEEPT_RS6_
FN:47,_ZSt11__addressofIN5Catch3PtrINS0_8TestSpec7PatternEEEEPT_RS5_
FN:47,_ZSt11__addressofIKNSt8__detail11_AnyMatcherINSt7__cxx1112regex_traitsIcEELb0ELb0ELb0EEEEPT_RS7_
FN:47,_ZSt11__addressofISt4pairIlSt6vectorINSt7__cxx119sub_matchIN9__gnu_cxx17__normal_iteratorIPKcNS2_12basic_stringIcSt11char_traitsIcESaIcEEEEEEESaISE_EEEEPT_RSI_
FN:47,_ZSt11__addressofISt4pairIN9__gnu_cxx17__normal_iteratorIPKcNSt7__cxx1112basic_stringIcSt11char_traitsIcESaIcEEEEEiEEPT_RSD_
FN:47,_ZSt11__addressofIN5Catch3PtrINS0_22CumulativeReporterBase4NodeINS0_13TestCaseStatsENS2_11SectionNodeEEEEEEPT_RS8_
FN:47,_ZSt11__addressofI3JobEPT_RS1_
FN:47,_ZSt11__addressofIN5Catch3PtrINS0_16TestCaseTracking8ITrackerEEEEPT_RS5_
FN:47,_ZSt11__addressofIKNSt8__detail11_AnyMatcherINSt7__cxx1112regex_traitsIcEELb1ELb1ELb0EEEEPT_RS7_
FN:47,_ZSt11__addressofIN5Catch3PtrINS0_22CumulativeReporterBase11SectionNodeEEEEPT_RS5_
FN:47,_ZSt11__addressofISt4pairINSt7__cxx1112basic_stringIcSt11char_traitsIcESaIcEEES6_EEPT_RS8_
FN:47,_ZSt11__addressofIKNSt8__detail11_AnyMatcherINSt7__cxx1112regex_traitsIcEELb0ELb1ELb1EEEEPT_RS7_
FN:47,_ZSt11__addressofINSt7__cxx1112regex_traitsIcE10_RegexMaskEEPT_RS4_
FN:47,_ZSt11__addressofIN5Catch3PtrINS0_22CumulativeReporterBase4NodeINS0_14TestGroupStatsENS3_INS0_13TestCaseStatsENS2_11SectionNodeEEEEEEEEPT_RSA_
FN:47,_ZSt11__addressofIN5Catch14SectionEndInfoEEPT_RS2_
FN:47,_ZSt11__addressofIKNSt8__detail12_CharMatcherINSt7__cxx1112regex_traitsIcEELb0ELb0EEEEPT_RS7_
FN:47,_ZSt11__addressofISt6vectorIN5Catch3PtrINS1_22CumulativeReporterBase11SectionNodeEEESaIS5_EEEPT_RS8_
FN:47,_ZSt11__addressofIKNSt8__detail11_AnyMatcherINSt7__cxx1112regex_traitsIcEELb0ELb0ELb1EEEEPT_RS7_
FN:76,_ZSt7forwardISt4pairINSt7__cxx1112basic_stringIcSt11char_traitsIcESaIcEEEPN5Catch14IGeneratorInfoEEEOT_RNSt16remove_referenceISB_E4typeE
FN:76,_ZSt7forwardIPN5Catch14IGeneratorInfoEEOT_RNSt16remove_referenceIS3_E4typeE
FN:76,_ZSt7forwardIRKN5Catch3PtrINS0_16TestCaseTracking8ITrackerEEEEOT_RNSt16remove_referenceIS7_E4typeE
FN:76,_ZSt7forwardIN5Catch8TestSpec6FilterEEOT_RNSt16remove_referenceIS3_E4typeE
FN:76,_ZSt7forwardISt4pairINSt7__cxx1112basic_stringIcSt11char_traitsIcESaIcEEEN5Catch8TagAliasEEEOT_RNSt16remove_referenceISA_E4typeE
FN:76,_ZSt7forwardIRKNSt7__cxx1112basic_stringIcSt11char_traitsIcESaIcEEEEOT_RNSt16remove_referenceIS8_E4typeE
FN:76,_ZSt7forwardIRPKN5Catch7IStreamEEOT_RNSt16remove_referenceIS5_E4typeE
FN:76,_ZSt7forwardIRNSt8__detail6_StateINSt7__cxx1112regex_traitsIcEEEEEOT_RNSt16remove_referenceIS7_E4typeE
FN:76,_ZSt7forwardISt4pairINSt7__cxx1112basic_stringIcSt11char_traitsIcESaIcEEEN5Catch7TagInfoEEEOT_RNSt16remove_referenceISA_E4typeE
FN:76,_ZSt7forwardISt14default_deleteIA_bEEOT_RNSt16remove_referenceIS3_E4typeE
FN:76,_ZSt7forwardINSt8__detail6_StateINSt7__cxx1112regex_traitsIcEEEEEOT_RNSt16remove_referenceIS6_E4typeE
FN:76,_ZSt7forwardIRN5Catch3PtrINS0_16IReporterFactoryEEEEOT_RNSt16remove_referenceIS5_E4typeE
FN:76,_ZSt7forwardIRKmEOT_RNSt16remove_referenceIS2_E4typeE
FN:76,_ZSt7forwardISt4pairINSt7__cxx1112basic_stringIcSt11char_traitsIcESaIcEEES6_EEOT_RNSt16remove_referenceIS8_E4typeE
FN:76,_ZSt7forwardIRKNSt7__cxx1112regex_traitsIcE10_RegexMaskEEOT_RNSt16remove_referenceIS6_E4typeE
FN:76,_ZSt7forwardIN5Catch8TagAliasEEOT_RNSt16remove_referenceIS2_E4typeE
FN:76,_ZSt7forwardIRKSt21piecewise_construct_tEOT_RNSt16remove_referenceIS3_E4typeE
FN:76,_ZSt7forwardIRKN5Catch8TestCaseEEOT_RNSt16remove_referenceIS4_E4typeE
FN:76,_ZSt7forwardIPN5Catch16TestCaseTracking8ITrackerEEOT_RNSt16remove_referenceIS4_E4typeE
FN:76,_ZSt7forwardIRN5Catch3PtrINS0_8TestSpec7PatternEEEEOT_RNSt16remove_referenceIS6_E4typeE
FN:76,_ZSt7forwardIN5Catch5Clara6Parser5TokenEEOT_RNSt16remove_referenceIS4_E4typeE
FN:76,_ZSt7forwardIRPbEOT_RNSt16remove_referenceIS2_E4typeE
FN:76,_ZSt7forwardISt4pairINSt7__cxx1112basic_stringIcSt11char_traitsIcESaIcEEEPN5Catch18IGeneratorsForTestEEEOT_RNSt16remove_referenceISB_E4typeE
FN:76,_ZSt7forwardIN5Catch14SectionEndInfoEEOT_RNSt16remove_referenceIS2_E4typeE
FN:76,_ZSt7forwardINSt7__cxx1112regex_traitsIcE10_RegexMaskEEOT_RNSt16remove_referenceIS4_E4typeE
FN:76,_ZSt7forwardIRPSt13_Rb_tree_nodeISt4pairIKNSt7__cxx1112basic_stringIcSt11char_traitsIcESaIcEEEN5Catch3PtrINS9_16IReporterFactoryEEEEEEOT_RNSt16remove_referenceISH_E4typeE
FN:76,_ZSt7forwardIRKNSt7__cxx119sub_matchIN9__gnu_cxx17__normal_iteratorIPKcNS0_12basic_stringIcSt11char_traitsIcESaIcEEEEEEEEOT_RNSt16remove_referenceISF_E4typeE
FN:76,_ZSt7forwardIRPSt13_Rb_tree_nodeINSt7__cxx1112basic_stringIcSt11char_traitsIcESaIcEEEEEOT_RNSt16remove_referenceISA_E4typeE
FN:76,_ZSt7forwardIN5Catch11SectionInfoEEOT_RNSt16remove_referenceIS2_E4typeE
FN:76,_ZSt7forwardISt5tupleIJEEEOT_RNSt16remove_referenceIS2_E4typeE
FN:76,_ZSt7forwardIRKN5Catch3PtrINS0_8TestSpec7PatternEEEEOT_RNSt16remove_referenceIS7_E4typeE
FN:76,_ZSt7forwardIRN5Catch3PtrINS0_22CumulativeReporterBase11SectionNodeEEEEOT_RNSt16remove_referenceIS6_E4typeE
FN:76,_ZSt7forwardISt17_Rb_tree_iteratorINSt7__cxx1112basic_stringIcSt11char_traitsIcESaIcEEEEEOT_RNSt16remove_referenceIS8_E4typeE
FN:76,_ZSt7forwardIRKN5Catch14SectionEndInfoEEOT_RNSt16remove_referenceIS4_E4typeE
FN:76,_ZSt7forwardIRN5Catch8TestCaseEEOT_RNSt16remove_referenceIS3_E4typeE
FN:76,_ZSt7forwardINSt8__detail9_StateSeqINSt7__cxx1112regex_traitsIcEEEEEOT_RNSt16remove_referenceIS6_E4typeE
FN:76,_ZSt7forwardIRKN5Catch8TestSpec6FilterEEOT_RNSt16remove_referenceIS5_E4typeE
FN:76,_ZSt7forwardISt14default_deleteIKN5Catch7IStreamEEEOT_RNSt16remove_referenceIS5_E4typeE
FN:76,_ZSt7forwardIRPSt18_Rb_tree_node_baseEOT_RNSt16remove_referenceIS3_E4typeE
FN:76,_ZSt7forwardIN5Catch15ConsoleReporter13SummaryColumnEEOT_RNSt16remove_referenceIS3_E4typeE
FN:76,_ZSt7forwardIbEOT_RNSt16remove_referenceIS0_E4typeE
FN:76,_ZSt7forwardIRKlEOT_RNSt16remove_referenceIS2_E4typeE
FN:76,_ZSt7forwardISt17_Rb_tree_iteratorISt4pairIKNSt7__cxx1112basic_stringIcSt11char_traitsIcESaIcEEEN5Catch3PtrINS9_16IReporterFactoryEEEEEEOT_RNSt16remove_referenceISF_E4typeE
FN:76,_ZSt7forwardISt14default_deleteIN5Catch13StreamBufBaseEEEOT_RNSt16remove_referenceIS4_E4typeE
FN:76,_ZSt7forwardIRN5Catch3PtrINS0_22CumulativeReporterBase4NodeINS0_14TestGroupStatsENS3_INS0_13TestCaseStatsENS2_11SectionNodeEEEEEEEEOT_RNSt16remove_referenceISB_E4typeE
FN:76,_ZSt7forwardIPN5Catch18IGeneratorsForTestEEOT_RNSt16remove_referenceIS3_E4typeE
FN:76,_ZSt7forwardIRNSt7__cxx1112basic_stringIcSt11char_traitsIcESaIcEEEEOT_RNSt16remove_referenceIS7_E4typeE
FN:76,_ZSt7forwardIRKN5Catch14AssertionStatsEEOT_RNSt16remove_referenceIS4_E4typeE
FN:76,_ZSt7forwardIRKN5Catch3PtrINS0_22CumulativeReporterBase11SectionNodeEEEEOT_RNSt16remove_referenceIS7_E4typeE
FN:76,_ZSt7forwardIRKPKN5Catch20IExceptionTranslatorEEOT_RNSt16remove_referenceIS6_E4typeE
FN:76,_ZSt7forwardIRNSt15regex_constants18syntax_option_typeEEOT_RNSt16remove_referenceIS3_E4typeE
FN:76,_ZSt7forwardISt5tupleIJRKlEEEOT_RNSt16remove_referenceIS4_E4typeE
FN:76,_ZSt7forwardIRN5Catch3PtrINS0_16TestCaseTracking8ITrackerEEEEOT_RNSt16remove_referenceIS6_E4typeE
FN:76,_ZSt7forwardISt17_Rb_tree_iteratorIN5Catch8TestCaseEEEOT_RNSt16remove_referenceIS4_E4typeE
FN:76,_ZSt7forwardIRN5Catch3PtrINS0_22CumulativeReporterBase4NodeINS0_13TestCaseStatsENS2_11SectionNodeEEEEEEOT_RNSt16remove_referenceIS9_E4typeE
FN:76,_ZSt7forwardIRPSt13_Rb_tree_nodeISt4pairIKNSt7__cxx1112basic_stringIcSt11char_traitsIcESaIcEEEN5Catch8TagAliasEEEEOT_RNSt16remove_referenceISF_E4typeE
FN:76,_ZSt7forwardIRKPN5Catch14IGeneratorInfoEEOT_RNSt16remove_referenceIS5_E4typeE
FN:76,_ZSt7forwardISt17_Rb_tree_iteratorISt4pairIKNSt7__cxx1112basic_stringIcSt11char_traitsIcESaIcEEEPN5Catch18IGeneratorsForTestEEEEOT_RNSt16remove_referenceISE_E4typeE
FN:76,_ZSt7forwardIRKN5Catch5Clara6Parser5TokenEEOT_RNSt16remove_referenceIS6_E4typeE
FN:76,_ZSt7forwardIRKN5Catch3PtrINS0_18IStreamingReporterEEEEOT_RNSt16remove_referenceIS6_E4typeE
FN:76,_ZSt7forwardIRN5Catch5Clara11CommandLineINS0_10ConfigDataEE3ArgEEOT_RNSt16remove_referenceIS7_E4typeE
FN:76,_ZSt7forwardISt17_Rb_tree_iteratorISt4pairIKNSt7__cxx1112basic_stringIcSt11char_traitsIcESaIcEEEN5Catch7TagInfoEEEEOT_RNSt16remove_referenceISD_E4typeE
FN:76,_ZSt7forwardIRKSt4pairIccEEOT_RNSt16remove_referenceIS4_E4typeE
FN:76,_ZSt7forwardIRKN5Catch3PtrINS0_16IReporterFactoryEEEEOT_RNSt16remove_referenceIS6_E4typeE
FN:76,_ZSt7forwardIRK3JobEOT_RNSt16remove_referenceIS3_E4typeE
FN:76,_ZSt7forwardIRKSt6vectorINSt7__cxx119sub_matchIN9__gnu_cxx17__normal_iteratorIPKcNS1_12basic_stringIcSt11char_traitsIcESaIcEEEEEEESaISD_EEEOT_RNSt16remove_referenceISI_E4typeE
FN:76,_ZSt7forwardIRPSt13_Rb_tree_nodeIN5Catch8TestCaseEEEOT_RNSt16remove_referenceIS6_E4typeE
FN:76,_ZSt7forwardIRKN5Catch3PtrINS0_22CumulativeReporterBase4NodeINS0_13TestCaseStatsENS2_11SectionNodeEEEEEEOT_RNSt16remove_referenceISA_E4typeE
FN:76,_ZSt7forwardINSt7__cxx1112basic_stringIcSt11char_traitsIcESaIcEEEEOT_RNSt16remove_referenceIS6_E4typeE
FN:76,_ZSt7forwardIcEOT_RNSt16remove_referenceIS0_E4typeE
FN:76,_ZSt7forwardIRPSt13_Rb_tree_nodeISt4pairIKNSt7__cxx1112basic_stringIcSt11char_traitsIcESaIcEEEPN5Catch18IGeneratorsForTestEEEEOT_RNSt16remove_referenceISG_E4typeE
FN:76,_ZSt7forwardISt4pairIlSt6vectorINSt7__cxx119sub_matchIN9__gnu_cxx17__normal_iteratorIPKcNS2_12basic_stringIcSt11char_traitsIcESaIcEEEEEEESaISE_EEEEOT_RNSt16remove_referenceISI_E4typeE
FN:76,_ZSt7forwardIRPN5Catch13StreamBufBaseEEOT_RNSt16remove_referenceIS4_E4typeE
FN:76,_ZSt7forwardIRKN5Catch11SectionInfoEEOT_RNSt16remove_referenceIS4_E4typeE
FN:76,_ZSt7forwardIRKSt4pairINSt7__cxx1112basic_stringIcSt11char_traitsIcESaIcEEES6_EEOT_RNSt16remove_referenceISA_E4typeE
FN:76,_ZSt7forwardIRPSt13_Rb_tree_nodeISt4pairIKNSt7__cxx1112basic_stringIcSt11char_traitsIcESaIcEEEN5Catch7TagInfoEEEEOT_RNSt16remove_referenceISF_E4typeE
FN:76,_ZSt7forwardIN5Catch7TagInfoEEOT_RNSt16remove_referenceIS2_E4typeE
FN:76,_ZSt7forwardIN5Catch14AssertionStatsEEOT_RNSt16remove_referenceIS2_E4typeE
FN:76,_ZSt7forwardISt4pairINSt7__cxx1112basic_stringIcSt11char_traitsIcESaIcEEEN5Catch3PtrINS7_16IReporterFactoryEEEEEOT_RNSt16remove_referenceISC_E4typeE
FN:76,_ZSt7forwardISt17_Rb_tree_iteratorISt4pairIKNSt7__cxx1112basic_stringIcSt11char_traitsIcESaIcEEEPN5Catch14IGeneratorInfoEEEEOT_RNSt16remove_referenceISE_E4typeE
FN:76,_ZSt7forwardINSt7__cxx119sub_matchIN9__gnu_cxx17__normal_iteratorIPKcNS0_12basic_stringIcSt11char_traitsIcESaIcEEEEEEEEOT_RNSt16remove_referenceISD_E4typeE
FN:76,_ZSt7forwardIRN5Catch3PtrINS0_22CumulativeReporterBase4NodeINS0_12TestRunStatsENS3_INS0_14TestGroupStatsENS3_INS0_13TestCaseStatsENS2_11SectionNodeEEEEEEEEEEOT_RNSt16remove_referenceISD_E4typeE
FN:76,_ZSt7forwardIRSt17_Rb_tree_iteratorINSt7__cxx1112basic_stringIcSt11char_traitsIcESaIcEEEEEOT_RNSt16remove_referenceIS9_E4typeE
FN:76,_ZSt7forwardIRPSt13_Rb_tree_nodeISt4pairIKNSt7__cxx1112basic_stringIcSt11char_traitsIcESaIcEEEPN5Catch14IGeneratorInfoEEEEOT_RNSt16remove_referenceISG_E4typeE
FN:76,_ZSt7forwardIRPN5Catch18IGeneratorsForTestEEOT_RNSt16remove_referenceIS4_E4typeE
FN:76,_ZSt7forwardIN5Catch11MessageInfoEEOT_RNSt16remove_referenceIS2_E4typeE
FN:76,_ZSt7forwardIRPSt13_Rb_tree_nodeISt4pairIKllEEEOT_RNSt16remove_referenceIS7_E4typeE
FN:76,_ZSt7forwardISt4pairIccEEOT_RNSt16remove_referenceIS2_E4typeE
FN:76,_ZSt7forwardIRlEOT_RNSt16remove_referenceIS1_E4typeE
FN:76,_ZSt7forwardIRN5Catch3PtrINS0_18IStreamingReporterEEEEOT_RNSt16remove_referenceIS5_E4typeE
FN:76,_ZSt7forwardIRbEOT_RNSt16remove_referenceIS1_E4typeE
FN:76,_ZSt7forwardIRKN5Catch3PtrINS0_22CumulativeReporterBase4NodeINS0_14TestGroupStatsENS3_INS0_13TestCaseStatsENS2_11SectionNodeEEEEEEEEOT_RNSt16remove_referenceISC_E4typeE
FN:76,_ZSt7forwardIRKN5Catch11MessageInfoEEOT_RNSt16remove_referenceIS4_E4typeE
FN:76,_ZSt7forwardIRPN5Catch14IGeneratorInfoEEOT_RNSt16remove_referenceIS4_E4typeE
FN:76,_ZSt7forwardIN5Catch3PtrINS0_16IReporterFactoryEEEEOT_RNSt16remove_referenceIS4_E4typeE
FN:76,_ZSt7forwardIRKN5Catch3PtrINS0_22CumulativeReporterBase4NodeINS0_12TestRunStatsENS3_INS0_14TestGroupStatsENS3_INS0_13TestCaseStatsENS2_11SectionNodeEEEEEEEEEEOT_RNSt16remove_referenceISE_E4typeE
FN:76,_ZSt7forwardIRKNSt8__detail9_StateSeqINSt7__cxx1112regex_traitsIcEEEEEOT_RNSt16remove_referenceIS8_E4typeE
FN:76,_ZSt7forwardIRSt17_Rb_tree_iteratorIN5Catch8TestCaseEEEOT_RNSt16remove_referenceIS5_E4typeE
FN:76,_ZSt7forwardIN5Catch5Clara11CommandLineINS0_10ConfigDataEE3ArgEEOT_RNSt16remove_referenceIS6_E4typeE
FN:76,_ZSt7forwardIRKSt6localeEOT_RNSt16remove_referenceIS3_E4typeE
FN:76,_ZSt7forwardIRNSt7__cxx119sub_matchIN9__gnu_cxx17__normal_iteratorIPKcNS0_12basic_stringIcSt11char_traitsIcESaIcEEEEEEEEOT_RNSt16remove_referenceISE_E4typeE
FN:76,_ZSt7forwardISt17_Rb_tree_iteratorISt4pairIKNSt7__cxx1112basic_stringIcSt11char_traitsIcESaIcEEEN5Catch8TagAliasEEEEOT_RNSt16remove_referenceISD_E4typeE
FN:101,_ZSt4moveIRSt5dequeINSt8__detail9_StateSeqINSt7__cxx1112regex_traitsIcEEEESaIS6_EEEONSt16remove_referenceIT_E4typeEOSB_
FN:101,_ZSt4moveIRNSt7__cxx1112basic_stringIcSt11char_traitsIcESaIcEEEEONSt16remove_referenceIT_E4typeEOS8_
FN:101,_ZSt4moveIRPN5Catch3PtrINS0_8TestSpec7PatternEEEEONSt16remove_referenceIT_E4typeEOS8_
FN:101,_ZSt4moveIRSaIN5Catch8TestCaseEEEONSt16remove_referenceIT_E4typeEOS5_
FN:101,_ZSt4moveIRSaINSt7__cxx119sub_matchIN9__gnu_cxx17__normal_iteratorIPKcNS0_12basic_stringIcSt11char_traitsIcESaIcEEEEEEEEEONSt16remove_referenceIT_E4typeEOSG_
FN:101,_ZSt4moveIRSt5dequeIlSaIlEEEONSt16remove_referenceIT_E4typeEOS5_
FN:101,_ZSt4moveIRlEONSt16remove_referenceIT_E4typeEOS2_
FN:101,_ZSt4moveIRNSt8__detail12_CharMatcherINSt7__cxx1112regex_traitsIcEELb1ELb1EEEEONSt16remove_referenceIT_E4typeEOS8_
FN:101,_ZSt4moveIRNSt8__detail11_AnyMatcherINSt7__cxx1112regex_traitsIcEELb0ELb0ELb0EEEEONSt16remove_referenceIT_E4typeEOS8_
FN:101,_ZSt4moveIRSaIcEEONSt16remove_referenceIT_E4typeEOS3_
FN:101,_ZSt4moveIRNSt8__detail11_AnyMatcherINSt7__cxx1112regex_traitsIcEELb0ELb1ELb1EEEEONSt16remove_referenceIT_E4typeEOS8_
FN:101,_ZSt4moveIRSt6vectorIN5Catch5Clara6Parser5TokenESaIS4_EEEONSt16remove_referenceIT_E4typeEOS9_
FN:101,_ZSt4moveIRPN5Catch22CumulativeReporterBase11SectionNodeEEONSt16remove_referenceIT_E4typeEOS6_
FN:101,_ZSt4moveIRN5Catch8TestCaseEEONSt16remove_referenceIT_E4typeEOS4_
FN:101,_ZSt4moveIRPKN5Catch7IConfigEEONSt16remove_referenceIT_E4typeEOS6_
FN:101,_ZSt4moveIRNSt8__detail12_CharMatcherINSt7__cxx1112regex_traitsIcEELb0ELb1EEEEONSt16remove_referenceIT_E4typeEOS8_
FN:101,_ZSt4moveIRNSt8__detail15_BracketMatcherINSt7__cxx1112regex_traitsIcEELb1ELb0EEEEONSt16remove_referenceIT_E4typeEOS8_
FN:101,_ZSt4moveIRPN5Catch8TestSpec6FilterEEONSt16remove_referenceIT_E4typeEOS6_
FN:101,_ZSt4moveIRSaINSt7__cxx1112basic_stringIcSt11char_traitsIcESaIcEEEEEONSt16remove_referenceIT_E4typeEOS9_
FN:101,_ZSt4moveIRNSt8__detail11_AnyMatcherINSt7__cxx1112regex_traitsIcEELb0ELb0ELb1EEEEONSt16remove_referenceIT_E4typeEOS8_
FN:101,_ZSt4moveIRN5Catch5Clara6Parser5TokenEEONSt16remove_referenceIT_E4typeEOS6_
FN:101,_ZSt4moveIRNSt8__detail15_BracketMatcherINSt7__cxx1112regex_traitsIcEELb1ELb1EEEEONSt16remove_referenceIT_E4typeEOS8_
FN:101,_ZSt4moveIRSaISt13_Rb_tree_nodeINSt7__cxx1112basic_stringIcSt11char_traitsIcESaIcEEEEEEONSt16remove_referenceIT_E4typeEOSB_
FN:101,_ZSt4moveIRSt6vectorISt4pairIccESaIS2_EEEONSt16remove_referenceIT_E4typeEOS7_
FN:101,_ZSt4moveIRNSt8__detail11_AnyMatcherINSt7__cxx1112regex_traitsIcEELb1ELb1ELb1EEEEONSt16remove_referenceIT_E4typeEOS8_
FN:101,_ZSt4moveIRSt15_Deque_iteratorIlRlPlEEONSt16remove_referenceIT_E4typeEOS6_
FN:101,_ZSt4moveIRNSt8__detail11_AnyMatcherINSt7__cxx1112regex_traitsIcEELb1ELb0ELb1EEEEONSt16remove_referenceIT_E4typeEOS8_
FN:101,_ZSt4moveIRSt4lessINSt7__cxx1112basic_stringIcSt11char_traitsIcESaIcEEEEEONSt16remove_referenceIT_E4typeEOSA_
FN:101,_ZSt4moveIRPNSt7__cxx119sub_matchIN9__gnu_cxx17__normal_iteratorIPKcNS0_12basic_stringIcSt11char_traitsIcESaIcEEEEEEEEONSt16remove_referenceIT_E4typeEOSG_
FN:101,_ZSt4moveIRPN5Catch5Clara6Parser5TokenEEONSt16remove_referenceIT_E4typeEOS7_
FN:101,_ZSt4moveIRPN5Catch9ITestCaseEEONSt16remove_referenceIT_E4typeEOS5_
FN:101,_ZSt4moveIRNSt8__detail11_AnyMatcherINSt7__cxx1112regex_traitsIcEELb0ELb1ELb0EEEEONSt16remove_referenceIT_E4typeEOS8_
FN:101,_ZSt4moveIRSt8_Rb_treeINSt7__cxx1112basic_stringIcSt11char_traitsIcESaIcEEES6_St9_IdentityIS6_ESt4lessIS6_ESaIS6_EEEONSt16remove_referenceIT_E4typeEOSF_
FN:101,_ZSt4moveIRNSt8__detail6_StateINSt7__cxx1112regex_traitsIcEEEEEONSt16remove_referenceIT_E4typeEOS8_
FN:101,_ZSt4moveIRSt9_Any_dataEONSt16remove_referenceIT_E4typeEOS3_
FN:101,_ZSt4moveIRN5Catch5Clara11CommandLineINS0_10ConfigDataEE3ArgEEONSt16remove_referenceIT_E4typeEOS8_
FN:101,_ZSt4moveIRSt11_Deque_baseIlSaIlEEEONSt16remove_referenceIT_E4typeEOS5_
FN:101,_ZSt4moveIRSt6localeEONSt16remove_referenceIT_E4typeEOS3_
FN:101,_ZSt4moveIRSaINSt8__detail9_StateSeqINSt7__cxx1112regex_traitsIcEEEEEEONSt16remove_referenceIT_E4typeEOS9_
FN:101,_ZSt4moveIRSt15_Deque_iteratorINSt8__detail9_StateSeqINSt7__cxx1112regex_traitsIcEEEERS6_PS6_EEONSt16remove_referenceIT_E4typeEOSC_
FN:101,_ZSt4moveIRSaIN5Catch5Clara6Parser5TokenEEEONSt16remove_referenceIT_E4typeEOS7_
FN:101,_ZSt4moveIRPN5Catch5Clara11CommandLineINS0_10ConfigDataEE3ArgEEONSt16remove_referenceIT_E4typeEOS9_
FN:101,_ZSt4moveIRcEONSt16remove_referenceIT_E4typeEOS2_
FN:101,_ZSt4moveIRPSt4pairIccEEONSt16remove_referenceIT_E4typeEOS5_
FN:101,_ZSt4moveIRSt6vectorISt4pairIlS0_INSt7__cxx119sub_matchIN9__gnu_cxx17__normal_iteratorIPKcNS2_12basic_stringIcSt11char_traitsIcESaIcEEEEEEESaISE_EEESaISH_EEEONSt16remove_referenceIT_E4typeEOSM_
FN:101,_ZSt4moveIRPFbRKSt9_Any_dataOcEEONSt16remove_referenceIT_E4typeEOS8_
FN:101,_ZSt4moveIRPKcEONSt16remove_referenceIT_E4typeEOS4_
FN:101,_ZSt4moveIRN5Catch14SourceLineInfoEEONSt16remove_referenceIT_E4typeEOS4_
FN:101,_ZSt4moveIRN5Catch12TestCaseInfo17SpecialPropertiesEEONSt16remove_referenceIT_E4typeEOS5_
FN:101,_ZSt4moveIRPN5Catch16TestCaseTracking8ITrackerEEONSt16remove_referenceIT_E4typeEOS6_
FN:101,_ZSt4moveIRSt11_Deque_baseINSt8__detail9_StateSeqINSt7__cxx1112regex_traitsIcEEEESaIS6_EEEONSt16remove_referenceIT_E4typeEOSB_
FN:101,_ZSt4moveIRPN5Catch6ConfigEEONSt16remove_referenceIT_E4typeEOS5_
FN:101,_ZSt4moveIRPcEONSt16remove_referenceIT_E4typeEOS3_
FN:101,_ZSt4moveIRSt6vectorIN5Catch3PtrINS1_8TestSpec7PatternEEESaIS5_EEEONSt16remove_referenceIT_E4typeEOSA_
FN:101,_ZSt4moveIRNSt8__detail11_AnyMatcherINSt7__cxx1112regex_traitsIcEELb1ELb1ELb0EEEEONSt16remove_referenceIT_E4typeEOS8_
FN:101,_ZSt4moveIRSt4pairINSt7__cxx1112basic_stringIcSt11char_traitsIcESaIcEEES6_EEONSt16remove_referenceIT_E4typeEOSA_
FN:101,_ZSt4moveIRSaISt4pairINSt7__cxx1112basic_stringIcSt11char_traitsIcESaIcEEES6_EEEONSt16remove_referenceIT_E4typeEOSB_
FN:101,_ZSt4moveIRPNSt7__cxx1112basic_stringIcSt11char_traitsIcESaIcEEEEONSt16remove_referenceIT_E4typeEOS9_
FN:101,_ZSt4moveIRSt6vectorINSt7__cxx1112regex_traitsIcE10_RegexMaskESaIS4_EEEONSt16remove_referenceIT_E4typeEOS9_
FN:101,_ZSt4moveIRPPNSt8__detail9_StateSeqINSt7__cxx1112regex_traitsIcEEEEEONSt16remove_referenceIT_E4typeEOSA_
FN:101,_ZSt4moveIRNSt8__detail15_BracketMatcherINSt7__cxx1112regex_traitsIcEELb0ELb1EEEEONSt16remove_referenceIT_E4typeEOS8_
FN:101,_ZSt4moveIRPN5Catch3PtrINS0_22CumulativeReporterBase4NodeINS0_14TestGroupStatsENS3_INS0_13TestCaseStatsENS2_11SectionNodeEEEEEEEEONSt16remove_referenceIT_E4typeEOSD_
FN:101,_ZSt4moveIRNSt8__detail15_BracketMatcherINSt7__cxx1112regex_traitsIcEELb0ELb0EEEEONSt16remove_referenceIT_E4typeEOS8_
FN:101,_ZSt4moveIRN5Catch11MessageInfoEEONSt16remove_referenceIT_E4typeEOS4_
FN:101,_ZSt4moveIRSaINSt7__cxx1112regex_traitsIcE10_RegexMaskEEEONSt16remove_referenceIT_E4typeEOS7_
FN:101,_ZSt4moveIRSt6vectorIN5Catch8TestSpec6FilterESaIS3_EEEONSt16remove_referenceIT_E4typeEOS8_
FN:101,_ZSt4moveIRNSt8__detail12_CharMatcherINSt7__cxx1112regex_traitsIcEELb1ELb0EEEEONSt16remove_referenceIT_E4typeEOS8_
FN:101,_ZSt4moveIRPNSt7__cxx1112regex_traitsIcE10_RegexMaskEEONSt16remove_referenceIT_E4typeEOS7_
FN:101,_ZSt4moveIRSt8functionIFbcEEEONSt16remove_referenceIT_E4typeEOS5_
FN:101,_ZSt4moveIRSaIlEEONSt16remove_referenceIT_E4typeEOS3_
FN:101,_ZSt4moveIRPFbRSt9_Any_dataRKS0_St18_Manager_operationEEONSt16remove_referenceIT_E4typeEOS9_
FN:101,_ZSt4moveIRmEONSt16remove_referenceIT_E4typeEOS2_
FN:101,_ZSt4moveIRPN5Catch18IStreamingReporterEEONSt16remove_referenceIT_E4typeEOS5_
FN:101,_ZSt4moveIRSt6vectorINSt7__cxx119sub_matchIN9__gnu_cxx17__normal_iteratorIPKcNS1_12basic_stringIcSt11char_traitsIcESaIcEEEEEEESaISD_EEEONSt16remove_referenceIT_E4typeEOSI_
FN:101,_ZSt4moveIRPSt4pairIlSt6vectorINSt7__cxx119sub_matchIN9__gnu_cxx17__normal_iteratorIPKcNS2_12basic_stringIcSt11char_traitsIcESaIcEEEEEEESaISE_EEEEONSt16remove_referenceIT_E4typeEOSL_
FN:101,_ZSt4moveIRNSt8__detail9_StateSeqINSt7__cxx1112regex_traitsIcEEEEEONSt16remove_referenceIT_E4typeEOS8_
FN:101,_ZSt4moveIRSt6vectorIcSaIcEEEONSt16remove_referenceIT_E4typeEOS5_
FN:101,_ZSt4moveIRSaISt4pairIlSt6vectorINSt7__cxx119sub_matchIN9__gnu_cxx17__normal_iteratorIPKcNS2_12basic_stringIcSt11char_traitsIcESaIcEEEEEEESaISE_EEEEEONSt16remove_referenceIT_E4typeEOSL_
FN:101,_ZSt4moveIRSt6vectorINSt7__cxx1112basic_stringIcSt11char_traitsIcESaIcEEESaIS6_EEEONSt16remove_referenceIT_E4typeEOSB_
FN:101,_ZSt4moveIRPSt18_Rb_tree_node_baseEONSt16remove_referenceIT_E4typeEOS4_
FN:101,_ZSt4moveIRPSt4pairINSt7__cxx1112basic_stringIcSt11char_traitsIcESaIcEEES6_EEONSt16remove_referenceIT_E4typeEOSB_
FN:101,_ZSt4moveIRSt6vectorISt4pairINSt7__cxx1112basic_stringIcSt11char_traitsIcESaIcEEES7_ESaIS8_EEEONSt16remove_referenceIT_E4typeEOSD_
FN:101,_ZSt4moveIRSaIN5Catch11MessageInfoEEEONSt16remove_referenceIT_E4typeEOS5_
FN:101,_ZSt4moveIRSaIN5Catch3PtrINS0_8TestSpec7PatternEEEEEONSt16remove_referenceIT_E4typeEOS8_
FN:101,_ZSt4moveIRNSt8__detail12_CharMatcherINSt7__cxx1112regex_traitsIcEELb0ELb0EEEEONSt16remove_referenceIT_E4typeEOS8_
FN:101,_ZSt4moveIRSt6vectorIN5Catch11MessageInfoESaIS2_EEEONSt16remove_referenceIT_E4typeEOS7_
FN:101,_ZSt4moveIRSt4pairIccEEONSt16remove_referenceIT_E4typeEOS4_
FN:101,_ZSt4moveIRPN5Catch8TestSpec7PatternEEONSt16remove_referenceIT_E4typeEOS6_
FN:101,_ZSt4moveIRPPlEONSt16remove_referenceIT_E4typeEOS4_
FN:101,_ZSt4moveIRN5Catch15ConsoleReporter13SummaryColumnEEONSt16remove_referenceIT_E4typeEOS5_
FN:101,_ZSt4moveIRPN5Catch11MessageInfoEEONSt16remove_referenceIT_E4typeEOS5_
FN:101,_ZSt4moveIRNSt8__detail11_AnyMatcherINSt7__cxx1112regex_traitsIcEELb1ELb0ELb0EEEEONSt16remove_referenceIT_E4typeEOS8_
FN:101,_ZSt4moveIRSaIN5Catch8TestSpec6FilterEEEONSt16remove_referenceIT_E4typeEOS6_
FN:101,_ZSt4moveIRPN5Catch8TestCaseEEONSt16remove_referenceIT_E4typeEOS5_
FN:101,_ZSt4moveIRPN5Catch3PtrINS0_22CumulativeReporterBase4NodeINS0_13TestCaseStatsENS2_11SectionNodeEEEEEEONSt16remove_referenceIT_E4typeEOSB_
FN:101,_ZSt4moveIRSt6vectorIN5Catch8TestCaseESaIS2_EEEONSt16remove_referenceIT_E4typeEOS7_
FN:101,_ZSt4moveIRSaISt4pairIccEEEONSt16remove_referenceIT_E4typeEOS5_
FN:101,_ZSt4moveIRSt10shared_ptrINSt8__detail4_NFAINSt7__cxx1112regex_traitsIcEEEEEEONSt16remove_referenceIT_E4typeEOSA_
FN:101,_ZSt4moveIRKSaINSt8__detail4_NFAINSt7__cxx1112regex_traitsIcEEEEEEONSt16remove_referenceIT_E4typeEOSA_
FN:176,_ZSt4swapIPSt4pairINSt7__cxx1112basic_stringIcSt11char_traitsIcESaIcEEES6_EEvRT_SA_
FN:176,_ZSt4swapISt6localeEvRT_S2_
FN:176,_ZSt4swapIPPNSt8__detail9_StateSeqINSt7__cxx1112regex_traitsIcEEEEEvRT_S9_
FN:176,_ZSt4swapIPN5Catch22CumulativeReporterBase11SectionNodeEEvRT_S5_
FN:176,_ZSt4swapISt4lessINSt7__cxx1112basic_stringIcSt11char_traitsIcESaIcEEEEEvRT_S9_
FN:176,_ZSt4swapIPNSt7__cxx1112regex_traitsIcE10_RegexMaskEEvRT_S6_
FN:176,_ZSt4swapIPN5Catch6ConfigEEvRT_S4_
FN:176,_ZSt4swapIPN5Catch8TestCaseEEvRT_S4_
FN:176,_ZSt4swapIPNSt7__cxx119sub_matchIN9__gnu_cxx17__normal_iteratorIPKcNS0_12basic_stringIcSt11char_traitsIcESaIcEEEEEEEEvRT_SF_
FN:176,_ZSt4swapISt15_Deque_iteratorIlRlPlEEvRT_S5_
FN:176,_ZSt4swapISt9_Any_dataEvRT_S2_
FN:176,_ZSt4swapIN5Catch14SourceLineInfoEEvRT_S3_
FN:176,_ZSt4swapIPN5Catch3PtrINS0_8TestSpec7PatternEEEEvRT_S7_
FN:176,_ZSt4swapIPN5Catch11MessageInfoEEvRT_S4_
FN:176,_ZSt4swapImEvRT_S1_
FN:176,_ZSt4swapIPN5Catch18IStreamingReporterEEvRT_S4_
FN:176,_ZSt4swapIPcEvRT_S2_
FN:176,_ZSt4swapIPNSt7__cxx1112basic_stringIcSt11char_traitsIcESaIcEEEEvRT_S8_
FN:176,_ZSt4swapISt15_Deque_iteratorINSt8__detail9_StateSeqINSt7__cxx1112regex_traitsIcEEEERS6_PS6_EEvRT_SB_
FN:176,_ZSt4swapIPN5Catch5Clara6Parser5TokenEEvRT_S6_
FN:176,_ZSt4swapIPN5Catch8TestSpec6FilterEEvRT_S5_
FN:176,_ZSt4swapIlEvRT_S1_
FN:176,_ZSt4swapIPPlEvRT_S3_
FN:176,_ZSt4swapIPSt18_Rb_tree_node_baseEvRT_S3_
FN:176,_ZSt4swapIPN5Catch3PtrINS0_22CumulativeReporterBase4NodeINS0_13TestCaseStatsENS2_11SectionNodeEEEEEEvRT_SA_
FN:176,_ZSt4swapIPN5Catch3PtrINS0_22CumulativeReporterBase4NodeINS0_14TestGroupStatsENS3_INS0_13TestCaseStatsENS2_11SectionNodeEEEEEEEEvRT_SC_
FN:176,_ZSt4swapIPSt4pairIlSt6vectorINSt7__cxx119sub_matchIN9__gnu_cxx17__normal_iteratorIPKcNS2_12basic_stringIcSt11char_traitsIcESaIcEEEEEEESaISE_EEEEvRT_SK_
FN:176,_ZSt4swapIPSt4pairIccEEvRT_S4_
FN:176,_ZSt4swapIPFbRKSt9_Any_dataOcEEvRT_S7_
FN:176,_ZSt4swapIPN5Catch5Clara11CommandLineINS0_10ConfigDataEE3ArgEEvRT_S8_
FN:176,_ZSt4swapIPN5Catch9ITestCaseEEvRT_S4_
FN:176,_ZSt4swapIPFbRSt9_Any_dataRKS0_St18_Manager_operationEEvRT_S8_
FN:176,_ZSt4swapIPN5Catch16TestCaseTracking8ITrackerEEvRT_S5_
FN:176,_ZSt4swapIN5Catch8TestCaseEEvRT_S3_
FN:176,_ZSt4swapIPKN5Catch7IConfigEEvRT_S5_
FN:176,_ZSt4swapIN5Catch12TestCaseInfo17SpecialPropertiesEEvRT_S4_
FN:176,_ZSt4swapIcEvRT_S1_
FN:176,_ZSt4swapIPN5Catch8TestSpec7PatternEEvRT_S5_
FNDA:130,_ZSt11__addressofISt4pairIccEEPT_RS2_
FNDA:0,_ZSt11__addressofINSt7__cxx1112regex_traitsIcE10_RegexMaskEEPT_RS4_
FNDA:0,_ZSt11__addressofISt4pairINSt7__cxx1112basic_stringIcSt11char_traitsIcESaIcEEES6_EEPT_RS8_
FNDA:0,_ZSt11__addressofIKNSt8__detail12_CharMatcherINSt7__cxx1112regex_traitsIcEELb1ELb1EEEEPT_RS7_
FNDA:0,_ZSt11__addressofIKNSt8__detail12_CharMatcherINSt7__cxx1112regex_traitsIcEELb1ELb0EEEEPT_RS7_
FNDA:0,_ZSt11__addressofIKNSt8__detail12_CharMatcherINSt7__cxx1112regex_traitsIcEELb0ELb1EEEEPT_RS7_
FNDA:1464430,_ZSt11__addressofIKNSt8__detail12_CharMatcherINSt7__cxx1112regex_traitsIcEELb0ELb0EEEEPT_RS7_
FNDA:0,_ZSt11__addressofIKNSt8__detail11_AnyMatcherINSt7__cxx1112regex_traitsIcEELb1ELb1ELb1EEEEPT_RS7_
FNDA:0,_ZSt11__addressofIKNSt8__detail11_AnyMatcherINSt7__cxx1112regex_traitsIcEELb1ELb1ELb0EEEEPT_RS7_
FNDA:0,_ZSt11__addressofIKNSt8__detail11_AnyMatcherINSt7__cxx1112regex_traitsIcEELb1ELb0ELb1EEEEPT_RS7_
FNDA:41411,_ZSt11__addressofIKNSt8__detail11_AnyMatcherINSt7__cxx1112regex_traitsIcEELb1ELb0ELb0EEEEPT_RS7_
FNDA:0,_ZSt11__addressofIKNSt8__detail11_AnyMatcherINSt7__cxx1112regex_traitsIcEELb0ELb1ELb1EEEEPT_RS7_
FNDA:0,_ZSt11__addressofIKNSt8__detail11_AnyMatcherINSt7__cxx1112regex_traitsIcEELb0ELb1ELb0EEEEPT_RS7_
FNDA:0,_ZSt11__addressofIKNSt8__detail11_AnyMatcherINSt7__cxx1112regex_traitsIcEELb0ELb0ELb1EEEEPT_RS7_
FNDA:0,_ZSt11__addressofIKNSt8__detail11_AnyMatcherINSt7__cxx1112regex_traitsIcEELb0ELb0ELb0EEEEPT_RS7_
FNDA:5392,_ZSt11__addressofINSt8__detail6_StateINSt7__cxx1112regex_traitsIcEEEEEPT_RS6_
FNDA:325650,_ZSt11__addressofISt4pairIN9__gnu_cxx17__normal_iteratorIPKcNSt7__cxx1112basic_stringIcSt11char_traitsIcESaIcEEEEEiEEPT_RSD_
FNDA:8016,_ZSt11__addressofINSt7__cxx119sub_matchIN9__gnu_cxx17__normal_iteratorIPKcNS0_12basic_stringIcSt11char_traitsIcESaIcEEEEEEEEPT_RSD_
FNDA:0,_ZSt11__addressofISt4pairIlSt6vectorINSt7__cxx119sub_matchIN9__gnu_cxx17__normal_iteratorIPKcNS2_12basic_stringIcSt11char_traitsIcESaIcEEEEEEESaISE_EEEEPT_RSI_
FNDA:2,_ZSt11__addressofIKcEPT_RS1_
FNDA:255521,_ZSt11__addressofI3JobEPT_RS1_
FNDA:0,_ZSt11__addressofIN5Catch15ConsoleReporter13SummaryColumnEEPT_RS3_
FNDA:0,_ZSt11__addressofIN5Catch3PtrINS0_22CumulativeReporterBase4NodeINS0_12TestRunStatsENS3_INS0_14TestGroupStatsENS3_INS0_13TestCaseStatsENS2_11SectionNodeEEEEEEEEEEPT_RSC_
FNDA:0,_ZSt11__addressofIN5Catch3PtrINS0_22CumulativeReporterBase4NodeINS0_14TestGroupStatsENS3_INS0_13TestCaseStatsENS2_11SectionNodeEEEEEEEEPT_RSA_
FNDA:0,_ZSt11__addressofIN5Catch3PtrINS0_22CumulativeReporterBase4NodeINS0_13TestCaseStatsENS2_11SectionNodeEEEEEEPT_RS8_
FNDA:0,_ZSt11__addressofISt6vectorIN5Catch3PtrINS1_22CumulativeReporterBase11SectionNodeEEESaIS5_EEEPT_RS8_
FNDA:0,_ZSt11__addressofIN5Catch14AssertionStatsEEPT_RS2_
FNDA:0,_ZSt11__addressofIN5Catch3PtrINS0_22CumulativeReporterBase11SectionNodeEEEEPT_RS5_
FNDA:0,_ZSt11__addressofIN5Catch11SectionInfoEEPT_RS2_
FNDA:0,_ZSt11__addressofIN5Catch3PtrINS0_18IStreamingReporterEEEEPT_RS4_
FNDA:0,_ZSt11__addressofIN5Catch5Clara6Parser5TokenEEPT_RS4_
FNDA:0,_ZSt11__addressofIN5Catch3PtrINS0_16IReporterFactoryEEEEPT_RS4_
FNDA:0,_ZSt11__addressofIN5Catch14SectionEndInfoEEPT_RS2_
FNDA:6,_ZSt11__addressofIN5Catch3PtrINS0_16TestCaseTracking8ITrackerEEEEPT_RS5_
FNDA:32,_ZSt11__addressofIN5Catch8TestCaseEEPT_RS2_
FNDA:0,_ZSt11__addressofIN5Catch11MessageInfoEEPT_RS2_
FNDA:89,_ZSt11__addressofIN5Catch5Clara11CommandLineINS0_10ConfigDataEE3ArgEEPT_RS6_
FNDA:95,_ZSt11__addressofINSt7__cxx1112basic_stringIcSt11char_traitsIcESaIcEEEEPT_RS6_
FNDA:3,_ZSt11__addressofIN5Catch8TestSpec6FilterEEPT_RS3_
FNDA:5,_ZSt11__addressofIN5Catch3PtrINS0_8TestSpec7PatternEEEEPT_RS5_
FNDA:0,_ZSt7forwardIRKSt4pairINSt7__cxx1112basic_stringIcSt11char_traitsIcESaIcEEES6_EEOT_RNSt16remove_referenceISA_E4typeE
FNDA:130,_ZSt7forwardIRKSt4pairIccEEOT_RNSt16remove_referenceIS4_E4typeE
FNDA:0,_ZSt7forwardINSt7__cxx1112regex_traitsIcE10_RegexMaskEEOT_RNSt16remove_referenceIS4_E4typeE
FNDA:0,_ZSt7forwardISt4pairIlSt6vectorINSt7__cxx119sub_matchIN9__gnu_cxx17__normal_iteratorIPKcNS2_12basic_stringIcSt11char_traitsIcESaIcEEEEEEESaISE_EEEEOT_RNSt16remove_referenceISI_E4typeE
FNDA:0,_ZSt7forwardISt4pairINSt7__cxx1112basic_stringIcSt11char_traitsIcESaIcEEES6_EEOT_RNSt16remove_referenceIS8_E4typeE
FNDA:376,_ZSt7forwardISt4pairIccEEOT_RNSt16remove_referenceIS2_E4typeE
FNDA:2046,_ZSt7forwardIRNSt8__detail6_StateINSt7__cxx1112regex_traitsIcEEEEEOT_RNSt16remove_referenceIS7_E4typeE
FNDA:0,_ZSt7forwardIRPSt13_Rb_tree_nodeISt4pairIKllEEEOT_RNSt16remove_referenceIS7_E4typeE
FNDA:4008,_ZSt7forwardIRKNSt7__cxx119sub_matchIN9__gnu_cxx17__normal_iteratorIPKcNS0_12basic_stringIcSt11char_traitsIcESaIcEEEEEEEEOT_RNSt16remove_referenceISF_E4typeE
FNDA:0,_ZSt7forwardIRKNSt7__cxx1112regex_traitsIcE10_RegexMaskEEOT_RNSt16remove_referenceIS6_E4typeE
FNDA:0,_ZSt7forwardIRNSt7__cxx119sub_matchIN9__gnu_cxx17__normal_iteratorIPKcNS0_12basic_stringIcSt11char_traitsIcESaIcEEEEEEEEOT_RNSt16remove_referenceISE_E4typeE
FNDA:0,_ZSt7forwardINSt7__cxx119sub_matchIN9__gnu_cxx17__normal_iteratorIPKcNS0_12basic_stringIcSt11char_traitsIcESaIcEEEEEEEEOT_RNSt16remove_referenceISD_E4typeE
FNDA:0,_ZSt7forwardIRKlEOT_RNSt16remove_referenceIS2_E4typeE
FNDA:0,_ZSt7forwardISt5tupleIJEEEOT_RNSt16remove_referenceIS2_E4typeE
FNDA:0,_ZSt7forwardISt5tupleIJRKlEEEOT_RNSt16remove_referenceIS4_E4typeE
FNDA:0,_ZSt7forwardIRKSt21piecewise_construct_tEOT_RNSt16remove_referenceIS3_E4typeE
FNDA:2236,_ZSt7forwardIRKNSt8__detail9_StateSeqINSt7__cxx1112regex_traitsIcEEEEEOT_RNSt16remove_referenceIS8_E4typeE
FNDA:0,_ZSt7forwardIRKSt6vectorINSt7__cxx119sub_matchIN9__gnu_cxx17__normal_iteratorIPKcNS1_12basic_stringIcSt11char_traitsIcESaIcEEEEEEESaISD_EEEOT_RNSt16remove_referenceISI_E4typeE
FNDA:0,_ZSt7forwardIRlEOT_RNSt16remove_referenceIS1_E4typeE
FNDA:2904,_ZSt7forwardINSt8__detail9_StateSeqINSt7__cxx1112regex_traitsIcEEEEEOT_RNSt16remove_referenceIS6_E4typeE
FNDA:3922,_ZSt7forwardINSt8__detail6_StateINSt7__cxx1112regex_traitsIcEEEEEOT_RNSt16remove_referenceIS6_E4typeE
FNDA:31,_ZSt7forwardIRN5Catch5Clara11CommandLineINS0_10ConfigDataEE3ArgEEOT_RNSt16remove_referenceIS7_E4typeE
FNDA:0,_ZSt7forwardIPN5Catch14IGeneratorInfoEEOT_RNSt16remove_referenceIS3_E4typeE
FNDA:0,_ZSt7forwardIPN5Catch18IGeneratorsForTestEEOT_RNSt16remove_referenceIS3_E4typeE
FNDA:4,_ZSt7forwardIN5Catch3PtrINS0_16IReporterFactoryEEEEOT_RNSt16remove_referenceIS4_E4typeE
FNDA:0,_ZSt7forwardIRN5Catch3PtrINS0_8TestSpec7PatternEEEEOT_RNSt16remove_referenceIS6_E4typeE
FNDA:0,_ZSt7forwardISt14default_deleteIA_bEEOT_RNSt16remove_referenceIS3_E4typeE
FNDA:0,_ZSt7forwardIRPbEOT_RNSt16remove_referenceIS2_E4typeE
FNDA:0,_ZSt7forwardIRN5Catch3PtrINS0_22CumulativeReporterBase4NodeINS0_12TestRunStatsENS3_INS0_14TestGroupStatsENS3_INS0_13TestCaseStatsENS2_11SectionNodeEEEEEEEEEEOT_RNSt16remove_referenceISD_E4typeE
FNDA:0,_ZSt7forwardIRN5Catch3PtrINS0_22CumulativeReporterBase4NodeINS0_14TestGroupStatsENS3_INS0_13TestCaseStatsENS2_11SectionNodeEEEEEEEEOT_RNSt16remove_referenceISB_E4typeE
FNDA:0,_ZSt7forwardIRN5Catch3PtrINS0_22CumulativeReporterBase4NodeINS0_13TestCaseStatsENS2_11SectionNodeEEEEEEOT_RNSt16remove_referenceIS9_E4typeE
FNDA:0,_ZSt7forwardIN5Catch14AssertionStatsEEOT_RNSt16remove_referenceIS2_E4typeE
FNDA:0,_ZSt7forwardIRN5Catch3PtrINS0_22CumulativeReporterBase11SectionNodeEEEEOT_RNSt16remove_referenceIS6_E4typeE
FNDA:0,_ZSt7forwardIN5Catch11SectionInfoEEOT_RNSt16remove_referenceIS2_E4typeE
FNDA:0,_ZSt7forwardIRN5Catch3PtrINS0_18IStreamingReporterEEEEOT_RNSt16remove_referenceIS5_E4typeE
FNDA:0,_ZSt7forwardIRN5Catch3PtrINS0_16IReporterFactoryEEEEOT_RNSt16remove_referenceIS5_E4typeE
FNDA:0,_ZSt7forwardIN5Catch14SectionEndInfoEEOT_RNSt16remove_referenceIS2_E4typeE
FNDA:0,_ZSt7forwardIRN5Catch3PtrINS0_16TestCaseTracking8ITrackerEEEEOT_RNSt16remove_referenceIS6_E4typeE
FNDA:0,_ZSt7forwardIN5Catch11MessageInfoEEOT_RNSt16remove_referenceIS2_E4typeE
FNDA:0,_ZSt7forwardIN5Catch8TestSpec6FilterEEOT_RNSt16remove_referenceIS3_E4typeE
FNDA:16,_ZSt7forwardIRNSt15regex_constants18syntax_option_typeEEOT_RNSt16remove_referenceIS3_E4typeE
FNDA:16,_ZSt7forwardIRKSt6localeEOT_RNSt16remove_referenceIS3_E4typeE
FNDA:7,_ZSt7forwardIRN5Catch8TestCaseEEOT_RNSt16remove_referenceIS3_E4typeE
FNDA:505021,_ZSt7forwardIRK3JobEOT_RNSt16remove_referenceIS3_E4typeE
FNDA:0,_ZSt7forwardIRKN5Catch5Clara6Parser5TokenEEOT_RNSt16remove_referenceIS6_E4typeE
FNDA:0,_ZSt7forwardIRPSt13_Rb_tree_nodeISt4pairIKNSt7__cxx1112basic_stringIcSt11char_traitsIcESaIcEEEN5Catch8TagAliasEEEEOT_RNSt16remove_referenceISF_E4typeE
FNDA:0,_ZSt7forwardIRPSt13_Rb_tree_nodeISt4pairIKNSt7__cxx1112basic_stringIcSt11char_traitsIcESaIcEEEPN5Catch14IGeneratorInfoEEEEOT_RNSt16remove_referenceISG_E4typeE
FNDA:0,_ZSt7forwardIRPSt13_Rb_tree_nodeISt4pairIKNSt7__cxx1112basic_stringIcSt11char_traitsIcESaIcEEEPN5Catch18IGeneratorsForTestEEEEOT_RNSt16remove_referenceISG_E4typeE
FNDA:8,_ZSt7forwardIRPSt13_Rb_tree_nodeISt4pairIKNSt7__cxx1112basic_stringIcSt11char_traitsIcESaIcEEEN5Catch3PtrINS9_16IReporterFactoryEEEEEEOT_RNSt16remove_referenceISH_E4typeE
FNDA:12,_ZSt7forwardIRPSt13_Rb_tree_nodeIN5Catch8TestCaseEEEOT_RNSt16remove_referenceIS6_E4typeE
FNDA:0,_ZSt7forwardIRPSt13_Rb_tree_nodeISt4pairIKNSt7__cxx1112basic_stringIcSt11char_traitsIcESaIcEEEN5Catch7TagInfoEEEEOT_RNSt16remove_referenceISF_E4typeE
FNDA:0,_ZSt7forwardIRPSt18_Rb_tree_node_baseEOT_RNSt16remove_referenceIS3_E4typeE
FNDA:24,_ZSt7forwardIRPSt13_Rb_tree_nodeINSt7__cxx1112basic_stringIcSt11char_traitsIcESaIcEEEEEOT_RNSt16remove_referenceISA_E4typeE
FNDA:87,_ZSt7forwardIN5Catch5Clara11CommandLineINS0_10ConfigDataEE3ArgEEOT_RNSt16remove_referenceIS6_E4typeE
FNDA:5,_ZSt7forwardIRKN5Catch3PtrINS0_8TestSpec7PatternEEEEOT_RNSt16remove_referenceIS7_E4typeE
FNDA:0,_ZSt7forwardIN5Catch15ConsoleReporter13SummaryColumnEEOT_RNSt16remove_referenceIS3_E4typeE
FNDA:0,_ZSt7forwardIRKN5Catch3PtrINS0_22CumulativeReporterBase4NodeINS0_12TestRunStatsENS3_INS0_14TestGroupStatsENS3_INS0_13TestCaseStatsENS2_11SectionNodeEEEEEEEEEEOT_RNSt16remove_referenceISE_E4typeE
FNDA:0,_ZSt7forwardIRKN5Catch3PtrINS0_22CumulativeReporterBase4NodeINS0_14TestGroupStatsENS3_INS0_13TestCaseStatsENS2_11SectionNodeEEEEEEEEOT_RNSt16remove_referenceISC_E4typeE
FNDA:0,_ZSt7forwardIRKN5Catch3PtrINS0_22CumulativeReporterBase4NodeINS0_13TestCaseStatsENS2_11SectionNodeEEEEEEOT_RNSt16remove_referenceISA_E4typeE
FNDA:0,_ZSt7forwardIRKN5Catch14AssertionStatsEEOT_RNSt16remove_referenceIS4_E4typeE
FNDA:0,_ZSt7forwardIRKN5Catch3PtrINS0_22CumulativeReporterBase11SectionNodeEEEEOT_RNSt16remove_referenceIS7_E4typeE
FNDA:13,_ZSt7forwardIRKN5Catch11SectionInfoEEOT_RNSt16remove_referenceIS4_E4typeE
FNDA:0,_ZSt7forwardIRKN5Catch3PtrINS0_18IStreamingReporterEEEEOT_RNSt16remove_referenceIS6_E4typeE
FNDA:0,_ZSt7forwardISt17_Rb_tree_iteratorISt4pairIKNSt7__cxx1112basic_stringIcSt11char_traitsIcESaIcEEEN5Catch8TagAliasEEEEOT_RNSt16remove_referenceISD_E4typeE
FNDA:0,_ZSt7forwardIRKPN5Catch14IGeneratorInfoEEOT_RNSt16remove_referenceIS5_E4typeE
FNDA:0,_ZSt7forwardISt17_Rb_tree_iteratorISt4pairIKNSt7__cxx1112basic_stringIcSt11char_traitsIcESaIcEEEPN5Catch14IGeneratorInfoEEEEOT_RNSt16remove_referenceISE_E4typeE
FNDA:0,_ZSt7forwardISt17_Rb_tree_iteratorISt4pairIKNSt7__cxx1112basic_stringIcSt11char_traitsIcESaIcEEEPN5Catch18IGeneratorsForTestEEEEOT_RNSt16remove_referenceISE_E4typeE
FNDA:0,_ZSt7forwardIRKPKN5Catch20IExceptionTranslatorEEOT_RNSt16remove_referenceIS6_E4typeE
FNDA:4,_ZSt7forwardISt17_Rb_tree_iteratorISt4pairIKNSt7__cxx1112basic_stringIcSt11char_traitsIcESaIcEEEN5Catch3PtrINS9_16IReporterFactoryEEEEEEOT_RNSt16remove_referenceISF_E4typeE
FNDA:6,_ZSt7forwardISt17_Rb_tree_iteratorIN5Catch8TestCaseEEEOT_RNSt16remove_referenceIS4_E4typeE
FNDA:64,_ZSt7forwardIRKN5Catch8TestCaseEEOT_RNSt16remove_referenceIS4_E4typeE
FNDA:0,_ZSt7forwardIRKN5Catch14SectionEndInfoEEOT_RNSt16remove_referenceIS4_E4typeE
FNDA:0,_ZSt7forwardIPN5Catch16TestCaseTracking8ITrackerEEOT_RNSt16remove_referenceIS4_E4typeE
FNDA:18,_ZSt7forwardIRKN5Catch3PtrINS0_16TestCaseTracking8ITrackerEEEEOT_RNSt16remove_referenceIS7_E4typeE
FNDA:0,_ZSt7forwardISt17_Rb_tree_iteratorISt4pairIKNSt7__cxx1112basic_stringIcSt11char_traitsIcESaIcEEEN5Catch7TagInfoEEEEOT_RNSt16remove_referenceISD_E4typeE
FNDA:22,_ZSt7forwardIbEOT_RNSt16remove_referenceIS0_E4typeE
FNDA:12,_ZSt7forwardISt17_Rb_tree_iteratorINSt7__cxx1112basic_stringIcSt11char_traitsIcESaIcEEEEEOT_RNSt16remove_referenceIS8_E4typeE
FNDA:0,_ZSt7forwardIRKN5Catch11MessageInfoEEOT_RNSt16remove_referenceIS4_E4typeE
FNDA:0,_ZSt7forwardIN5Catch5Clara6Parser5TokenEEOT_RNSt16remove_referenceIS4_E4typeE
FNDA:81,_ZSt7forwardINSt7__cxx1112basic_stringIcSt11char_traitsIcESaIcEEEEOT_RNSt16remove_referenceIS6_E4typeE
FNDA:4,_ZSt7forwardIRKN5Catch8TestSpec6FilterEEOT_RNSt16remove_referenceIS5_E4typeE
FNDA:26,_ZSt7forwardIRKmEOT_RNSt16remove_referenceIS2_E4typeE
FNDA:0,_ZSt7forwardISt4pairINSt7__cxx1112basic_stringIcSt11char_traitsIcESaIcEEEN5Catch8TagAliasEEEOT_RNSt16remove_referenceISA_E4typeE
FNDA:0,_ZSt7forwardISt4pairINSt7__cxx1112basic_stringIcSt11char_traitsIcESaIcEEEPN5Catch14IGeneratorInfoEEEOT_RNSt16remove_referenceISB_E4typeE
FNDA:0,_ZSt7forwardISt4pairINSt7__cxx1112basic_stringIcSt11char_traitsIcESaIcEEEPN5Catch18IGeneratorsForTestEEEOT_RNSt16remove_referenceISB_E4typeE
FNDA:0,_ZSt7forwardISt14default_deleteIN5Catch13StreamBufBaseEEEOT_RNSt16remove_referenceIS4_E4typeE
FNDA:0,_ZSt7forwardIRPN5Catch13StreamBufBaseEEOT_RNSt16remove_referenceIS4_E4typeE
FNDA:32,_ZSt7forwardISt4pairINSt7__cxx1112basic_stringIcSt11char_traitsIcESaIcEEEN5Catch3PtrINS7_16IReporterFactoryEEEEEOT_RNSt16remove_referenceISC_E4typeE
FNDA:6,_ZSt7forwardIRSt17_Rb_tree_iteratorIN5Catch8TestCaseEEEOT_RNSt16remove_referenceIS5_E4typeE
FNDA:0,_ZSt7forwardISt4pairINSt7__cxx1112basic_stringIcSt11char_traitsIcESaIcEEEN5Catch7TagInfoEEEOT_RNSt16remove_referenceISA_E4typeE
FNDA:18,_ZSt7forwardIRbEOT_RNSt16remove_referenceIS1_E4typeE
FNDA:12,_ZSt7forwardIRSt17_Rb_tree_iteratorINSt7__cxx1112basic_stringIcSt11char_traitsIcESaIcEEEEEOT_RNSt16remove_referenceIS9_E4typeE
FNDA:4,_ZSt7forwardISt14default_deleteIKN5Catch7IStreamEEEOT_RNSt16remove_referenceIS5_E4typeE
FNDA:3,_ZSt7forwardIRPKN5Catch7IStreamEEOT_RNSt16remove_referenceIS5_E4typeE
FNDA:5221752,_ZSt7forwardIcEOT_RNSt16remove_referenceIS0_E4typeE
FNDA:0,_ZSt7forwardIN5Catch8TagAliasEEOT_RNSt16remove_referenceIS2_E4typeE
FNDA:0,_ZSt7forwardIRPN5Catch14IGeneratorInfoEEOT_RNSt16remove_referenceIS4_E4typeE
FNDA:0,_ZSt7forwardIRPN5Catch18IGeneratorsForTestEEOT_RNSt16remove_referenceIS4_E4typeE
FNDA:4,_ZSt7forwardIRKN5Catch3PtrINS0_16IReporterFactoryEEEEOT_RNSt16remove_referenceIS6_E4typeE
FNDA:644,_ZSt7forwardIRKNSt7__cxx1112basic_stringIcSt11char_traitsIcESaIcEEEEOT_RNSt16remove_referenceIS8_E4typeE
FNDA:0,_ZSt7forwardIN5Catch7TagInfoEEOT_RNSt16remove_referenceIS2_E4typeE
FNDA:0,_ZSt7forwardIRNSt7__cxx1112basic_stringIcSt11char_traitsIcESaIcEEEEOT_RNSt16remove_referenceIS7_E4typeE
FNDA:0,_ZSt4moveIRPPlEONSt16remove_referenceIT_E4typeEOS4_
FNDA:0,_ZSt4moveIRSt15_Deque_iteratorIlRlPlEEONSt16remove_referenceIT_E4typeEOS6_
FNDA:0,_ZSt4moveIRSt4pairINSt7__cxx1112basic_stringIcSt11char_traitsIcESaIcEEES6_EEONSt16remove_referenceIT_E4typeEOSA_
FNDA:94,_ZSt4moveIRSt4pairIccEEONSt16remove_referenceIT_E4typeEOS4_
FNDA:0,_ZSt4moveIRPSt4pairINSt7__cxx1112basic_stringIcSt11char_traitsIcESaIcEEES6_EEONSt16remove_referenceIT_E4typeEOSB_
FNDA:1692,_ZSt4moveIRPNSt7__cxx1112regex_traitsIcE10_RegexMaskEEONSt16remove_referenceIT_E4typeEOS7_
FNDA:1692,_ZSt4moveIRPSt4pairIccEEONSt16remove_referenceIT_E4typeEOS5_
FNDA:1692,_ZSt4moveIRPcEONSt16remove_referenceIT_E4typeEOS3_
FNDA:0,_ZSt4moveIRSaIlEEONSt16remove_referenceIT_E4typeEOS3_
FNDA:94,_ZSt4moveIRcEONSt16remove_referenceIT_E4typeEOS2_
FNDA:0,_ZSt4moveIRSt11_Deque_baseIlSaIlEEEONSt16remove_referenceIT_E4typeEOS5_
FNDA:0,_ZSt4moveIRSaISt4pairINSt7__cxx1112basic_stringIcSt11char_traitsIcESaIcEEES6_EEEONSt16remove_referenceIT_E4typeEOSB_
FNDA:376,_ZSt4moveIRSaINSt7__cxx1112regex_traitsIcE10_RegexMaskEEEONSt16remove_referenceIT_E4typeEOS7_
FNDA:376,_ZSt4moveIRSaISt4pairIccEEEONSt16remove_referenceIT_E4typeEOS5_
FNDA:0,_ZSt4moveIRSaINSt7__cxx119sub_matchIN9__gnu_cxx17__normal_iteratorIPKcNS0_12basic_stringIcSt11char_traitsIcESaIcEEEEEEEEEONSt16remove_referenceIT_E4typeEOSG_
FNDA:0,_ZSt4moveIRPNSt7__cxx119sub_matchIN9__gnu_cxx17__normal_iteratorIPKcNS0_12basic_stringIcSt11char_traitsIcESaIcEEEEEEEEONSt16remove_referenceIT_E4typeEOSG_
FNDA:0,_ZSt4moveIRPSt4pairIlSt6vectorINSt7__cxx119sub_matchIN9__gnu_cxx17__normal_iteratorIPKcNS2_12basic_stringIcSt11char_traitsIcESaIcEEEEEEESaISE_EEEEONSt16remove_referenceIT_E4typeEOSL_
FNDA:0,_ZSt4moveIRSt6vectorISt4pairINSt7__cxx1112basic_stringIcSt11char_traitsIcESaIcEEES7_ESaIS8_EEEONSt16remove_referenceIT_E4typeEOSD_
FNDA:188,_ZSt4moveIRSt6vectorINSt7__cxx1112regex_traitsIcE10_RegexMaskESaIS4_EEEONSt16remove_referenceIT_E4typeEOS9_
FNDA:188,_ZSt4moveIRSt6vectorISt4pairIccESaIS2_EEEONSt16remove_referenceIT_E4typeEOS7_
FNDA:188,_ZSt4moveIRSt6vectorIcSaIcEEEONSt16remove_referenceIT_E4typeEOS5_
FNDA:0,_ZSt4moveIRNSt8__detail12_CharMatcherINSt7__cxx1112regex_traitsIcEELb1ELb1EEEEONSt16remove_referenceIT_E4typeEOS8_
FNDA:0,_ZSt4moveIRNSt8__detail12_CharMatcherINSt7__cxx1112regex_traitsIcEELb1ELb0EEEEONSt16remove_referenceIT_E4typeEOS8_
FNDA:0,_ZSt4moveIRNSt8__detail12_CharMatcherINSt7__cxx1112regex_traitsIcEELb0ELb1EEEEONSt16remove_referenceIT_E4typeEOS8_
FNDA:2430,_ZSt4moveIRNSt8__detail12_CharMatcherINSt7__cxx1112regex_traitsIcEELb0ELb0EEEEONSt16remove_referenceIT_E4typeEOS8_
FNDA:0,_ZSt4moveIRNSt8__detail11_AnyMatcherINSt7__cxx1112regex_traitsIcEELb1ELb1ELb1EEEEONSt16remove_referenceIT_E4typeEOS8_
FNDA:0,_ZSt4moveIRNSt8__detail11_AnyMatcherINSt7__cxx1112regex_traitsIcEELb1ELb1ELb0EEEEONSt16remove_referenceIT_E4typeEOS8_
FNDA:0,_ZSt4moveIRNSt8__detail11_AnyMatcherINSt7__cxx1112regex_traitsIcEELb1ELb0ELb1EEEEONSt16remove_referenceIT_E4typeEOS8_
FNDA:18,_ZSt4moveIRNSt8__detail11_AnyMatcherINSt7__cxx1112regex_traitsIcEELb1ELb0ELb0EEEEONSt16remove_referenceIT_E4typeEOS8_
FNDA:0,_ZSt4moveIRNSt8__detail11_AnyMatcherINSt7__cxx1112regex_traitsIcEELb0ELb1ELb1EEEEONSt16remove_referenceIT_E4typeEOS8_
FNDA:0,_ZSt4moveIRNSt8__detail11_AnyMatcherINSt7__cxx1112regex_traitsIcEELb0ELb1ELb0EEEEONSt16remove_referenceIT_E4typeEOS8_
FNDA:0,_ZSt4moveIRNSt8__detail11_AnyMatcherINSt7__cxx1112regex_traitsIcEELb0ELb0ELb1EEEEONSt16remove_referenceIT_E4typeEOS8_
FNDA:1820,_ZSt4moveIRSt8functionIFbcEEEONSt16remove_referenceIT_E4typeEOS5_
FNDA:0,_ZSt4moveIRNSt8__detail11_AnyMatcherINSt7__cxx1112regex_traitsIcEELb0ELb0ELb0EEEEONSt16remove_referenceIT_E4typeEOS8_
FNDA:6,_ZSt4moveIRPPNSt8__detail9_StateSeqINSt7__cxx1112regex_traitsIcEEEEEONSt16remove_referenceIT_E4typeEOSA_
FNDA:12,_ZSt4moveIRSt15_Deque_iteratorINSt8__detail9_StateSeqINSt7__cxx1112regex_traitsIcEEEERS6_PS6_EEONSt16remove_referenceIT_E4typeEOSC_
FNDA:0,_ZSt4moveIRPN5Catch11MessageInfoEEONSt16remove_referenceIT_E4typeEOS5_
FNDA:0,_ZSt4moveIRlEONSt16remove_referenceIT_E4typeEOS2_
FNDA:0,_ZSt4moveIRSt5dequeIlSaIlEEEONSt16remove_referenceIT_E4typeEOS5_
FNDA:0,_ZSt4moveIRNSt8__detail15_BracketMatcherINSt7__cxx1112regex_traitsIcEELb1ELb1EEEEONSt16remove_referenceIT_E4typeEOS8_
FNDA:0,_ZSt4moveIRNSt8__detail15_BracketMatcherINSt7__cxx1112regex_traitsIcEELb1ELb0EEEEONSt16remove_referenceIT_E4typeEOS8_
FNDA:0,_ZSt4moveIRNSt8__detail15_BracketMatcherINSt7__cxx1112regex_traitsIcEELb0ELb1EEEEONSt16remove_referenceIT_E4typeEOS8_
FNDA:376,_ZSt4moveIRNSt8__detail15_BracketMatcherINSt7__cxx1112regex_traitsIcEELb0ELb0EEEEONSt16remove_referenceIT_E4typeEOS8_
FNDA:2,_ZSt4moveIRKSaINSt8__detail4_NFAINSt7__cxx1112regex_traitsIcEEEEEEONSt16remove_referenceIT_E4typeEOSA_
FNDA:0,_ZSt4moveIRSaISt4pairIlSt6vectorINSt7__cxx119sub_matchIN9__gnu_cxx17__normal_iteratorIPKcNS2_12basic_stringIcSt11char_traitsIcESaIcEEEEEEESaISE_EEEEEONSt16remove_referenceIT_E4typeEOSL_
FNDA:12798,_ZSt4moveIRPFbRKSt9_Any_dataOcEEONSt16remove_referenceIT_E4typeEOS8_
FNDA:12798,_ZSt4moveIRPFbRSt9_Any_dataRKS0_St18_Manager_operationEEONSt16remove_referenceIT_E4typeEOS9_
FNDA:12798,_ZSt4moveIRSt9_Any_dataEONSt16remove_referenceIT_E4typeEOS3_
FNDA:4,_ZSt4moveIRSaINSt8__detail9_StateSeqINSt7__cxx1112regex_traitsIcEEEEEEONSt16remove_referenceIT_E4typeEOS9_
FNDA:0,_ZSt4moveIRSaIN5Catch11MessageInfoEEEONSt16remove_referenceIT_E4typeEOS5_
FNDA:2,_ZSt4moveIRSt11_Deque_baseINSt8__detail9_StateSeqINSt7__cxx1112regex_traitsIcEEEESaIS6_EEEONSt16remove_referenceIT_E4typeEOSB_
FNDA:0,_ZSt4moveIRSt6vectorIN5Catch11MessageInfoESaIS2_EEEONSt16remove_referenceIT_E4typeEOS7_
FNDA:0,_ZSt4moveIRSt6vectorINSt7__cxx119sub_matchIN9__gnu_cxx17__normal_iteratorIPKcNS1_12basic_stringIcSt11char_traitsIcESaIcEEEEEEESaISD_EEEONSt16remove_referenceIT_E4typeEOSI_
FNDA:0,_ZSt4moveIRSt6vectorISt4pairIlS0_INSt7__cxx119sub_matchIN9__gnu_cxx17__normal_iteratorIPKcNS2_12basic_stringIcSt11char_traitsIcESaIcEEEEEEESaISE_EEESaISH_EEEONSt16remove_referenceIT_E4typeEOSM_
FNDA:1936,_ZSt4moveIRNSt8__detail9_StateSeqINSt7__cxx1112regex_traitsIcEEEEEONSt16remove_referenceIT_E4typeEOS8_
FNDA:3746,_ZSt4moveIRNSt8__detail6_StateINSt7__cxx1112regex_traitsIcEEEEEONSt16remove_referenceIT_E4typeEOS8_
FNDA:4,_ZSt4moveIRSt5dequeINSt8__detail9_StateSeqINSt7__cxx1112regex_traitsIcEEEESaIS6_EEEONSt16remove_referenceIT_E4typeEOSB_
FNDA:4,_ZSt4moveIRSt10shared_ptrINSt8__detail4_NFAINSt7__cxx1112regex_traitsIcEEEEEEONSt16remove_referenceIT_E4typeEOSA_
FNDA:0,_ZSt4moveIRN5Catch8TestCaseEEONSt16remove_referenceIT_E4typeEOS4_
FNDA:63,_ZSt4moveIRPN5Catch5Clara6Parser5TokenEEONSt16remove_referenceIT_E4typeEOS7_
FNDA:18,_ZSt4moveIRPN5Catch8TestCaseEEONSt16remove_referenceIT_E4typeEOS5_
FNDA:1935,_ZSt4moveIRPNSt7__cxx1112basic_stringIcSt11char_traitsIcESaIcEEEEONSt16remove_referenceIT_E4typeEOS9_
FNDA:18,_ZSt4moveIRPN5Catch8TestSpec6FilterEEONSt16remove_referenceIT_E4typeEOS6_
FNDA:1,_ZSt4moveIRSaIN5Catch3PtrINS0_8TestSpec7PatternEEEEEONSt16remove_referenceIT_E4typeEOS8_
FNDA:18,_ZSt4moveIRPN5Catch3PtrINS0_8TestSpec7PatternEEEEONSt16remove_referenceIT_E4typeEOS8_
FNDA:3,_ZSt4moveIRPN5Catch8TestSpec7PatternEEONSt16remove_referenceIT_E4typeEOS6_
FNDA:8,_ZSt4moveIRSt6localeEONSt16remove_referenceIT_E4typeEOS3_
FNDA:0,_ZSt4moveIRPN5Catch3PtrINS0_22CumulativeReporterBase4NodeINS0_14TestGroupStatsENS3_INS0_13TestCaseStatsENS2_11SectionNodeEEEEEEEEONSt16remove_referenceIT_E4typeEOSD_
FNDA:0,_ZSt4moveIRPN5Catch3PtrINS0_22CumulativeReporterBase4NodeINS0_13TestCaseStatsENS2_11SectionNodeEEEEEEONSt16remove_referenceIT_E4typeEOSB_
FNDA:0,_ZSt4moveIRPN5Catch22CumulativeReporterBase11SectionNodeEEONSt16remove_referenceIT_E4typeEOS6_
FNDA:0,_ZSt4moveIRSt4lessINSt7__cxx1112basic_stringIcSt11char_traitsIcESaIcEEEEEONSt16remove_referenceIT_E4typeEOSA_
FNDA:6,_ZSt4moveIRmEONSt16remove_referenceIT_E4typeEOS2_
FNDA:0,_ZSt4moveIRPSt18_Rb_tree_node_baseEONSt16remove_referenceIT_E4typeEOS4_
FNDA:3,_ZSt4moveIRPKN5Catch7IConfigEEONSt16remove_referenceIT_E4typeEOS6_
FNDA:3,_ZSt4moveIRPN5Catch6ConfigEEONSt16remove_referenceIT_E4typeEOS5_
FNDA:5,_ZSt4moveIRSaIN5Catch5Clara6Parser5TokenEEEONSt16remove_referenceIT_E4typeEOS7_
FNDA:98,_ZSt4moveIRSaISt13_Rb_tree_nodeINSt7__cxx1112basic_stringIcSt11char_traitsIcESaIcEEEEEEONSt16remove_referenceIT_E4typeEOSB_
FNDA:9,_ZSt4moveIRPN5Catch18IStreamingReporterEEONSt16remove_referenceIT_E4typeEOS5_
FNDA:3,_ZSt4moveIRPN5Catch5Clara11CommandLineINS0_10ConfigDataEE3ArgEEONSt16remove_referenceIT_E4typeEOS9_
FNDA:8,_ZSt4moveIRPKcEONSt16remove_referenceIT_E4typeEOS4_
FNDA:0,_ZSt4moveIRPN5Catch9ITestCaseEEONSt16remove_referenceIT_E4typeEOS5_
FNDA:0,_ZSt4moveIRN5Catch11MessageInfoEEONSt16remove_referenceIT_E4typeEOS4_
FNDA:1,_ZSt4moveIRSaIN5Catch8TestCaseEEEONSt16remove_referenceIT_E4typeEOS5_
FNDA:27,_ZSt4moveIRN5Catch5Clara11CommandLineINS0_10ConfigDataEE3ArgEEONSt16remove_referenceIT_E4typeEOS8_
FNDA:430,_ZSt4moveIRSaINSt7__cxx1112basic_stringIcSt11char_traitsIcESaIcEEEEEONSt16remove_referenceIT_E4typeEOS9_
FNDA:1,_ZSt4moveIRSaIN5Catch8TestSpec6FilterEEEONSt16remove_referenceIT_E4typeEOS6_
FNDA:0,_ZSt4moveIRN5Catch15ConsoleReporter13SummaryColumnEEONSt16remove_referenceIT_E4typeEOS5_
FNDA:0,_ZSt4moveIRN5Catch14SourceLineInfoEEONSt16remove_referenceIT_E4typeEOS4_
FNDA:0,_ZSt4moveIRN5Catch12TestCaseInfo17SpecialPropertiesEEONSt16remove_referenceIT_E4typeEOS5_
FNDA:4,_ZSt4moveIRSt6vectorIN5Catch5Clara6Parser5TokenESaIS4_EEEONSt16remove_referenceIT_E4typeEOS9_
FNDA:18,_ZSt4moveIRPN5Catch16TestCaseTracking8ITrackerEEONSt16remove_referenceIT_E4typeEOS6_
FNDA:0,_ZSt4moveIRSt8_Rb_treeINSt7__cxx1112basic_stringIcSt11char_traitsIcESaIcEEES6_St9_IdentityIS6_ESt4lessIS6_ESaIS6_EEEONSt16remove_referenceIT_E4typeEOSF_
FNDA:1,_ZSt4moveIRSt6vectorIN5Catch8TestCaseESaIS2_EEEONSt16remove_referenceIT_E4typeEOS7_
FNDA:0,_ZSt4moveIRN5Catch5Clara6Parser5TokenEEONSt16remove_referenceIT_E4typeEOS6_
FNDA:215,_ZSt4moveIRSt6vectorINSt7__cxx1112basic_stringIcSt11char_traitsIcESaIcEEESaIS6_EEEONSt16remove_referenceIT_E4typeEOSB_
FNDA:1,_ZSt4moveIRSt6vectorIN5Catch8TestSpec6FilterESaIS3_EEEONSt16remove_referenceIT_E4typeEOS8_
FNDA:1,_ZSt4moveIRSt6vectorIN5Catch3PtrINS1_8TestSpec7PatternEEESaIS5_EEEONSt16remove_referenceIT_E4typeEOSA_
FNDA:2035,_ZSt4moveIRNSt7__cxx1112basic_stringIcSt11char_traitsIcESaIcEEEEONSt16remove_referenceIT_E4typeEOS8_
FNDA:376,_ZSt4moveIRSaIcEEONSt16remove_referenceIT_E4typeEOS3_
FNDA:0,_ZSt4swapIcEvRT_S1_
FNDA:2,_ZSt4swapISt6localeEvRT_S2_
FNDA:0,_ZSt4swapIPPlEvRT_S3_
FNDA:0,_ZSt4swapISt15_Deque_iteratorIlRlPlEEvRT_S5_
FNDA:0,_ZSt4swapIPSt4pairINSt7__cxx1112basic_stringIcSt11char_traitsIcESaIcEEES6_EEvRT_SA_
FNDA:564,_ZSt4swapIPNSt7__cxx1112regex_traitsIcE10_RegexMaskEEvRT_S6_
FNDA:564,_ZSt4swapIPSt4pairIccEEvRT_S4_
FNDA:564,_ZSt4swapIPcEvRT_S2_
FNDA:0,_ZSt4swapIPNSt7__cxx119sub_matchIN9__gnu_cxx17__normal_iteratorIPKcNS0_12basic_stringIcSt11char_traitsIcESaIcEEEEEEEEvRT_SF_
FNDA:0,_ZSt4swapIPSt4pairIlSt6vectorINSt7__cxx119sub_matchIN9__gnu_cxx17__normal_iteratorIPKcNS2_12basic_stringIcSt11char_traitsIcESaIcEEEEEEESaISE_EEEEvRT_SK_
FNDA:2,_ZSt4swapIPPNSt8__detail9_StateSeqINSt7__cxx1112regex_traitsIcEEEEEvRT_S9_
FNDA:4,_ZSt4swapISt15_Deque_iteratorINSt8__detail9_StateSeqINSt7__cxx1112regex_traitsIcEEEERS6_PS6_EEvRT_SB_
FNDA:0,_ZSt4swapIPN5Catch11MessageInfoEEvRT_S4_
FNDA:0,_ZSt4swapIlEvRT_S1_
FNDA:4266,_ZSt4swapIPFbRKSt9_Any_dataOcEEvRT_S7_
FNDA:4266,_ZSt4swapIPFbRSt9_Any_dataRKS0_St18_Manager_operationEEvRT_S8_
FNDA:4266,_ZSt4swapISt9_Any_dataEvRT_S2_
FNDA:0,_ZSt4swapIN5Catch8TestCaseEEvRT_S3_
FNDA:21,_ZSt4swapIPN5Catch5Clara6Parser5TokenEEvRT_S6_
FNDA:6,_ZSt4swapIPN5Catch8TestCaseEEvRT_S4_
FNDA:645,_ZSt4swapIPNSt7__cxx1112basic_stringIcSt11char_traitsIcESaIcEEEEvRT_S8_
FNDA:6,_ZSt4swapIPN5Catch8TestSpec6FilterEEvRT_S5_
FNDA:6,_ZSt4swapIPN5Catch3PtrINS0_8TestSpec7PatternEEEEvRT_S7_
FNDA:1,_ZSt4swapIPN5Catch8TestSpec7PatternEEvRT_S5_
FNDA:0,_ZSt4swapIPN5Catch3PtrINS0_22CumulativeReporterBase4NodeINS0_14TestGroupStatsENS3_INS0_13TestCaseStatsENS2_11SectionNodeEEEEEEEEvRT_SC_
FNDA:0,_ZSt4swapIPN5Catch3PtrINS0_22CumulativeReporterBase4NodeINS0_13TestCaseStatsENS2_11SectionNodeEEEEEEvRT_SA_
FNDA:0,_ZSt4swapIPN5Catch22CumulativeReporterBase11SectionNodeEEvRT_S5_
FNDA:0,_ZSt4swapISt4lessINSt7__cxx1112basic_stringIcSt11char_traitsIcESaIcEEEEEvRT_S9_
FNDA:2,_ZSt4swapImEvRT_S1_
FNDA:0,_ZSt4swapIPSt18_Rb_tree_node_baseEvRT_S3_
FNDA:1,_ZSt4swapIPKN5Catch7IConfigEEvRT_S5_
FNDA:1,_ZSt4swapIPN5Catch6ConfigEEvRT_S4_
FNDA:3,_ZSt4swapIPN5Catch18IStreamingReporterEEvRT_S4_
FNDA:6,_ZSt4swapIPN5Catch16TestCaseTracking8ITrackerEEvRT_S5_
FNDA:1,_ZSt4swapIPN5Catch5Clara11CommandLineINS0_10ConfigDataEE3ArgEEvRT_S8_
FNDA:0,_ZSt4swapIPN5Catch9ITestCaseEEvRT_S4_
FNDA:0,_ZSt4swapIN5Catch14SourceLineInfoEEvRT_S3_
FNDA:0,_ZSt4swapIN5Catch12TestCaseInfo17SpecialPropertiesEEvRT_S4_
FNF:279
FNH:126
DA:47,2100782
DA:50,2100782
DA:76,5743578
DA:77,5743578
DA:101,60643
DA:102,60643
DA:176,15197
DA:185,15199
DA:186,15197
DA:187,15197
DA:188,15197
LF:11
LH:11
end_of_record
SF:/usr/include/c++/5/bits/predefined_ops.h
FN:42,_ZNK9__gnu_cxx5__ops15_Iter_less_iterclINS_17__normal_iteratorIPcSt6vectorIcSaIcEEEES8_EEbT_T0_
FN:42,_ZNK9__gnu_cxx5__ops15_Iter_less_iterclINS_17__normal_iteratorIPN5Catch8TestCaseESt6vectorIS5_SaIS5_EEEESA_EEbT_T0_
FN:47,_ZN9__gnu_cxx5__ops16__iter_less_iterEv
FN:54,_ZNK9__gnu_cxx5__ops14_Iter_less_valclINS_17__normal_iteratorIPcSt6vectorIcSaIcEEEEcEEbT_RT0_
FN:54,_ZNK9__gnu_cxx5__ops14_Iter_less_valclINS_17__normal_iteratorIPN5Catch8TestCaseESt6vectorIS5_SaIS5_EEEES5_EEbT_RT0_
FN:54,_ZNK9__gnu_cxx5__ops14_Iter_less_valclINS_17__normal_iteratorIPKcSt6vectorIcSaIcEEEES4_EEbT_RT0_
FN:59,_ZN9__gnu_cxx5__ops15__iter_less_valEv
FN:63,_ZN9__gnu_cxx5__ops15__iter_comp_valENS0_15_Iter_less_iterE
FN:70,_ZNK9__gnu_cxx5__ops14_Val_less_iterclIN5Catch8TestCaseENS_17__normal_iteratorIPS4_St6vectorIS4_SaIS4_EEEEEEbRT_T0_
FN:70,_ZNK9__gnu_cxx5__ops14_Val_less_iterclIcNS_17__normal_iteratorIPcSt6vectorIcSaIcEEEEEEbRT_T0_
FN:79,_ZN9__gnu_cxx5__ops15__val_comp_iterENS0_15_Iter_less_iterE
FN:86,_ZNK9__gnu_cxx5__ops19_Iter_equal_to_iterclINS_17__normal_iteratorIPcSt6vectorIcSaIcEEEES8_EEbT_T0_
FN:91,_ZN9__gnu_cxx5__ops20__iter_equal_to_iterEv
FN:187,_ZN9__gnu_cxx5__ops16_Iter_equals_valIKNSt7__cxx1112basic_stringIcSt11char_traitsIcESaIcEEEEC2ERS8_
FN:187,_ZN9__gnu_cxx5__ops16_Iter_equals_valIKN5Catch11MessageInfoEEC2ERS4_
FN:187,_ZN9__gnu_cxx5__ops16_Iter_equals_valIKcEC2ERS2_
FN:193,_ZN9__gnu_cxx5__ops16_Iter_equals_valIKNSt7__cxx1112basic_stringIcSt11char_traitsIcESaIcEEEEclINS_17__normal_iteratorIPS8_St6vectorIS7_SaIS7_EEEEEEbT_
FN:193,_ZN9__gnu_cxx5__ops16_Iter_equals_valIKN5Catch11MessageInfoEEclINS_17__normal_iteratorIPS3_St6vectorIS3_SaIS3_EEEEEEbT_
FN:193,_ZN9__gnu_cxx5__ops16_Iter_equals_valIKcEclINS_17__normal_iteratorIPS2_NSt7__cxx1112basic_stringIcSt11char_traitsIcESaIcEEEEEEEbT_
FN:199,_ZN9__gnu_cxx5__ops17__iter_equals_valIKcEENS0_16_Iter_equals_valIT_EERS4_
FN:199,_ZN9__gnu_cxx5__ops17__iter_equals_valIKNSt7__cxx1112basic_stringIcSt11char_traitsIcESaIcEEEEENS0_16_Iter_equals_valIT_EERSA_
FN:199,_ZN9__gnu_cxx5__ops17__iter_equals_valIKN5Catch11MessageInfoEEENS0_16_Iter_equals_valIT_EERS6_
FN:223,_ZN9__gnu_cxx5__ops10_Iter_predIN5Catch16TestCaseTracking11TrackerBase14TrackerHasNameEED2Ev
FN:223,_ZN9__gnu_cxx5__ops10_Iter_predIN5Catch22CumulativeReporterBase13BySectionInfoEEC2ERKS5_
FN:223,_ZN9__gnu_cxx5__ops10_Iter_predIN5Catch16TestCaseTracking11TrackerBase14TrackerHasNameEEC2ERKS6_
FN:227,_ZN9__gnu_cxx5__ops10_Iter_predIN5Catch22CumulativeReporterBase13BySectionInfoEEC2ES4_
FN:227,_ZN9__gnu_cxx5__ops10_Iter_predIN5Catch16TestCaseTracking11TrackerBase14TrackerHasNameEEC2ES5_
FN:233,_ZN9__gnu_cxx5__ops10_Iter_predIN5Catch16TestCaseTracking11TrackerBase14TrackerHasNameEEclINS_17__normal_iteratorIPNS2_3PtrINS3_8ITrackerEEESt6vectorISB_SaISB_EEEEEEbT_
FN:233,_ZN9__gnu_cxx5__ops10_Iter_predIN5Catch22CumulativeReporterBase13BySectionInfoEEclINS_17__normal_iteratorIPNS2_3PtrINS3_11SectionNodeEEESt6vectorISA_SaISA_EEEEEEbT_
FN:239,_ZN9__gnu_cxx5__ops11__pred_iterIN5Catch16TestCaseTracking11TrackerBase14TrackerHasNameEEENS0_10_Iter_predIT_EES7_
FN:239,_ZN9__gnu_cxx5__ops11__pred_iterIN5Catch22CumulativeReporterBase13BySectionInfoEEENS0_10_Iter_predIT_EES6_
FNDA:0,_ZNK9__gnu_cxx5__ops15_Iter_less_iterclINS_17__normal_iteratorIPcSt6vectorIcSaIcEEEES8_EEbT_T0_
FNDA:0,_ZNK9__gnu_cxx5__ops15_Iter_less_iterclINS_17__normal_iteratorIPN5Catch8TestCaseESt6vectorIS5_SaIS5_EEEESA_EEbT_T0_
FNDA:594,_ZN9__gnu_cxx5__ops16__iter_less_iterEv
FNDA:0,_ZNK9__gnu_cxx5__ops14_Iter_less_valclINS_17__normal_iteratorIPcSt6vectorIcSaIcEEEEcEEbT_RT0_
FNDA:24064,_ZNK9__gnu_cxx5__ops14_Iter_less_valclINS_17__normal_iteratorIPKcSt6vectorIcSaIcEEEES4_EEbT_RT0_
FNDA:0,_ZNK9__gnu_cxx5__ops14_Iter_less_valclINS_17__normal_iteratorIPN5Catch8TestCaseESt6vectorIS5_SaIS5_EEEES5_EEbT_RT0_
FNDA:24064,_ZN9__gnu_cxx5__ops15__iter_less_valEv
FNDA:0,_ZN9__gnu_cxx5__ops15__iter_comp_valENS0_15_Iter_less_iterE
FNDA:0,_ZNK9__gnu_cxx5__ops14_Val_less_iterclIcNS_17__normal_iteratorIPcSt6vectorIcSaIcEEEEEEbRT_T0_
FNDA:0,_ZNK9__gnu_cxx5__ops14_Val_less_iterclIN5Catch8TestCaseENS_17__normal_iteratorIPS4_St6vectorIS4_SaIS4_EEEEEEbRT_T0_
FNDA:249500,_ZN9__gnu_cxx5__ops15__val_comp_iterENS0_15_Iter_less_iterE
FNDA:0,_ZNK9__gnu_cxx5__ops19_Iter_equal_to_iterclINS_17__normal_iteratorIPcSt6vectorIcSaIcEEEES8_EEbT_T0_
FNDA:94,_ZN9__gnu_cxx5__ops20__iter_equal_to_iterEv
FNDA:0,_ZN9__gnu_cxx5__ops16_Iter_equals_valIKN5Catch11MessageInfoEEC2ERS4_
FNDA:0,_ZN9__gnu_cxx5__ops16_Iter_equals_valIKcEC2ERS2_
FNDA:23970,_ZN9__gnu_cxx5__ops16_Iter_equals_valIKNSt7__cxx1112basic_stringIcSt11char_traitsIcESaIcEEEEC2ERS8_
FNDA:0,_ZN9__gnu_cxx5__ops16_Iter_equals_valIKcEclINS_17__normal_iteratorIPS2_NSt7__cxx1112basic_stringIcSt11char_traitsIcESaIcEEEEEEEbT_
FNDA:0,_ZN9__gnu_cxx5__ops16_Iter_equals_valIKNSt7__cxx1112basic_stringIcSt11char_traitsIcESaIcEEEEclINS_17__normal_iteratorIPS8_St6vectorIS7_SaIS7_EEEEEEbT_
FNDA:0,_ZN9__gnu_cxx5__ops16_Iter_equals_valIKN5Catch11MessageInfoEEclINS_17__normal_iteratorIPS3_St6vectorIS3_SaIS3_EEEEEEbT_
FNDA:0,_ZN9__gnu_cxx5__ops17__iter_equals_valIKN5Catch11MessageInfoEEENS0_16_Iter_equals_valIT_EERS6_
FNDA:0,_ZN9__gnu_cxx5__ops17__iter_equals_valIKcEENS0_16_Iter_equals_valIT_EERS4_
FNDA:23970,_ZN9__gnu_cxx5__ops17__iter_equals_valIKNSt7__cxx1112basic_stringIcSt11char_traitsIcESaIcEEEEENS0_16_Iter_equals_valIT_EERSA_
FNDA:0,_ZN9__gnu_cxx5__ops10_Iter_predIN5Catch22CumulativeReporterBase13BySectionInfoEEC2ERKS5_
FNDA:6,_ZN9__gnu_cxx5__ops10_Iter_predIN5Catch16TestCaseTracking11TrackerBase14TrackerHasNameEEC2ERKS6_
FNDA:12,_ZN9__gnu_cxx5__ops10_Iter_predIN5Catch16TestCaseTracking11TrackerBase14TrackerHasNameEED2Ev
FNDA:0,_ZN9__gnu_cxx5__ops10_Iter_predIN5Catch22CumulativeReporterBase13BySectionInfoEEC2ES4_
FNDA:6,_ZN9__gnu_cxx5__ops10_Iter_predIN5Catch16TestCaseTracking11TrackerBase14TrackerHasNameEEC2ES5_
FNDA:0,_ZN9__gnu_cxx5__ops10_Iter_predIN5Catch22CumulativeReporterBase13BySectionInfoEEclINS_17__normal_iteratorIPNS2_3PtrINS3_11SectionNodeEEESt6vectorISA_SaISA_EEEEEEbT_
FNDA:0,_ZN9__gnu_cxx5__ops10_Iter_predIN5Catch16TestCaseTracking11TrackerBase14TrackerHasNameEEclINS_17__normal_iteratorIPNS2_3PtrINS3_8ITrackerEEESt6vectorISB_SaISB_EEEEEEbT_
FNDA:0,_ZN9__gnu_cxx5__ops11__pred_iterIN5Catch22CumulativeReporterBase13BySectionInfoEEENS0_10_Iter_predIT_EES6_
FNDA:6,_ZN9__gnu_cxx5__ops11__pred_iterIN5Catch16TestCaseTracking11TrackerBase14TrackerHasNameEEENS0_10_Iter_predIT_EES7_
FNF:31
FNH:11
DA:42,0
DA:43,0
DA:47,594
DA:48,594
DA:54,24064
DA:55,24064
DA:59,24064
DA:60,24064
DA:63,0
DA:64,0
DA:70,0
DA:71,0
DA:79,249500
DA:80,249500
DA:86,0
DA:87,0
DA:91,94
DA:92,94
DA:187,23970
DA:188,23970
DA:189,23970
DA:193,0
DA:194,0
DA:199,23970
DA:200,23970
DA:223,18
DA:227,6
DA:228,6
DA:229,6
DA:233,0
DA:234,0
DA:239,6
DA:240,6
LF:33
LH:21
end_of_record
SF:/usr/include/c++/5/bits/regex.h
FN:87,_ZNSt7__cxx1112regex_traitsIcED2Ev
FN:102,_ZNSt7__cxx1112regex_traitsIcE10_RegexMaskC2Eth
FN:108,_ZNKSt7__cxx1112regex_traitsIcE10_RegexMaskanES2_
FN:115,_ZNKSt7__cxx1112regex_traitsIcE10_RegexMaskorES2_
FN:137,_ZNSt7__cxx1112regex_traitsIcE10_RegexMaskoRES2_
FN:145,_ZNKSt7__cxx1112regex_traitsIcE10_RegexMaskeqES2_
FN:153,_ZNKSt7__cxx1112regex_traitsIcE10_RegexMaskneES2_
FN:164,_ZNSt7__cxx1112regex_traitsIcEC2Ev
FN:188,_ZNKSt7__cxx1112regex_traitsIcE9translateEc
FN:201,_ZNKSt7__cxx1112regex_traitsIcE16translate_nocaseEc
FN:230,_ZNKSt7__cxx1112regex_traitsIcE9transformIN9__gnu_cxx17__normal_iteratorIPKcNS_12basic_stringIcSt11char_traitsIcESaIcEEEEEEESB_T_SD_
FN:230,_ZNKSt7__cxx1112regex_traitsIcE9transformIN9__gnu_cxx17__normal_iteratorIPcNS_12basic_stringIcSt11char_traitsIcESaIcEEEEEEESA_T_SC_
FN:230,_ZNKSt7__cxx1112regex_traitsIcE9transformIPcEENS_12basic_stringIcSt11char_traitsIcESaIcEEET_S9_
FN:254,_ZNKSt7__cxx1112regex_traitsIcE17transform_primaryIPcEENS_12basic_stringIcSt11char_traitsIcESaIcEEET_S9_
FN:254,_ZNKSt7__cxx1112regex_traitsIcE17transform_primaryIPKcEENS_12basic_stringIcSt11char_traitsIcESaIcEEET_SA_
FN:366,_ZNSt7__cxx1112regex_traitsIcE5imbueESt6locale
FN:490,_ZNSt7__cxx1111basic_regexIcNS_12regex_traitsIcEEEC2ISt11char_traitsIcESaIcEEERKNS_12basic_stringIcT_T0_EENSt15regex_constants18syntax_option_typeE
FN:510,_ZNSt7__cxx1111basic_regexIcNS_12regex_traitsIcEEEC2IPKcEET_S7_NSt15regex_constants18syntax_option_typeE
FN:530,_ZNSt7__cxx1111basic_regexIcNS_12regex_traitsIcEEED2Ev
FN:763,_ZNSt7__cxx1111basic_regexIcNS_12regex_traitsIcEEEC2IPKcEET_S7_St6localeNSt15regex_constants18syntax_option_typeE
FN:821,_ZNSt7__cxx119sub_matchIN9__gnu_cxx17__normal_iteratorIPKcNS_12basic_stringIcSt11char_traitsIcESaIcEEEEEEaSERKSB_
FN:833,_ZNSt7__cxx119sub_matchIN9__gnu_cxx17__normal_iteratorIPKcNS_12basic_stringIcSt11char_traitsIcESaIcEEEEEEC2Ev
FN:1562,_ZNSt7__cxx1113match_resultsIN9__gnu_cxx17__normal_iteratorIPKcNS_12basic_stringIcSt11char_traitsIcESaIcEEEEESaINS_9sub_matchISA_EEEEC2ERKSD_
FN:1591,_ZNSt7__cxx1113match_resultsIN9__gnu_cxx17__normal_iteratorIPKcNS_12basic_stringIcSt11char_traitsIcESaIcEEEEESaINS_9sub_matchISA_EEEED2Ev
FN:1869,_ZNSt7__cxx1113match_resultsIN9__gnu_cxx17__normal_iteratorIPKcNS_12basic_stringIcSt11char_traitsIcESaIcEEEEESaINS_9sub_matchISA_EEEE9_M_resizeEj
FN:1885,_ZNSt7__cxx1113match_resultsIN9__gnu_cxx17__normal_iteratorIPKcNS_12basic_stringIcSt11char_traitsIcESaIcEEEEESaINS_9sub_matchISA_EEEE9_M_prefixEv
FN:1893,_ZNSt7__cxx1113match_resultsIN9__gnu_cxx17__normal_iteratorIPKcNS_12basic_stringIcSt11char_traitsIcESaIcEEEEESaINS_9sub_matchISA_EEEE9_M_suffixEv
FN:1982,_ZSt11regex_matchIN9__gnu_cxx17__normal_iteratorIPKcNSt7__cxx1112basic_stringIcSt11char_traitsIcESaIcEEEEESaINS4_9sub_matchISA_EEEcNS4_12regex_traitsIcEEEbT_SG_RNS4_13match_resultsISG_T0_EERKNS4_11basic_regexIT1_T2_EENSt15regex_constants15match_flag_typeE
FN:2010,_ZSt11regex_matchIN9__gnu_cxx17__normal_iteratorIPKcNSt7__cxx1112basic_stringIcSt11char_traitsIcESaIcEEEEEcNS4_12regex_traitsIcEEEbT_SD_RKNS4_11basic_regexIT0_T1_EENSt15regex_constants15match_flag_typeE
FN:2117,_ZSt11regex_matchISt11char_traitsIcESaIcEcNSt7__cxx1112regex_traitsIcEEEbRKNS3_12basic_stringIT1_T_T0_EERKNS3_11basic_regexIS7_T2_EENSt15regex_constants15match_flag_typeE
FNDA:2,_ZNSt7__cxx1112regex_traitsIcED2Ev
FNDA:94,_ZNSt7__cxx1112regex_traitsIcE10_RegexMaskC2Eth
FNDA:0,_ZNKSt7__cxx1112regex_traitsIcE10_RegexMaskanES2_
FNDA:0,_ZNKSt7__cxx1112regex_traitsIcE10_RegexMaskorES2_
FNDA:0,_ZNSt7__cxx1112regex_traitsIcE10_RegexMaskoRES2_
FNDA:0,_ZNKSt7__cxx1112regex_traitsIcE10_RegexMaskeqES2_
FNDA:0,_ZNKSt7__cxx1112regex_traitsIcE10_RegexMaskneES2_
FNDA:2,_ZNSt7__cxx1112regex_traitsIcEC2Ev
FNDA:0,_ZNKSt7__cxx1112regex_traitsIcE9translateEc
FNDA:0,_ZNKSt7__cxx1112regex_traitsIcE16translate_nocaseEc
FNDA:0,_ZNKSt7__cxx1112regex_traitsIcE9transformIN9__gnu_cxx17__normal_iteratorIPcNS_12basic_stringIcSt11char_traitsIcESaIcEEEEEEESA_T_SC_
FNDA:23970,_ZNKSt7__cxx1112regex_traitsIcE9transformIPcEENS_12basic_stringIcSt11char_traitsIcESaIcEEET_S9_
FNDA:0,_ZNKSt7__cxx1112regex_traitsIcE9transformIN9__gnu_cxx17__normal_iteratorIPKcNS_12basic_stringIcSt11char_traitsIcESaIcEEEEEEESB_T_SD_
FNDA:0,_ZNKSt7__cxx1112regex_traitsIcE17transform_primaryIPKcEENS_12basic_stringIcSt11char_traitsIcESaIcEEET_SA_
FNDA:23970,_ZNKSt7__cxx1112regex_traitsIcE17transform_primaryIPcEENS_12basic_stringIcSt11char_traitsIcESaIcEEET_S9_
FNDA:2,_ZNSt7__cxx1112regex_traitsIcE5imbueESt6locale
FNDA:2,_ZNSt7__cxx1111basic_regexIcNS_12regex_traitsIcEEEC2ISt11char_traitsIcESaIcEEERKNS_12basic_stringIcT_T0_EENSt15regex_constants18syntax_option_typeE
FNDA:2,_ZNSt7__cxx1111basic_regexIcNS_12regex_traitsIcEEEC2IPKcEET_S7_NSt15regex_constants18syntax_option_typeE
FNDA:2,_ZNSt7__cxx1111basic_regexIcNS_12regex_traitsIcEEED2Ev
FNDA:2,_ZNSt7__cxx1111basic_regexIcNS_12regex_traitsIcEEEC2IPKcEET_S7_St6localeNSt15regex_constants18syntax_option_typeE
FNDA:66375,_ZNSt7__cxx119sub_matchIN9__gnu_cxx17__normal_iteratorIPKcNS_12basic_stringIcSt11char_traitsIcESaIcEEEEEEaSERKSB_
FNDA:4008,_ZNSt7__cxx119sub_matchIN9__gnu_cxx17__normal_iteratorIPKcNS_12basic_stringIcSt11char_traitsIcESaIcEEEEEEC2Ev
FNDA:501,_ZNSt7__cxx1113match_resultsIN9__gnu_cxx17__normal_iteratorIPKcNS_12basic_stringIcSt11char_traitsIcESaIcEEEEESaINS_9sub_matchISA_EEEEC2ERKSD_
FNDA:501,_ZNSt7__cxx1113match_resultsIN9__gnu_cxx17__normal_iteratorIPKcNS_12basic_stringIcSt11char_traitsIcESaIcEEEEESaINS_9sub_matchISA_EEEED2Ev
FNDA:501,_ZNSt7__cxx1113match_resultsIN9__gnu_cxx17__normal_iteratorIPKcNS_12basic_stringIcSt11char_traitsIcESaIcEEEEESaINS_9sub_matchISA_EEEE9_M_resizeEj
FNDA:501,_ZNSt7__cxx1113match_resultsIN9__gnu_cxx17__normal_iteratorIPKcNS_12basic_stringIcSt11char_traitsIcESaIcEEEEESaINS_9sub_matchISA_EEEE9_M_prefixEv
FNDA:501,_ZNSt7__cxx1113match_resultsIN9__gnu_cxx17__normal_iteratorIPKcNS_12basic_stringIcSt11char_traitsIcESaIcEEEEESaINS_9sub_matchISA_EEEE9_M_suffixEv
FNDA:501,_ZSt11regex_matchIN9__gnu_cxx17__normal_iteratorIPKcNSt7__cxx1112basic_stringIcSt11char_traitsIcESaIcEEEEESaINS4_9sub_matchISA_EEEcNS4_12regex_traitsIcEEEbT_SG_RNS4_13match_resultsISG_T0_EERKNS4_11basic_regexIT1_T2_EENSt15regex_constants15match_flag_typeE
FNDA:501,_ZSt11regex_matchIN9__gnu_cxx17__normal_iteratorIPKcNSt7__cxx1112basic_stringIcSt11char_traitsIcESaIcEEEEEcNS4_12regex_traitsIcEEEbT_SD_RKNS4_11basic_regexIT0_T1_EENSt15regex_constants15match_flag_typeE
FNDA:501,_ZSt11regex_matchISt11char_traitsIcESaIcEcNSt7__cxx1112regex_traitsIcEEEbRKNS3_12basic_stringIT1_T_T0_EERKNS3_11basic_regexIS7_T2_EENSt15regex_constants15match_flag_typeE
FNF:30
FNH:20
DA:87,2
DA:102,94
DA:104,94
DA:105,94
DA:108,0
DA:110,0
DA:111,0
DA:115,0
DA:117,0
DA:118,0
DA:137,0
DA:138,0
DA:145,0
DA:147,0
DA:148,0
DA:149,0
DA:153,0
DA:154,0
DA:164,2
DA:188,0
DA:189,0
DA:201,0
DA:204,0
DA:205,0
DA:230,23970
DA:233,23970
DA:234,47940
DA:235,47940
DA:254,23970
DA:263,23970
DA:264,47940
DA:265,23970
DA:266,47940
DA:366,2
DA:368,2
DA:369,2
DA:490,2
DA:493,2
DA:494,2
DA:510,2
DA:512,2
DA:513,2
DA:530,2
DA:531,2
DA:763,2
DA:765,2
DA:767,4
DA:768,2
DA:821,66375
DA:833,4008
DA:1562,501
DA:1563,501
DA:1564,501
DA:1591,501
DA:1592,501
DA:1869,501
DA:1870,501
DA:1885,501
DA:1886,501
DA:1893,501
DA:1894,501
DA:1982,501
DA:1991,501
DA:2010,501
DA:2015,1002
DA:2016,1002
DA:2117,501
DA:2121,501
LF:68
LH:49
end_of_record
SF:/usr/include/c++/5/bits/regex.tcc
FN:55,_ZNSt8__detail17__regex_algo_implIN9__gnu_cxx17__normal_iteratorIPKcNSt7__cxx1112basic_stringIcSt11char_traitsIcESaIcEEEEESaINS5_9sub_matchISB_EEEcNS5_12regex_traitsIcEELNS_20_RegexExecutorPolicyE0ELb1EEEbT_SI_RNS5_13match_resultsISI_T0_EERKNS5_11basic_regexIT1_T2_EENSt15regex_constants15match_flag_typeE
FN:143,_ZNKSt7__cxx1112regex_traitsIcE18lookup_collatenameIPKcEENS_12basic_stringIcSt11char_traitsIcESaIcEEET_SA_
FN:299,_ZNKSt7__cxx1112regex_traitsIcE16lookup_classnameIPKcEENS1_10_RegexMaskET_S6_b
FN:343,_ZNKSt7__cxx1112regex_traitsIcE7isctypeEcNS1_10_RegexMaskE
FN:357,_ZNKSt7__cxx1112regex_traitsIcE5valueEci
FNDA:501,_ZNSt8__detail17__regex_algo_implIN9__gnu_cxx17__normal_iteratorIPKcNSt7__cxx1112basic_stringIcSt11char_traitsIcESaIcEEEEESaINS5_9sub_matchISB_EEEcNS5_12regex_traitsIcEELNS_20_RegexExecutorPolicyE0ELb1EEEbT_SI_RNS5_13match_resultsISI_T0_EERKNS5_11basic_regexIT1_T2_EENSt15regex_constants15match_flag_typeE
FNDA:0,_ZNKSt7__cxx1112regex_traitsIcE18lookup_collatenameIPKcEENS_12basic_stringIcSt11char_traitsIcESaIcEEET_SA_
FNDA:0,_ZNKSt7__cxx1112regex_traitsIcE16lookup_classnameIPKcEENS1_10_RegexMaskET_S6_b
FNDA:23970,_ZNKSt7__cxx1112regex_traitsIcE7isctypeEcNS1_10_RegexMaskE
FNDA:0,_ZNKSt7__cxx1112regex_traitsIcE5valueEci
FNF:5
FNH:2
DA:55,501
DA:61,501
DA:62,0
DA:64,501
DA:65,501
DA:66,501
DA:67,4509
DA:68,4008
DA:74,1002
DA:75,501
DA:82,0
DA:84,0
DA:91,1002
DA:93,501
DA:97,501
DA:99,4509
DA:100,4008
DA:101,1503
DA:102,501
DA:103,501
DA:106,501
DA:107,501
DA:108,501
DA:109,501
DA:110,501
DA:111,501
DA:125,0
DA:126,0
DA:128,0
DA:129,0
DA:132,501
DA:143,0
DA:147,0
DA:281,0
DA:282,0
DA:283,0
DA:285,0
DA:286,0
DA:288,0
DA:293,0
DA:299,0
DA:303,0
DA:325,0
DA:326,0
DA:327,0
DA:329,0
DA:330,0
DA:332,0
DA:334,0
DA:335,0
DA:336,0
DA:338,0
DA:343,23970
DA:347,23970
DA:351,47940
DA:352,47940
DA:357,0
DA:360,0
DA:362,0
DA:363,0
DA:364,0
DA:365,0
DA:366,0
DA:367,0
LF:64
LH:28
end_of_record
SF:/usr/include/c++/5/bits/regex_automaton.h
FN:92,_ZNSt8__detail11_State_baseC2ENS_7_OpcodeE
FN:111,_ZNSt8__detail6_StateINSt7__cxx1112regex_traitsIcEEEC2EOS4_
FN:111,_ZNSt8__detail6_StateINSt7__cxx1112regex_traitsIcEEED2Ev
FN:111,_ZNSt8__detail6_StateINSt7__cxx1112regex_traitsIcEEEC2ERKS4_
FN:117,_ZNSt8__detail6_StateINSt7__cxx1112regex_traitsIcEEEC2ENS_7_OpcodeE
FN:126,_ZNSt8__detail9_NFA_baseC2ENSt15regex_constants18syntax_option_typeE
FN:134,_ZNSt8__detail9_NFA_baseD2Ev
FN:142,_ZNKSt8__detail9_NFA_base8_M_startEv
FN:146,_ZNKSt8__detail9_NFA_base12_M_sub_countEv
FN:157,_ZNSt8__detail4_NFAINSt7__cxx1112regex_traitsIcEEED2Ev
FN:163,_ZNSt8__detail4_NFAINSt7__cxx1112regex_traitsIcEEEC2ERKSt6localeNSt15regex_constants18syntax_option_typeE
FN:172,_ZNSt8__detail4_NFAINSt7__cxx1112regex_traitsIcEEE16_M_insert_acceptEv
FN:179,_ZNSt8__detail4_NFAINSt7__cxx1112regex_traitsIcEEE13_M_insert_altEllb
FN:190,_ZNSt8__detail4_NFAINSt7__cxx1112regex_traitsIcEEE16_M_insert_repeatEllb
FN:202,_ZNSt8__detail4_NFAINSt7__cxx1112regex_traitsIcEEE17_M_insert_matcherESt8functionIFbcEE
FN:210,_ZNSt8__detail4_NFAINSt7__cxx1112regex_traitsIcEEE23_M_insert_subexpr_beginEv
FN:220,_ZNSt8__detail4_NFAINSt7__cxx1112regex_traitsIcEEE21_M_insert_subexpr_endEv
FN:232,_ZNSt8__detail4_NFAINSt7__cxx1112regex_traitsIcEEE20_M_insert_line_beginEv
FN:236,_ZNSt8__detail4_NFAINSt7__cxx1112regex_traitsIcEEE18_M_insert_line_endEv
FN:240,_ZNSt8__detail4_NFAINSt7__cxx1112regex_traitsIcEEE20_M_insert_word_boundEb
FN:248,_ZNSt8__detail4_NFAINSt7__cxx1112regex_traitsIcEEE19_M_insert_lookaheadElb
FN:257,_ZNSt8__detail4_NFAINSt7__cxx1112regex_traitsIcEEE15_M_insert_dummyEv
FN:261,_ZNSt8__detail4_NFAINSt7__cxx1112regex_traitsIcEEE15_M_insert_stateENS_6_StateIS3_EE
FN:291,_ZNSt8__detail9_StateSeqINSt7__cxx1112regex_traitsIcEEEC2ERNS_4_NFAIS3_EEl
FN:295,_ZNSt8__detail9_StateSeqINSt7__cxx1112regex_traitsIcEEEC2ERNS_4_NFAIS3_EEll
FN:301,_ZNSt8__detail9_StateSeqINSt7__cxx1112regex_traitsIcEEE9_M_appendEl
FN:309,_ZNSt8__detail9_StateSeqINSt7__cxx1112regex_traitsIcEEE9_M_appendERKS4_
FNDA:1300,_ZNSt8__detail11_State_baseC2ENS_7_OpcodeE
FNDA:2046,_ZNSt8__detail6_StateINSt7__cxx1112regex_traitsIcEEEC2ERKS4_
FNDA:2446,_ZNSt8__detail6_StateINSt7__cxx1112regex_traitsIcEEEC2EOS4_
FNDA:5792,_ZNSt8__detail6_StateINSt7__cxx1112regex_traitsIcEEED2Ev
FNDA:1300,_ZNSt8__detail6_StateINSt7__cxx1112regex_traitsIcEEEC2ENS_7_OpcodeE
FNDA:2,_ZNSt8__detail9_NFA_baseC2ENSt15regex_constants18syntax_option_typeE
FNDA:2,_ZNSt8__detail9_NFA_baseD2Ev
FNDA:503,_ZNKSt8__detail9_NFA_base8_M_startEv
FNDA:501,_ZNKSt8__detail9_NFA_base12_M_sub_countEv
FNDA:2,_ZNSt8__detail4_NFAINSt7__cxx1112regex_traitsIcEEED2Ev
FNDA:2,_ZNSt8__detail4_NFAINSt7__cxx1112regex_traitsIcEEEC2ERKSt6localeNSt15regex_constants18syntax_option_typeE
FNDA:2,_ZNSt8__detail4_NFAINSt7__cxx1112regex_traitsIcEEE16_M_insert_acceptEv
FNDA:24,_ZNSt8__detail4_NFAINSt7__cxx1112regex_traitsIcEEE13_M_insert_altEllb
FNDA:192,_ZNSt8__detail4_NFAINSt7__cxx1112regex_traitsIcEEE16_M_insert_repeatEllb
FNDA:910,_ZNSt8__detail4_NFAINSt7__cxx1112regex_traitsIcEEE17_M_insert_matcherESt8functionIFbcEE
FNDA:10,_ZNSt8__detail4_NFAINSt7__cxx1112regex_traitsIcEEE23_M_insert_subexpr_beginEv
FNDA:10,_ZNSt8__detail4_NFAINSt7__cxx1112regex_traitsIcEEE21_M_insert_subexpr_endEv
FNDA:0,_ZNSt8__detail4_NFAINSt7__cxx1112regex_traitsIcEEE20_M_insert_line_beginEv
FNDA:0,_ZNSt8__detail4_NFAINSt7__cxx1112regex_traitsIcEEE18_M_insert_line_endEv
FNDA:0,_ZNSt8__detail4_NFAINSt7__cxx1112regex_traitsIcEEE20_M_insert_word_boundEb
FNDA:0,_ZNSt8__detail4_NFAINSt7__cxx1112regex_traitsIcEEE19_M_insert_lookaheadElb
FNDA:152,_ZNSt8__detail4_NFAINSt7__cxx1112regex_traitsIcEEE15_M_insert_dummyEv
FNDA:1300,_ZNSt8__detail4_NFAINSt7__cxx1112regex_traitsIcEEE15_M_insert_stateENS_6_StateIS3_EE
FNDA:1078,_ZNSt8__detail9_StateSeqINSt7__cxx1112regex_traitsIcEEEC2ERNS_4_NFAIS3_EEl
FNDA:24,_ZNSt8__detail9_StateSeqINSt7__cxx1112regex_traitsIcEEEC2ERNS_4_NFAIS3_EEll
FNDA:318,_ZNSt8__detail9_StateSeqINSt7__cxx1112regex_traitsIcEEE9_M_appendEl
FNDA:958,_ZNSt8__detail9_StateSeqINSt7__cxx1112regex_traitsIcEEE9_M_appendERKS4_
FNF:27
FNH:23
DA:92,1300
DA:93,1300
DA:94,1300
DA:111,10284
DA:117,1300
DA:126,2
DA:128,2
DA:129,2
DA:134,2
DA:142,503
DA:143,503
DA:146,501
DA:147,501
DA:157,2
DA:163,2
DA:164,2
DA:165,2
DA:172,2
DA:174,2
DA:175,2
DA:179,24
DA:181,48
DA:184,24
DA:185,24
DA:186,48
DA:190,192
DA:192,384
DA:195,192
DA:196,192
DA:197,192
DA:198,384
DA:202,910
DA:204,1820
DA:205,910
DA:206,1820
DA:210,10
DA:212,10
DA:213,10
DA:214,20
DA:215,10
DA:216,20
DA:220,10
DA:222,20
DA:223,10
DA:224,10
DA:225,20
DA:232,0
DA:233,0
DA:236,0
DA:237,0
DA:240,0
DA:242,0
DA:243,0
DA:244,0
DA:248,0
DA:250,0
DA:251,0
DA:252,0
DA:253,0
DA:257,152
DA:258,152
DA:261,1300
DA:263,1300
DA:264,1300
DA:265,0
DA:266,1300
DA:291,1078
DA:292,1078
DA:293,1078
DA:295,24
DA:296,24
DA:297,24
DA:301,318
DA:303,318
DA:304,318
DA:305,318
DA:309,958
DA:311,958
DA:312,958
DA:313,958
LF:80
LH:66
end_of_record
SF:/usr/include/c++/5/bits/regex_automaton.tcc
FN:149,_ZNSt8__detail4_NFAINSt7__cxx1112regex_traitsIcEEE17_M_insert_backrefEm
FN:171,_ZNSt8__detail4_NFAINSt7__cxx1112regex_traitsIcEEE18_M_eliminate_dummyEv
FN:190,_ZNSt8__detail9_StateSeqINSt7__cxx1112regex_traitsIcEEE8_M_cloneEv
FNDA:0,_ZNSt8__detail4_NFAINSt7__cxx1112regex_traitsIcEEE17_M_insert_backrefEm
FNDA:2,_ZNSt8__detail4_NFAINSt7__cxx1112regex_traitsIcEEE18_M_eliminate_dummyEv
FNDA:0,_ZNSt8__detail9_StateSeqINSt7__cxx1112regex_traitsIcEEE8_M_cloneEv
FNF:3
FNH:1
DA:149,0
DA:158,0
DA:159,0
DA:160,0
DA:161,0
DA:162,0
DA:163,0
DA:164,0
DA:165,0
DA:166,0
DA:171,2
DA:173,1302
DA:175,4092
DA:176,1796
DA:177,498
DA:178,3660
DA:179,1276
DA:180,1084
DA:181,432
DA:182,216
DA:183,0
DA:185,2
DA:190,0
DA:192,0
DA:193,0
DA:194,0
DA:195,0
DA:197,0
DA:198,0
DA:199,0
DA:201,0
DA:202,0
DA:203,0
DA:204,0
DA:205,0
DA:206,0
DA:207,0
DA:208,0
DA:209,0
DA:210,0
DA:211,0
DA:212,0
DA:213,0
DA:215,0
DA:217,0
DA:218,0
DA:219,0
DA:222,0
DA:224,0
DA:225,0
DA:226,0
DA:227,0
DA:230,0
DA:233,0
LF:54
LH:11
end_of_record
SF:/usr/include/c++/5/bits/regex_compiler.h
FN:51,_ZNSt8__detail9_CompilerINSt7__cxx1112regex_traitsIcEEED2Ev
FN:63,_ZNSt8__detail9_CompilerINSt7__cxx1112regex_traitsIcEEE10_M_get_nfaEv
FN:134,_ZNSt8__detail9_CompilerINSt7__cxx1112regex_traitsIcEEE6_M_popEv
FN:187,_ZNSt8__detail13__compile_nfaIPKcNSt7__cxx1112regex_traitsIcEEEENSt9enable_ifIXsrNS_27__is_contiguous_normal_iterIT_EE5valueESt10shared_ptrIKNS_4_NFAIT0_EEEE4typeES8_S8_RKNSC_11locale_typeENSt15regex_constants18syntax_option_typeE
FN:220,_ZNSt8__detail16_RegexTranslatorINSt7__cxx1112regex_traitsIcEELb1ELb1EEC2ERKS3_
FN:220,_ZNSt8__detail16_RegexTranslatorINSt7__cxx1112regex_traitsIcEELb1ELb0EEC2ERKS3_
FN:220,_ZNSt8__detail16_RegexTranslatorINSt7__cxx1112regex_traitsIcEELb0ELb1EEC2ERKS3_
FN:225,_ZNKSt8__detail16_RegexTranslatorINSt7__cxx1112regex_traitsIcEELb1ELb1EE12_M_translateEc
FN:225,_ZNKSt8__detail16_RegexTranslatorINSt7__cxx1112regex_traitsIcEELb0ELb1EE12_M_translateEc
FN:225,_ZNKSt8__detail16_RegexTranslatorINSt7__cxx1112regex_traitsIcEELb1ELb0EE12_M_translateEc
FN:236,_ZNKSt8__detail16_RegexTranslatorINSt7__cxx1112regex_traitsIcEELb1ELb1EE12_M_transformEc
FN:236,_ZNKSt8__detail16_RegexTranslatorINSt7__cxx1112regex_traitsIcEELb1ELb0EE12_M_transformEc
FN:236,_ZNKSt8__detail16_RegexTranslatorINSt7__cxx1112regex_traitsIcEELb0ELb1EE12_M_transformEc
FN:244,_ZNKSt8__detail16_RegexTranslatorINSt7__cxx1112regex_traitsIcEELb1ELb0EE17_M_transform_implEcSt17integral_constantIbLb0EE
FN:248,_ZNKSt8__detail16_RegexTranslatorINSt7__cxx1112regex_traitsIcEELb0ELb1EE17_M_transform_implEcSt17integral_constantIbLb1EE
FN:248,_ZNKSt8__detail16_RegexTranslatorINSt7__cxx1112regex_traitsIcEELb1ELb1EE17_M_transform_implEcSt17integral_constantIbLb1EE
FN:265,_ZNSt8__detail16_RegexTranslatorINSt7__cxx1112regex_traitsIcEELb0ELb0EEC2ERKS3_
FN:269,_ZNKSt8__detail16_RegexTranslatorINSt7__cxx1112regex_traitsIcEELb0ELb0EE12_M_translateEc
FN:273,_ZNKSt8__detail16_RegexTranslatorINSt7__cxx1112regex_traitsIcEELb0ELb0EE12_M_transformEc
FN:287,_ZNSt8__detail11_AnyMatcherINSt7__cxx1112regex_traitsIcEELb0ELb0ELb1EEC2ERKS3_
FN:287,_ZNSt8__detail11_AnyMatcherINSt7__cxx1112regex_traitsIcEELb0ELb0ELb0EEC2ERKS3_
FN:287,_ZNSt8__detail11_AnyMatcherINSt7__cxx1112regex_traitsIcEELb0ELb1ELb1EEC2ERKS3_
FN:287,_ZNSt8__detail11_AnyMatcherINSt7__cxx1112regex_traitsIcEELb0ELb1ELb0EEC2ERKS3_
FN:292,_ZNKSt8__detail11_AnyMatcherINSt7__cxx1112regex_traitsIcEELb0ELb0ELb0EEclEc
FN:292,_ZNKSt8__detail11_AnyMatcherINSt7__cxx1112regex_traitsIcEELb0ELb1ELb0EEclEc
FN:292,_ZNKSt8__detail11_AnyMatcherINSt7__cxx1112regex_traitsIcEELb0ELb1ELb1EEclEc
FN:292,_ZNKSt8__detail11_AnyMatcherINSt7__cxx1112regex_traitsIcEELb0ELb0ELb1EEclEc
FN:308,_ZNSt8__detail11_AnyMatcherINSt7__cxx1112regex_traitsIcEELb1ELb0ELb0EEC2ERKS3_
FN:308,_ZNSt8__detail11_AnyMatcherINSt7__cxx1112regex_traitsIcEELb1ELb1ELb0EEC2ERKS3_
FN:308,_ZNSt8__detail11_AnyMatcherINSt7__cxx1112regex_traitsIcEELb1ELb0ELb1EEC2ERKS3_
FN:308,_ZNSt8__detail11_AnyMatcherINSt7__cxx1112regex_traitsIcEELb1ELb1ELb1EEC2ERKS3_
FN:313,_ZNKSt8__detail11_AnyMatcherINSt7__cxx1112regex_traitsIcEELb1ELb1ELb1EEclEc
FN:313,_ZNKSt8__detail11_AnyMatcherINSt7__cxx1112regex_traitsIcEELb1ELb0ELb0EEclEc
FN:313,_ZNKSt8__detail11_AnyMatcherINSt7__cxx1112regex_traitsIcEELb1ELb1ELb0EEclEc
FN:313,_ZNKSt8__detail11_AnyMatcherINSt7__cxx1112regex_traitsIcEELb1ELb0ELb1EEclEc
FN:317,_ZNKSt8__detail11_AnyMatcherINSt7__cxx1112regex_traitsIcEELb1ELb1ELb0EE8_M_applyEcSt17integral_constantIbLb1EE
FN:317,_ZNKSt8__detail11_AnyMatcherINSt7__cxx1112regex_traitsIcEELb1ELb1ELb1EE8_M_applyEcSt17integral_constantIbLb1EE
FN:317,_ZNKSt8__detail11_AnyMatcherINSt7__cxx1112regex_traitsIcEELb1ELb0ELb0EE8_M_applyEcSt17integral_constantIbLb1EE
FN:317,_ZNKSt8__detail11_AnyMatcherINSt7__cxx1112regex_traitsIcEELb1ELb0ELb1EE8_M_applyEcSt17integral_constantIbLb1EE
FN:345,_ZNSt8__detail12_CharMatcherINSt7__cxx1112regex_traitsIcEELb0ELb0EEC2EcRKS3_
FN:345,_ZNSt8__detail12_CharMatcherINSt7__cxx1112regex_traitsIcEELb1ELb1EEC2EcRKS3_
FN:345,_ZNSt8__detail12_CharMatcherINSt7__cxx1112regex_traitsIcEELb1ELb0EEC2EcRKS3_
FN:345,_ZNSt8__detail12_CharMatcherINSt7__cxx1112regex_traitsIcEELb0ELb1EEC2EcRKS3_
FN:350,_ZNKSt8__detail12_CharMatcherINSt7__cxx1112regex_traitsIcEELb0ELb1EEclEc
FN:350,_ZNKSt8__detail12_CharMatcherINSt7__cxx1112regex_traitsIcEELb1ELb0EEclEc
FN:350,_ZNKSt8__detail12_CharMatcherINSt7__cxx1112regex_traitsIcEELb1ELb1EEclEc
FN:350,_ZNKSt8__detail12_CharMatcherINSt7__cxx1112regex_traitsIcEELb0ELb0EEclEc
FN:359,_ZNSt8__detail15_BracketMatcherINSt7__cxx1112regex_traitsIcEELb0ELb1EED2Ev
FN:359,_ZNSt8__detail15_BracketMatcherINSt7__cxx1112regex_traitsIcEELb0ELb0EED2Ev
FN:359,_ZNSt8__detail15_BracketMatcherINSt7__cxx1112regex_traitsIcEELb1ELb0EEC2ERKS4_
FN:359,_ZNSt8__detail15_BracketMatcherINSt7__cxx1112regex_traitsIcEELb0ELb0EEC2EOS4_
FN:359,_ZNSt8__detail15_BracketMatcherINSt7__cxx1112regex_traitsIcEELb1ELb0EED2Ev
FN:359,_ZNSt8__detail15_BracketMatcherINSt7__cxx1112regex_traitsIcEELb1ELb1EEC2ERKS4_
FN:359,_ZNSt8__detail15_BracketMatcherINSt7__cxx1112regex_traitsIcEELb0ELb0EEC2ERKS4_
FN:359,_ZNSt8__detail15_BracketMatcherINSt7__cxx1112regex_traitsIcEELb1ELb1EED2Ev
FN:359,_ZNSt8__detail15_BracketMatcherINSt7__cxx1112regex_traitsIcEELb0ELb1EEC2ERKS4_
FN:359,_ZNSt8__detail15_BracketMatcherINSt7__cxx1112regex_traitsIcEELb1ELb1EEC2EOS4_
FN:359,_ZNSt8__detail15_BracketMatcherINSt7__cxx1112regex_traitsIcEELb0ELb1EEC2EOS4_
FN:359,_ZNSt8__detail15_BracketMatcherINSt7__cxx1112regex_traitsIcEELb1ELb0EEC2EOS4_
FN:369,_ZNSt8__detail15_BracketMatcherINSt7__cxx1112regex_traitsIcEELb1ELb1EEC2EbRKS3_
FN:369,_ZNSt8__detail15_BracketMatcherINSt7__cxx1112regex_traitsIcEELb0ELb1EEC2EbRKS3_
FN:369,_ZNSt8__detail15_BracketMatcherINSt7__cxx1112regex_traitsIcEELb1ELb0EEC2EbRKS3_
FN:369,_ZNSt8__detail15_BracketMatcherINSt7__cxx1112regex_traitsIcEELb0ELb0EEC2EbRKS3_
FN:379,_ZNKSt8__detail15_BracketMatcherINSt7__cxx1112regex_traitsIcEELb1ELb1EEclEc
FN:379,_ZNKSt8__detail15_BracketMatcherINSt7__cxx1112regex_traitsIcEELb1ELb0EEclEc
FN:379,_ZNKSt8__detail15_BracketMatcherINSt7__cxx1112regex_traitsIcEELb0ELb0EEclEc
FN:379,_ZNKSt8__detail15_BracketMatcherINSt7__cxx1112regex_traitsIcEELb0ELb1EEclEc
FN:386,_ZNSt8__detail15_BracketMatcherINSt7__cxx1112regex_traitsIcEELb0ELb1EE11_M_add_charEc
FN:386,_ZNSt8__detail15_BracketMatcherINSt7__cxx1112regex_traitsIcEELb0ELb0EE11_M_add_charEc
FN:386,_ZNSt8__detail15_BracketMatcherINSt7__cxx1112regex_traitsIcEELb1ELb1EE11_M_add_charEc
FN:386,_ZNSt8__detail15_BracketMatcherINSt7__cxx1112regex_traitsIcEELb1ELb0EE11_M_add_charEc
FN:395,_ZNSt8__detail15_BracketMatcherINSt7__cxx1112regex_traitsIcEELb1ELb1EE22_M_add_collate_elementERKNS1_12basic_stringIcSt11char_traitsIcESaIcEEE
FN:395,_ZNSt8__detail15_BracketMatcherINSt7__cxx1112regex_traitsIcEELb1ELb0EE22_M_add_collate_elementERKNS1_12basic_stringIcSt11char_traitsIcESaIcEEE
FN:395,_ZNSt8__detail15_BracketMatcherINSt7__cxx1112regex_traitsIcEELb0ELb1EE22_M_add_collate_elementERKNS1_12basic_stringIcSt11char_traitsIcESaIcEEE
FN:395,_ZNSt8__detail15_BracketMatcherINSt7__cxx1112regex_traitsIcEELb0ELb0EE22_M_add_collate_elementERKNS1_12basic_stringIcSt11char_traitsIcESaIcEEE
FN:409,_ZNSt8__detail15_BracketMatcherINSt7__cxx1112regex_traitsIcEELb0ELb1EE24_M_add_equivalence_classERKNS1_12basic_stringIcSt11char_traitsIcESaIcEEE
FN:409,_ZNSt8__detail15_BracketMatcherINSt7__cxx1112regex_traitsIcEELb1ELb0EE24_M_add_equivalence_classERKNS1_12basic_stringIcSt11char_traitsIcESaIcEEE
FN:409,_ZNSt8__detail15_BracketMatcherINSt7__cxx1112regex_traitsIcEELb1ELb1EE24_M_add_equivalence_classERKNS1_12basic_stringIcSt11char_traitsIcESaIcEEE
FN:409,_ZNSt8__detail15_BracketMatcherINSt7__cxx1112regex_traitsIcEELb0ELb0EE24_M_add_equivalence_classERKNS1_12basic_stringIcSt11char_traitsIcESaIcEEE
FN:425,_ZNSt8__detail15_BracketMatcherINSt7__cxx1112regex_traitsIcEELb1ELb1EE22_M_add_character_classERKNS1_12basic_stringIcSt11char_traitsIcESaIcEEEb
FN:425,_ZNSt8__detail15_BracketMatcherINSt7__cxx1112regex_traitsIcEELb0ELb0EE22_M_add_character_classERKNS1_12basic_stringIcSt11char_traitsIcESaIcEEEb
FN:425,_ZNSt8__detail15_BracketMatcherINSt7__cxx1112regex_traitsIcEELb0ELb1EE22_M_add_character_classERKNS1_12basic_stringIcSt11char_traitsIcESaIcEEEb
FN:425,_ZNSt8__detail15_BracketMatcherINSt7__cxx1112regex_traitsIcEELb1ELb0EE22_M_add_character_classERKNS1_12basic_stringIcSt11char_traitsIcESaIcEEEb
FN:442,_ZNSt8__detail15_BracketMatcherINSt7__cxx1112regex_traitsIcEELb0ELb1EE13_M_make_rangeEcc
FN:442,_ZNSt8__detail15_BracketMatcherINSt7__cxx1112regex_traitsIcEELb1ELb1EE13_M_make_rangeEcc
FN:442,_ZNSt8__detail15_BracketMatcherINSt7__cxx1112regex_traitsIcEELb1ELb0EE13_M_make_rangeEcc
FN:442,_ZNSt8__detail15_BracketMatcherINSt7__cxx1112regex_traitsIcEELb0ELb0EE13_M_make_rangeEcc
FN:454,_ZNSt8__detail15_BracketMatcherINSt7__cxx1112regex_traitsIcEELb0ELb1EE8_M_readyEv
FN:454,_ZNSt8__detail15_BracketMatcherINSt7__cxx1112regex_traitsIcEELb0ELb0EE8_M_readyEv
FN:454,_ZNSt8__detail15_BracketMatcherINSt7__cxx1112regex_traitsIcEELb1ELb0EE8_M_readyEv
FN:454,_ZNSt8__detail15_BracketMatcherINSt7__cxx1112regex_traitsIcEELb1ELb1EE8_M_readyEv
FN:485,_ZNKSt8__detail15_BracketMatcherINSt7__cxx1112regex_traitsIcEELb0ELb1EE8_M_applyEcSt17integral_constantIbLb1EE
FN:485,_ZNKSt8__detail15_BracketMatcherINSt7__cxx1112regex_traitsIcEELb0ELb0EE8_M_applyEcSt17integral_constantIbLb1EE
FN:485,_ZNKSt8__detail15_BracketMatcherINSt7__cxx1112regex_traitsIcEELb1ELb1EE8_M_applyEcSt17integral_constantIbLb1EE
FN:485,_ZNKSt8__detail15_BracketMatcherINSt7__cxx1112regex_traitsIcEELb1ELb0EE8_M_applyEcSt17integral_constantIbLb1EE
FN:489,_ZNSt8__detail15_BracketMatcherINSt7__cxx1112regex_traitsIcEELb0ELb0EE13_M_make_cacheESt17integral_constantIbLb1EE
FN:489,_ZNSt8__detail15_BracketMatcherINSt7__cxx1112regex_traitsIcEELb1ELb1EE13_M_make_cacheESt17integral_constantIbLb1EE
FN:489,_ZNSt8__detail15_BracketMatcherINSt7__cxx1112regex_traitsIcEELb0ELb1EE13_M_make_cacheESt17integral_constantIbLb1EE
FN:489,_ZNSt8__detail15_BracketMatcherINSt7__cxx1112regex_traitsIcEELb1ELb0EE13_M_make_cacheESt17integral_constantIbLb1EE
FNDA:2,_ZNSt8__detail9_CompilerINSt7__cxx1112regex_traitsIcEEED2Ev
FNDA:2,_ZNSt8__detail9_CompilerINSt7__cxx1112regex_traitsIcEEE10_M_get_nfaEv
FNDA:2086,_ZNSt8__detail9_CompilerINSt7__cxx1112regex_traitsIcEEE6_M_popEv
FNDA:2,_ZNSt8__detail13__compile_nfaIPKcNSt7__cxx1112regex_traitsIcEEEENSt9enable_ifIXsrNS_27__is_contiguous_normal_iterIT_EE5valueESt10shared_ptrIKNS_4_NFAIT0_EEEE4typeES8_S8_RKNSC_11locale_typeENSt15regex_constants18syntax_option_typeE
FNDA:0,_ZNSt8__detail16_RegexTranslatorINSt7__cxx1112regex_traitsIcEELb1ELb1EEC2ERKS3_
FNDA:0,_ZNSt8__detail16_RegexTranslatorINSt7__cxx1112regex_traitsIcEELb1ELb0EEC2ERKS3_
FNDA:0,_ZNSt8__detail16_RegexTranslatorINSt7__cxx1112regex_traitsIcEELb0ELb1EEC2ERKS3_
FNDA:0,_ZNKSt8__detail16_RegexTranslatorINSt7__cxx1112regex_traitsIcEELb1ELb1EE12_M_translateEc
FNDA:0,_ZNKSt8__detail16_RegexTranslatorINSt7__cxx1112regex_traitsIcEELb1ELb0EE12_M_translateEc
FNDA:0,_ZNKSt8__detail16_RegexTranslatorINSt7__cxx1112regex_traitsIcEELb0ELb1EE12_M_translateEc
FNDA:0,_ZNKSt8__detail16_RegexTranslatorINSt7__cxx1112regex_traitsIcEELb1ELb1EE12_M_transformEc
FNDA:0,_ZNKSt8__detail16_RegexTranslatorINSt7__cxx1112regex_traitsIcEELb1ELb0EE12_M_transformEc
FNDA:0,_ZNKSt8__detail16_RegexTranslatorINSt7__cxx1112regex_traitsIcEELb0ELb1EE12_M_transformEc
FNDA:0,_ZNKSt8__detail16_RegexTranslatorINSt7__cxx1112regex_traitsIcEELb1ELb0EE17_M_transform_implEcSt17integral_constantIbLb0EE
FNDA:0,_ZNKSt8__detail16_RegexTranslatorINSt7__cxx1112regex_traitsIcEELb1ELb1EE17_M_transform_implEcSt17integral_constantIbLb1EE
FNDA:0,_ZNKSt8__detail16_RegexTranslatorINSt7__cxx1112regex_traitsIcEELb0ELb1EE17_M_transform_implEcSt17integral_constantIbLb1EE
FNDA:910,_ZNSt8__detail16_RegexTranslatorINSt7__cxx1112regex_traitsIcEELb0ELb0EEC2ERKS3_
FNDA:1613631,_ZNKSt8__detail16_RegexTranslatorINSt7__cxx1112regex_traitsIcEELb0ELb0EE12_M_translateEc
FNDA:24158,_ZNKSt8__detail16_RegexTranslatorINSt7__cxx1112regex_traitsIcEELb0ELb0EE12_M_transformEc
FNDA:0,_ZNSt8__detail11_AnyMatcherINSt7__cxx1112regex_traitsIcEELb0ELb1ELb1EEC2ERKS3_
FNDA:0,_ZNSt8__detail11_AnyMatcherINSt7__cxx1112regex_traitsIcEELb0ELb1ELb0EEC2ERKS3_
FNDA:0,_ZNSt8__detail11_AnyMatcherINSt7__cxx1112regex_traitsIcEELb0ELb0ELb1EEC2ERKS3_
FNDA:0,_ZNSt8__detail11_AnyMatcherINSt7__cxx1112regex_traitsIcEELb0ELb0ELb0EEC2ERKS3_
FNDA:0,_ZNKSt8__detail11_AnyMatcherINSt7__cxx1112regex_traitsIcEELb0ELb1ELb1EEclEc
FNDA:0,_ZNKSt8__detail11_AnyMatcherINSt7__cxx1112regex_traitsIcEELb0ELb1ELb0EEclEc
FNDA:0,_ZNKSt8__detail11_AnyMatcherINSt7__cxx1112regex_traitsIcEELb0ELb0ELb1EEclEc
FNDA:0,_ZNKSt8__detail11_AnyMatcherINSt7__cxx1112regex_traitsIcEELb0ELb0ELb0EEclEc
FNDA:0,_ZNSt8__detail11_AnyMatcherINSt7__cxx1112regex_traitsIcEELb1ELb1ELb1EEC2ERKS3_
FNDA:0,_ZNSt8__detail11_AnyMatcherINSt7__cxx1112regex_traitsIcEELb1ELb1ELb0EEC2ERKS3_
FNDA:0,_ZNSt8__detail11_AnyMatcherINSt7__cxx1112regex_traitsIcEELb1ELb0ELb1EEC2ERKS3_
FNDA:6,_ZNSt8__detail11_AnyMatcherINSt7__cxx1112regex_traitsIcEELb1ELb0ELb0EEC2ERKS3_
FNDA:0,_ZNKSt8__detail11_AnyMatcherINSt7__cxx1112regex_traitsIcEELb1ELb1ELb1EEclEc
FNDA:0,_ZNKSt8__detail11_AnyMatcherINSt7__cxx1112regex_traitsIcEELb1ELb1ELb0EEclEc
FNDA:0,_ZNKSt8__detail11_AnyMatcherINSt7__cxx1112regex_traitsIcEELb1ELb0ELb1EEclEc
FNDA:41411,_ZNKSt8__detail11_AnyMatcherINSt7__cxx1112regex_traitsIcEELb1ELb0ELb0EEclEc
FNDA:0,_ZNKSt8__detail11_AnyMatcherINSt7__cxx1112regex_traitsIcEELb1ELb1ELb1EE8_M_applyEcSt17integral_constantIbLb1EE
FNDA:0,_ZNKSt8__detail11_AnyMatcherINSt7__cxx1112regex_traitsIcEELb1ELb1ELb0EE8_M_applyEcSt17integral_constantIbLb1EE
FNDA:0,_ZNKSt8__detail11_AnyMatcherINSt7__cxx1112regex_traitsIcEELb1ELb0ELb1EE8_M_applyEcSt17integral_constantIbLb1EE
FNDA:41411,_ZNKSt8__detail11_AnyMatcherINSt7__cxx1112regex_traitsIcEELb1ELb0ELb0EE8_M_applyEcSt17integral_constantIbLb1EE
FNDA:0,_ZNSt8__detail12_CharMatcherINSt7__cxx1112regex_traitsIcEELb1ELb1EEC2EcRKS3_
FNDA:0,_ZNSt8__detail12_CharMatcherINSt7__cxx1112regex_traitsIcEELb1ELb0EEC2EcRKS3_
FNDA:0,_ZNSt8__detail12_CharMatcherINSt7__cxx1112regex_traitsIcEELb0ELb1EEC2EcRKS3_
FNDA:810,_ZNSt8__detail12_CharMatcherINSt7__cxx1112regex_traitsIcEELb0ELb0EEC2EcRKS3_
FNDA:0,_ZNKSt8__detail12_CharMatcherINSt7__cxx1112regex_traitsIcEELb1ELb1EEclEc
FNDA:0,_ZNKSt8__detail12_CharMatcherINSt7__cxx1112regex_traitsIcEELb1ELb0EEclEc
FNDA:0,_ZNKSt8__detail12_CharMatcherINSt7__cxx1112regex_traitsIcEELb0ELb1EEclEc
FNDA:1464430,_ZNKSt8__detail12_CharMatcherINSt7__cxx1112regex_traitsIcEELb0ELb0EEclEc
FNDA:0,_ZNSt8__detail15_BracketMatcherINSt7__cxx1112regex_traitsIcEELb1ELb1EEC2ERKS4_
FNDA:0,_ZNSt8__detail15_BracketMatcherINSt7__cxx1112regex_traitsIcEELb1ELb0EEC2ERKS4_
FNDA:0,_ZNSt8__detail15_BracketMatcherINSt7__cxx1112regex_traitsIcEELb0ELb1EEC2ERKS4_
FNDA:130,_ZNSt8__detail15_BracketMatcherINSt7__cxx1112regex_traitsIcEELb0ELb0EEC2ERKS4_
FNDA:0,_ZNSt8__detail15_BracketMatcherINSt7__cxx1112regex_traitsIcEELb1ELb1EEC2EOS4_
FNDA:0,_ZNSt8__detail15_BracketMatcherINSt7__cxx1112regex_traitsIcEELb1ELb1EED2Ev
FNDA:0,_ZNSt8__detail15_BracketMatcherINSt7__cxx1112regex_traitsIcEELb1ELb0EEC2EOS4_
FNDA:0,_ZNSt8__detail15_BracketMatcherINSt7__cxx1112regex_traitsIcEELb1ELb0EED2Ev
FNDA:0,_ZNSt8__detail15_BracketMatcherINSt7__cxx1112regex_traitsIcEELb0ELb1EEC2EOS4_
FNDA:0,_ZNSt8__detail15_BracketMatcherINSt7__cxx1112regex_traitsIcEELb0ELb1EED2Ev
FNDA:188,_ZNSt8__detail15_BracketMatcherINSt7__cxx1112regex_traitsIcEELb0ELb0EEC2EOS4_
FNDA:412,_ZNSt8__detail15_BracketMatcherINSt7__cxx1112regex_traitsIcEELb0ELb0EED2Ev
FNDA:0,_ZNSt8__detail15_BracketMatcherINSt7__cxx1112regex_traitsIcEELb1ELb1EEC2EbRKS3_
FNDA:0,_ZNSt8__detail15_BracketMatcherINSt7__cxx1112regex_traitsIcEELb1ELb0EEC2EbRKS3_
FNDA:0,_ZNSt8__detail15_BracketMatcherINSt7__cxx1112regex_traitsIcEELb0ELb1EEC2EbRKS3_
FNDA:94,_ZNSt8__detail15_BracketMatcherINSt7__cxx1112regex_traitsIcEELb0ELb0EEC2EbRKS3_
FNDA:0,_ZNKSt8__detail15_BracketMatcherINSt7__cxx1112regex_traitsIcEELb1ELb1EEclEc
FNDA:0,_ZNKSt8__detail15_BracketMatcherINSt7__cxx1112regex_traitsIcEELb1ELb0EEclEc
FNDA:0,_ZNKSt8__detail15_BracketMatcherINSt7__cxx1112regex_traitsIcEELb0ELb1EEclEc
FNDA:1104659,_ZNKSt8__detail15_BracketMatcherINSt7__cxx1112regex_traitsIcEELb0ELb0EEclEc
FNDA:0,_ZNSt8__detail15_BracketMatcherINSt7__cxx1112regex_traitsIcEELb1ELb1EE11_M_add_charEc
FNDA:0,_ZNSt8__detail15_BracketMatcherINSt7__cxx1112regex_traitsIcEELb1ELb0EE11_M_add_charEc
FNDA:0,_ZNSt8__detail15_BracketMatcherINSt7__cxx1112regex_traitsIcEELb0ELb1EE11_M_add_charEc
FNDA:94,_ZNSt8__detail15_BracketMatcherINSt7__cxx1112regex_traitsIcEELb0ELb0EE11_M_add_charEc
FNDA:0,_ZNSt8__detail15_BracketMatcherINSt7__cxx1112regex_traitsIcEELb1ELb1EE22_M_add_collate_elementERKNS1_12basic_stringIcSt11char_traitsIcESaIcEEE
FNDA:0,_ZNSt8__detail15_BracketMatcherINSt7__cxx1112regex_traitsIcEELb1ELb0EE22_M_add_collate_elementERKNS1_12basic_stringIcSt11char_traitsIcESaIcEEE
FNDA:0,_ZNSt8__detail15_BracketMatcherINSt7__cxx1112regex_traitsIcEELb0ELb1EE22_M_add_collate_elementERKNS1_12basic_stringIcSt11char_traitsIcESaIcEEE
FNDA:0,_ZNSt8__detail15_BracketMatcherINSt7__cxx1112regex_traitsIcEELb0ELb0EE22_M_add_collate_elementERKNS1_12basic_stringIcSt11char_traitsIcESaIcEEE
FNDA:0,_ZNSt8__detail15_BracketMatcherINSt7__cxx1112regex_traitsIcEELb1ELb1EE24_M_add_equivalence_classERKNS1_12basic_stringIcSt11char_traitsIcESaIcEEE
FNDA:0,_ZNSt8__detail15_BracketMatcherINSt7__cxx1112regex_traitsIcEELb1ELb0EE24_M_add_equivalence_classERKNS1_12basic_stringIcSt11char_traitsIcESaIcEEE
FNDA:0,_ZNSt8__detail15_BracketMatcherINSt7__cxx1112regex_traitsIcEELb0ELb1EE24_M_add_equivalence_classERKNS1_12basic_stringIcSt11char_traitsIcESaIcEEE
FNDA:0,_ZNSt8__detail15_BracketMatcherINSt7__cxx1112regex_traitsIcEELb0ELb0EE24_M_add_equivalence_classERKNS1_12basic_stringIcSt11char_traitsIcESaIcEEE
FNDA:0,_ZNSt8__detail15_BracketMatcherINSt7__cxx1112regex_traitsIcEELb1ELb1EE22_M_add_character_classERKNS1_12basic_stringIcSt11char_traitsIcESaIcEEEb
FNDA:0,_ZNSt8__detail15_BracketMatcherINSt7__cxx1112regex_traitsIcEELb1ELb0EE22_M_add_character_classERKNS1_12basic_stringIcSt11char_traitsIcESaIcEEEb
FNDA:0,_ZNSt8__detail15_BracketMatcherINSt7__cxx1112regex_traitsIcEELb0ELb1EE22_M_add_character_classERKNS1_12basic_stringIcSt11char_traitsIcESaIcEEEb
FNDA:0,_ZNSt8__detail15_BracketMatcherINSt7__cxx1112regex_traitsIcEELb0ELb0EE22_M_add_character_classERKNS1_12basic_stringIcSt11char_traitsIcESaIcEEEb
FNDA:0,_ZNSt8__detail15_BracketMatcherINSt7__cxx1112regex_traitsIcEELb1ELb1EE13_M_make_rangeEcc
FNDA:0,_ZNSt8__detail15_BracketMatcherINSt7__cxx1112regex_traitsIcEELb1ELb0EE13_M_make_rangeEcc
FNDA:0,_ZNSt8__detail15_BracketMatcherINSt7__cxx1112regex_traitsIcEELb0ELb1EE13_M_make_rangeEcc
FNDA:94,_ZNSt8__detail15_BracketMatcherINSt7__cxx1112regex_traitsIcEELb0ELb0EE13_M_make_rangeEcc
FNDA:0,_ZNSt8__detail15_BracketMatcherINSt7__cxx1112regex_traitsIcEELb1ELb1EE8_M_readyEv
FNDA:0,_ZNSt8__detail15_BracketMatcherINSt7__cxx1112regex_traitsIcEELb1ELb0EE8_M_readyEv
FNDA:0,_ZNSt8__detail15_BracketMatcherINSt7__cxx1112regex_traitsIcEELb0ELb1EE8_M_readyEv
FNDA:94,_ZNSt8__detail15_BracketMatcherINSt7__cxx1112regex_traitsIcEELb0ELb0EE8_M_readyEv
FNDA:0,_ZNKSt8__detail15_BracketMatcherINSt7__cxx1112regex_traitsIcEELb1ELb1EE8_M_applyEcSt17integral_constantIbLb1EE
FNDA:0,_ZNKSt8__detail15_BracketMatcherINSt7__cxx1112regex_traitsIcEELb1ELb0EE8_M_applyEcSt17integral_constantIbLb1EE
FNDA:0,_ZNKSt8__detail15_BracketMatcherINSt7__cxx1112regex_traitsIcEELb0ELb1EE8_M_applyEcSt17integral_constantIbLb1EE
FNDA:1104659,_ZNKSt8__detail15_BracketMatcherINSt7__cxx1112regex_traitsIcEELb0ELb0EE8_M_applyEcSt17integral_constantIbLb1EE
FNDA:0,_ZNSt8__detail15_BracketMatcherINSt7__cxx1112regex_traitsIcEELb1ELb1EE13_M_make_cacheESt17integral_constantIbLb1EE
FNDA:0,_ZNSt8__detail15_BracketMatcherINSt7__cxx1112regex_traitsIcEELb1ELb0EE13_M_make_cacheESt17integral_constantIbLb1EE
FNDA:0,_ZNSt8__detail15_BracketMatcherINSt7__cxx1112regex_traitsIcEELb0ELb1EE13_M_make_cacheESt17integral_constantIbLb1EE
FNDA:94,_ZNSt8__detail15_BracketMatcherINSt7__cxx1112regex_traitsIcEELb0ELb0EE13_M_make_cacheESt17integral_constantIbLb1EE
FNF:99
FNH:22
DA:51,2
DA:63,2
DA:64,2
DA:134,2086
DA:136,2086
DA:137,2086
DA:138,2086
DA:187,2
DA:191,2
DA:192,2
DA:194,2
DA:220,0
DA:221,0
DA:222,0
DA:225,0
DA:228,0
DA:230,0
DA:236,0
DA:238,0
DA:239,0
DA:244,0
DA:245,0
DA:248,0
DA:250,0
DA:251,0
DA:265,910
DA:266,910
DA:269,1613631
DA:270,1613631
DA:273,24158
DA:274,24158
DA:287,0
DA:288,0
DA:289,0
DA:292,0
DA:294,0
DA:295,0
DA:308,6
DA:309,6
DA:310,6
DA:313,41411
DA:314,41411
DA:317,41411
DA:319,41411
DA:320,41411
DA:321,41411
DA:322,41411
DA:345,810
DA:346,810
DA:347,810
DA:350,1464430
DA:351,1464430
DA:359,730
DA:369,94
DA:372,94
DA:376,94
DA:379,1104659
DA:382,1104659
DA:386,94
DA:388,94
DA:392,94
DA:395,0
DA:398,0
DA:399,0
DA:400,0
DA:401,0
DA:405,0
DA:409,0
DA:412,0
DA:413,0
DA:414,0
DA:415,0
DA:416,0
DA:417,0
DA:421,0
DA:425,0
DA:428,0
DA:429,0
DA:430,0
DA:431,0
DA:432,0
DA:433,0
DA:435,0
DA:439,0
DA:442,94
DA:444,94
DA:445,0
DA:446,94
DA:451,94
DA:454,94
DA:456,94
DA:457,94
DA:458,94
DA:459,94
DA:463,94
DA:485,1104659
DA:486,1104659
DA:489,94
DA:491,24158
DA:492,24064
DA:493,94
LF:101
LH:57
end_of_record
SF:/usr/include/c++/5/bits/regex_compiler.tcc
FN:63,_ZNSt8__detail9_CompilerINSt7__cxx1112regex_traitsIcEEEC2EPKcS6_RKSt6localeNSt15regex_constants18syntax_option_typeE
FN:94,_ZNSt8__detail9_CompilerINSt7__cxx1112regex_traitsIcEEE14_M_disjunctionEv
FN:118,_ZNSt8__detail9_CompilerINSt7__cxx1112regex_traitsIcEEE14_M_alternativeEv
FN:134,_ZNSt8__detail9_CompilerINSt7__cxx1112regex_traitsIcEEE7_M_termEv
FN:149,_ZNSt8__detail9_CompilerINSt7__cxx1112regex_traitsIcEEE12_M_assertionEv
FN:180,_ZNSt8__detail9_CompilerINSt7__cxx1112regex_traitsIcEEE13_M_quantifierEv
FN:184,_ZZNSt8__detail9_CompilerINSt7__cxx1112regex_traitsIcEEE13_M_quantifierEvENKUlvE_clEv
FN:305,_ZNSt8__detail9_CompilerINSt7__cxx1112regex_traitsIcEEE7_M_atomEv
FN:348,_ZNSt8__detail9_CompilerINSt7__cxx1112regex_traitsIcEEE21_M_bracket_expressionEv
FN:363,_ZNSt8__detail9_CompilerINSt7__cxx1112regex_traitsIcEEE26_M_insert_any_matcher_ecmaILb1ELb1EEEvv
FN:363,_ZNSt8__detail9_CompilerINSt7__cxx1112regex_traitsIcEEE26_M_insert_any_matcher_ecmaILb0ELb0EEEvv
FN:363,_ZNSt8__detail9_CompilerINSt7__cxx1112regex_traitsIcEEE26_M_insert_any_matcher_ecmaILb0ELb1EEEvv
FN:363,_ZNSt8__detail9_CompilerINSt7__cxx1112regex_traitsIcEEE26_M_insert_any_matcher_ecmaILb1ELb0EEEvv
FN:375,_ZNSt8__detail9_CompilerINSt7__cxx1112regex_traitsIcEEE27_M_insert_any_matcher_posixILb1ELb1EEEvv
FN:375,_ZNSt8__detail9_CompilerINSt7__cxx1112regex_traitsIcEEE27_M_insert_any_matcher_posixILb0ELb1EEEvv
FN:375,_ZNSt8__detail9_CompilerINSt7__cxx1112regex_traitsIcEEE27_M_insert_any_matcher_posixILb0ELb0EEEvv
FN:375,_ZNSt8__detail9_CompilerINSt7__cxx1112regex_traitsIcEEE27_M_insert_any_matcher_posixILb1ELb0EEEvv
FN:387,_ZNSt8__detail9_CompilerINSt7__cxx1112regex_traitsIcEEE22_M_insert_char_matcherILb0ELb0EEEvv
FN:387,_ZNSt8__detail9_CompilerINSt7__cxx1112regex_traitsIcEEE22_M_insert_char_matcherILb1ELb1EEEvv
FN:387,_ZNSt8__detail9_CompilerINSt7__cxx1112regex_traitsIcEEE22_M_insert_char_matcherILb1ELb0EEEvv
FN:387,_ZNSt8__detail9_CompilerINSt7__cxx1112regex_traitsIcEEE22_M_insert_char_matcherILb0ELb1EEEvv
FN:399,_ZNSt8__detail9_CompilerINSt7__cxx1112regex_traitsIcEEE33_M_insert_character_class_matcherILb0ELb0EEEvv
FN:399,_ZNSt8__detail9_CompilerINSt7__cxx1112regex_traitsIcEEE33_M_insert_character_class_matcherILb1ELb0EEEvv
FN:399,_ZNSt8__detail9_CompilerINSt7__cxx1112regex_traitsIcEEE33_M_insert_character_class_matcherILb1ELb1EEEvv
FN:399,_ZNSt8__detail9_CompilerINSt7__cxx1112regex_traitsIcEEE33_M_insert_character_class_matcherILb0ELb1EEEvv
FN:414,_ZNSt8__detail9_CompilerINSt7__cxx1112regex_traitsIcEEE25_M_insert_bracket_matcherILb0ELb0EEEvb
FN:414,_ZNSt8__detail9_CompilerINSt7__cxx1112regex_traitsIcEEE25_M_insert_bracket_matcherILb0ELb1EEEvb
FN:414,_ZNSt8__detail9_CompilerINSt7__cxx1112regex_traitsIcEEE25_M_insert_bracket_matcherILb1ELb1EEEvb
FN:414,_ZNSt8__detail9_CompilerINSt7__cxx1112regex_traitsIcEEE25_M_insert_bracket_matcherILb1ELb0EEEvb
FN:437,_ZNSt8__detail9_CompilerINSt7__cxx1112regex_traitsIcEEE18_M_expression_termILb0ELb1EEEbRSt4pairIbcERNS_15_BracketMatcherIS3_XT_EXT0_EEE
FN:437,_ZNSt8__detail9_CompilerINSt7__cxx1112regex_traitsIcEEE18_M_expression_termILb1ELb0EEEbRSt4pairIbcERNS_15_BracketMatcherIS3_XT_EXT0_EEE
FN:437,_ZNSt8__detail9_CompilerINSt7__cxx1112regex_traitsIcEEE18_M_expression_termILb0ELb0EEEbRSt4pairIbcERNS_15_BracketMatcherIS3_XT_EXT0_EEE
FN:437,_ZNSt8__detail9_CompilerINSt7__cxx1112regex_traitsIcEEE18_M_expression_termILb1ELb1EEEbRSt4pairIbcERNS_15_BracketMatcherIS3_XT_EXT0_EEE
FN:518,_ZNSt8__detail9_CompilerINSt7__cxx1112regex_traitsIcEEE11_M_try_charEv
FN:539,_ZNSt8__detail9_CompilerINSt7__cxx1112regex_traitsIcEEE14_M_match_tokenENS_12_ScannerBase7_TokenTE
FN:553,_ZNSt8__detail9_CompilerINSt7__cxx1112regex_traitsIcEEE16_M_cur_int_valueEi
FN:565,_ZNKSt8__detail15_BracketMatcherINSt7__cxx1112regex_traitsIcEELb0ELb1EE8_M_applyEcSt17integral_constantIbLb0EE
FN:565,_ZNKSt8__detail15_BracketMatcherINSt7__cxx1112regex_traitsIcEELb1ELb1EE8_M_applyEcSt17integral_constantIbLb0EE
FN:565,_ZNKSt8__detail15_BracketMatcherINSt7__cxx1112regex_traitsIcEELb0ELb0EE8_M_applyEcSt17integral_constantIbLb0EE
FN:565,_ZNKSt8__detail15_BracketMatcherINSt7__cxx1112regex_traitsIcEELb1ELb0EE8_M_applyEcSt17integral_constantIbLb0EE
FNDA:2,_ZNSt8__detail9_CompilerINSt7__cxx1112regex_traitsIcEEEC2EPKcS6_RKSt6localeNSt15regex_constants18syntax_option_typeE
FNDA:10,_ZNSt8__detail9_CompilerINSt7__cxx1112regex_traitsIcEEE14_M_disjunctionEv
FNDA:952,_ZNSt8__detail9_CompilerINSt7__cxx1112regex_traitsIcEEE14_M_alternativeEv
FNDA:952,_ZNSt8__detail9_CompilerINSt7__cxx1112regex_traitsIcEEE7_M_termEv
FNDA:952,_ZNSt8__detail9_CompilerINSt7__cxx1112regex_traitsIcEEE12_M_assertionEv
FNDA:1110,_ZNSt8__detail9_CompilerINSt7__cxx1112regex_traitsIcEEE13_M_quantifierEv
FNDA:192,_ZZNSt8__detail9_CompilerINSt7__cxx1112regex_traitsIcEEE13_M_quantifierEvENKUlvE_clEv
FNDA:952,_ZNSt8__detail9_CompilerINSt7__cxx1112regex_traitsIcEEE7_M_atomEv
FNDA:128,_ZNSt8__detail9_CompilerINSt7__cxx1112regex_traitsIcEEE21_M_bracket_expressionEv
FNDA:0,_ZNSt8__detail9_CompilerINSt7__cxx1112regex_traitsIcEEE26_M_insert_any_matcher_ecmaILb1ELb1EEEvv
FNDA:0,_ZNSt8__detail9_CompilerINSt7__cxx1112regex_traitsIcEEE26_M_insert_any_matcher_ecmaILb1ELb0EEEvv
FNDA:0,_ZNSt8__detail9_CompilerINSt7__cxx1112regex_traitsIcEEE26_M_insert_any_matcher_ecmaILb0ELb1EEEvv
FNDA:6,_ZNSt8__detail9_CompilerINSt7__cxx1112regex_traitsIcEEE26_M_insert_any_matcher_ecmaILb0ELb0EEEvv
FNDA:0,_ZNSt8__detail9_CompilerINSt7__cxx1112regex_traitsIcEEE27_M_insert_any_matcher_posixILb1ELb1EEEvv
FNDA:0,_ZNSt8__detail9_CompilerINSt7__cxx1112regex_traitsIcEEE27_M_insert_any_matcher_posixILb1ELb0EEEvv
FNDA:0,_ZNSt8__detail9_CompilerINSt7__cxx1112regex_traitsIcEEE27_M_insert_any_matcher_posixILb0ELb1EEEvv
FNDA:0,_ZNSt8__detail9_CompilerINSt7__cxx1112regex_traitsIcEEE27_M_insert_any_matcher_posixILb0ELb0EEEvv
FNDA:0,_ZNSt8__detail9_CompilerINSt7__cxx1112regex_traitsIcEEE22_M_insert_char_matcherILb1ELb1EEEvv
FNDA:0,_ZNSt8__detail9_CompilerINSt7__cxx1112regex_traitsIcEEE22_M_insert_char_matcherILb1ELb0EEEvv
FNDA:0,_ZNSt8__detail9_CompilerINSt7__cxx1112regex_traitsIcEEE22_M_insert_char_matcherILb0ELb1EEEvv
FNDA:810,_ZNSt8__detail9_CompilerINSt7__cxx1112regex_traitsIcEEE22_M_insert_char_matcherILb0ELb0EEEvv
FNDA:0,_ZNSt8__detail9_CompilerINSt7__cxx1112regex_traitsIcEEE33_M_insert_character_class_matcherILb1ELb1EEEvv
FNDA:0,_ZNSt8__detail9_CompilerINSt7__cxx1112regex_traitsIcEEE33_M_insert_character_class_matcherILb1ELb0EEEvv
FNDA:0,_ZNSt8__detail9_CompilerINSt7__cxx1112regex_traitsIcEEE33_M_insert_character_class_matcherILb0ELb1EEEvv
FNDA:0,_ZNSt8__detail9_CompilerINSt7__cxx1112regex_traitsIcEEE33_M_insert_character_class_matcherILb0ELb0EEEvv
FNDA:0,_ZNSt8__detail9_CompilerINSt7__cxx1112regex_traitsIcEEE25_M_insert_bracket_matcherILb1ELb1EEEvb
FNDA:0,_ZNSt8__detail9_CompilerINSt7__cxx1112regex_traitsIcEEE25_M_insert_bracket_matcherILb1ELb0EEEvb
FNDA:0,_ZNSt8__detail9_CompilerINSt7__cxx1112regex_traitsIcEEE25_M_insert_bracket_matcherILb0ELb1EEEvb
FNDA:94,_ZNSt8__detail9_CompilerINSt7__cxx1112regex_traitsIcEEE25_M_insert_bracket_matcherILb0ELb0EEEvb
FNDA:0,_ZNSt8__detail9_CompilerINSt7__cxx1112regex_traitsIcEEE18_M_expression_termILb1ELb1EEEbRSt4pairIbcERNS_15_BracketMatcherIS3_XT_EXT0_EEE
FNDA:0,_ZNSt8__detail9_CompilerINSt7__cxx1112regex_traitsIcEEE18_M_expression_termILb1ELb0EEEbRSt4pairIbcERNS_15_BracketMatcherIS3_XT_EXT0_EEE
FNDA:0,_ZNSt8__detail9_CompilerINSt7__cxx1112regex_traitsIcEEE18_M_expression_termILb0ELb1EEEbRSt4pairIbcERNS_15_BracketMatcherIS3_XT_EXT0_EEE
FNDA:282,_ZNSt8__detail9_CompilerINSt7__cxx1112regex_traitsIcEEE18_M_expression_termILb0ELb0EEEbRSt4pairIbcERNS_15_BracketMatcherIS3_XT_EXT0_EEE
FNDA:1228,_ZNSt8__detail9_CompilerINSt7__cxx1112regex_traitsIcEEE11_M_try_charEv
FNDA:14446,_ZNSt8__detail9_CompilerINSt7__cxx1112regex_traitsIcEEE14_M_match_tokenENS_12_ScannerBase7_TokenTE
FNDA:0,_ZNSt8__detail9_CompilerINSt7__cxx1112regex_traitsIcEEE16_M_cur_int_valueEi
FNDA:0,_ZNKSt8__detail15_BracketMatcherINSt7__cxx1112regex_traitsIcEELb1ELb1EE8_M_applyEcSt17integral_constantIbLb0EE
FNDA:0,_ZNKSt8__detail15_BracketMatcherINSt7__cxx1112regex_traitsIcEELb1ELb0EE8_M_applyEcSt17integral_constantIbLb0EE
FNDA:0,_ZNKSt8__detail15_BracketMatcherINSt7__cxx1112regex_traitsIcEELb0ELb1EE8_M_applyEcSt17integral_constantIbLb0EE
FNDA:24064,_ZNKSt8__detail15_BracketMatcherINSt7__cxx1112regex_traitsIcEELb0ELb0EE8_M_applyEcSt17integral_constantIbLb0EE
FNF:40
FNH:16
DA:63,2
DA:67,2
DA:77,2
DA:78,4
DA:80,2
DA:81,2
DA:82,2
DA:83,2
DA:84,0
DA:85,2
DA:87,2
DA:88,2
DA:89,2
DA:90,2
DA:94,10
DA:97,10
DA:98,58
DA:100,24
DA:101,24
DA:102,24
DA:103,24
DA:104,24
DA:105,24
DA:109,24
DA:114,10
DA:118,952
DA:121,952
DA:123,918
DA:124,918
DA:125,918
DA:126,918
DA:129,34
DA:130,952
DA:134,952
DA:137,952
DA:138,0
DA:139,952
DA:141,1110
DA:142,918
DA:144,34
DA:149,952
DA:152,952
DA:153,0
DA:154,952
DA:155,0
DA:156,952
DA:158,0
DA:159,0
DA:160,952
DA:162,0
DA:163,0
DA:164,0
DA:165,0
DA:166,0
DA:167,0
DA:168,0
DA:170,0
DA:174,952
DA:175,0
DA:180,1110
DA:183,1110
DA:184,192
DA:185,576
DA:186,192
DA:187,0
DA:188,384
DA:189,1302
DA:190,1110
DA:192,30
DA:193,30
DA:194,30
DA:196,60
DA:197,30
DA:198,30
DA:200,1080
DA:202,68
DA:203,68
DA:204,68
DA:206,68
DA:208,1012
DA:210,94
DA:211,94
DA:212,94
DA:213,94
DA:215,188
DA:216,94
DA:217,94
DA:218,94
DA:220,918
DA:222,0
DA:223,0
DA:224,0
DA:225,0
DA:226,0
DA:227,0
DA:228,0
DA:229,0
DA:233,0
DA:234,0
DA:235,0
DA:237,0
DA:239,0
DA:240,0
DA:241,0
DA:243,0
DA:245,0
DA:246,0
DA:248,0
DA:250,0
DA:251,0
DA:253,0
DA:254,0
DA:255,0
DA:259,0
DA:260,0
DA:261,0
DA:265,0
DA:266,0
DA:268,0
DA:270,0
DA:271,0
DA:272,0
DA:274,0
DA:275,0
DA:277,0
DA:278,0
DA:279,0
DA:282,0
DA:285,918
DA:286,192
DA:305,952
DA:308,952
DA:310,6
DA:311,0
DA:313,6
DA:315,946
DA:316,810
DA:317,136
DA:318,0
DA:319,0
DA:320,136
DA:321,0
DA:322,136
DA:324,0
DA:325,0
DA:326,0
DA:327,0
DA:328,0
DA:329,0
DA:331,136
DA:333,8
DA:334,8
DA:335,8
DA:336,0
DA:337,8
DA:338,8
DA:339,8
DA:341,128
DA:342,34
DA:343,918
DA:348,128
DA:352,128
DA:353,128
DA:354,34
DA:355,94
DA:356,94
DA:363,6
DA:366,6
DA:370,6
DA:375,0
DA:378,0
DA:382,0
DA:387,810
DA:390,1620
DA:393,810
DA:394,810
DA:399,0
DA:404,0
DA:405,0
DA:406,0
DA:407,0
DA:408,0
DA:409,0
DA:414,94
DA:417,188
DA:418,94
DA:419,94
DA:420,94
DA:421,0
DA:423,0
DA:424,0
DA:425,0
DA:427,282
DA:428,94
DA:429,188
DA:430,94
DA:431,94
DA:432,94
DA:437,282
DA:441,282
DA:442,94
DA:444,188
DA:446,0
DA:447,0
DA:449,0
DA:450,0
DA:453,188
DA:454,0
DA:455,188
DA:456,0
DA:467,188
DA:469,188
DA:471,94
DA:472,94
DA:473,0
DA:475,0
DA:476,0
DA:477,0
DA:479,94
DA:480,94
DA:484,94
DA:486,94
DA:488,94
DA:489,94
DA:493,0
DA:494,0
DA:495,0
DA:496,0
DA:501,0
DA:502,0
DA:506,0
DA:507,0
DA:509,0
DA:511,0
DA:513,188
DA:518,1228
DA:521,1228
DA:522,1228
DA:524,0
DA:525,0
DA:527,1228
DA:529,0
DA:530,0
DA:532,1228
DA:533,1092
DA:534,1228
DA:539,14446
DA:542,14446
DA:544,1522
DA:545,1522
DA:546,1522
DA:548,12924
DA:553,0
DA:556,0
DA:557,0
DA:558,0
DA:559,0
DA:560,0
DA:565,24064
DA:568,48128
DA:569,24064
DA:570,24064
DA:572,23970
DA:573,47094
DA:574,23970
DA:576,846
DA:577,846
DA:579,23970
DA:580,0
DA:581,95880
DA:583,95880
DA:584,0
DA:587,23970
DA:588,0
DA:590,0
DA:591,0
DA:595,24064
DA:596,0
DA:598,24064
LF:279
LH:163
end_of_record
SF:/usr/include/c++/5/bits/regex_constants.h
FN:173,_ZNSt15regex_constantsanENS_18syntax_option_typeES0_
FN:180,_ZNSt15regex_constantsorENS_18syntax_option_typeES0_
FN:362,_ZNSt15regex_constantsanENS_15match_flag_typeES0_
FN:369,_ZNSt15regex_constantsorENS_15match_flag_typeES0_
FN:383,_ZNSt15regex_constantscoENS_15match_flag_typeE
FNDA:249700,_ZNSt15regex_constantsanENS_18syntax_option_typeES0_
FNDA:100,_ZNSt15regex_constantsorENS_18syntax_option_typeES0_
FNDA:501,_ZNSt15regex_constantsanENS_15match_flag_typeES0_
FNDA:0,_ZNSt15regex_constantsorENS_15match_flag_typeES0_
FNDA:0,_ZNSt15regex_constantscoENS_15match_flag_typeE
FNF:5
FNH:3
DA:173,249700
DA:176,249700
DA:180,100
DA:183,100
DA:362,501
DA:365,501
DA:369,0
DA:372,0
DA:383,0
DA:384,0
LF:10
LH:6
end_of_record
SF:/usr/include/c++/5/bits/regex_executor.h
FN:52,_ZNSt8__detail9_ExecutorIN9__gnu_cxx17__normal_iteratorIPKcNSt7__cxx1112basic_stringIcSt11char_traitsIcESaIcEEEEESaINS5_9sub_matchISB_EEENS5_12regex_traitsIcEELb1EED2Ev
FN:52,_ZNSt8__detail9_ExecutorIN9__gnu_cxx17__normal_iteratorIPKcNSt7__cxx1112basic_stringIcSt11char_traitsIcESaIcEEEEESaINS5_9sub_matchISB_EEENS5_12regex_traitsIcEELb0EED2Ev
FN:69,_ZNSt8__detail9_ExecutorIN9__gnu_cxx17__normal_iteratorIPKcNSt7__cxx1112basic_stringIcSt11char_traitsIcESaIcEEEEESaINS5_9sub_matchISB_EEENS5_12regex_traitsIcEELb1EEC2ESB_SB_RSt6vectorISD_SE_ERKNS5_11basic_regexIcSG_EENSt15regex_constants15match_flag_typeE
FN:69,_ZNSt8__detail9_ExecutorIN9__gnu_cxx17__normal_iteratorIPKcNSt7__cxx1112basic_stringIcSt11char_traitsIcESaIcEEEEESaINS5_9sub_matchISB_EEENS5_12regex_traitsIcEELb0EEC2ESB_SB_RSt6vectorISD_SE_ERKNS5_11basic_regexIcSG_EENSt15regex_constants15match_flag_typeE
FN:90,_ZNSt8__detail9_ExecutorIN9__gnu_cxx17__normal_iteratorIPKcNSt7__cxx1112basic_stringIcSt11char_traitsIcESaIcEEEEESaINS5_9sub_matchISB_EEENS5_12regex_traitsIcEELb1EE8_M_matchEv
FN:90,_ZNSt8__detail9_ExecutorIN9__gnu_cxx17__normal_iteratorIPKcNSt7__cxx1112basic_stringIcSt11char_traitsIcESaIcEEEEESaINS5_9sub_matchISB_EEENS5_12regex_traitsIcEELb0EE8_M_matchEv
FN:98,_ZNSt8__detail9_ExecutorIN9__gnu_cxx17__normal_iteratorIPKcNSt7__cxx1112basic_stringIcSt11char_traitsIcESaIcEEEEESaINS5_9sub_matchISB_EEENS5_12regex_traitsIcEELb0EE20_M_search_from_firstEv
FN:98,_ZNSt8__detail9_ExecutorIN9__gnu_cxx17__normal_iteratorIPKcNSt7__cxx1112basic_stringIcSt11char_traitsIcESaIcEEEEESaINS5_9sub_matchISB_EEENS5_12regex_traitsIcEELb1EE20_M_search_from_firstEv
FN:115,_ZNSt8__detail9_ExecutorIN9__gnu_cxx17__normal_iteratorIPKcNSt7__cxx1112basic_stringIcSt11char_traitsIcESaIcEEEEESaINS5_9sub_matchISB_EEENS5_12regex_traitsIcEELb1EE7_M_mainENSH_11_Match_modeE
FN:115,_ZNSt8__detail9_ExecutorIN9__gnu_cxx17__normal_iteratorIPKcNSt7__cxx1112basic_stringIcSt11char_traitsIcESaIcEEEEESaINS5_9sub_matchISB_EEENS5_12regex_traitsIcEELb0EE7_M_mainENSH_11_Match_modeE
FN:125,_ZNKSt8__detail9_ExecutorIN9__gnu_cxx17__normal_iteratorIPKcNSt7__cxx1112basic_stringIcSt11char_traitsIcESaIcEEEEESaINS5_9sub_matchISB_EEENS5_12regex_traitsIcEELb1EE10_M_is_wordEc
FN:125,_ZNKSt8__detail9_ExecutorIN9__gnu_cxx17__normal_iteratorIPKcNSt7__cxx1112basic_stringIcSt11char_traitsIcESaIcEEEEESaINS5_9sub_matchISB_EEENS5_12regex_traitsIcEELb0EE10_M_is_wordEc
FN:133,_ZNKSt8__detail9_ExecutorIN9__gnu_cxx17__normal_iteratorIPKcNSt7__cxx1112basic_stringIcSt11char_traitsIcESaIcEEEEESaINS5_9sub_matchISB_EEENS5_12regex_traitsIcEELb1EE11_M_at_beginEv
FN:133,_ZNKSt8__detail9_ExecutorIN9__gnu_cxx17__normal_iteratorIPKcNSt7__cxx1112basic_stringIcSt11char_traitsIcESaIcEEEEESaINS5_9sub_matchISB_EEENS5_12regex_traitsIcEELb0EE11_M_at_beginEv
FN:141,_ZNKSt8__detail9_ExecutorIN9__gnu_cxx17__normal_iteratorIPKcNSt7__cxx1112basic_stringIcSt11char_traitsIcESaIcEEEEESaINS5_9sub_matchISB_EEENS5_12regex_traitsIcEELb0EE9_M_at_endEv
FN:141,_ZNKSt8__detail9_ExecutorIN9__gnu_cxx17__normal_iteratorIPKcNSt7__cxx1112basic_stringIcSt11char_traitsIcESaIcEEEEESaINS5_9sub_matchISB_EEENS5_12regex_traitsIcEELb1EE9_M_at_endEv
FN:158,_ZNSt8__detail9_ExecutorIN9__gnu_cxx17__normal_iteratorIPKcNSt7__cxx1112basic_stringIcSt11char_traitsIcESaIcEEEEESaINS5_9sub_matchISB_EEENS5_12regex_traitsIcEELb0EE11_State_infoISt17integral_constantIbLb0EESt6vectorISD_SE_EED2Ev
FN:161,_ZNSt8__detail9_ExecutorIN9__gnu_cxx17__normal_iteratorIPKcNSt7__cxx1112basic_stringIcSt11char_traitsIcESaIcEEEEESaINS5_9sub_matchISB_EEENS5_12regex_traitsIcEELb0EE11_State_infoISt17integral_constantIbLb0EESt6vectorISD_SE_EEC2Elm
FN:165,_ZNSt8__detail9_ExecutorIN9__gnu_cxx17__normal_iteratorIPKcNSt7__cxx1112basic_stringIcSt11char_traitsIcESaIcEEEEESaINS5_9sub_matchISB_EEENS5_12regex_traitsIcEELb0EE11_State_infoISt17integral_constantIbLb0EESt6vectorISD_SE_EE10_M_visitedEl
FN:173,_ZNSt8__detail9_ExecutorIN9__gnu_cxx17__normal_iteratorIPKcNSt7__cxx1112basic_stringIcSt11char_traitsIcESaIcEEEEESaINS5_9sub_matchISB_EEENS5_12regex_traitsIcEELb0EE11_State_infoISt17integral_constantIbLb0EESt6vectorISD_SE_EE8_M_queueElRKSM_
FN:191,_ZNSt8__detail9_ExecutorIN9__gnu_cxx17__normal_iteratorIPKcNSt7__cxx1112basic_stringIcSt11char_traitsIcESaIcEEEEESaINS5_9sub_matchISB_EEENS5_12regex_traitsIcEELb1EE11_State_infoISt17integral_constantIbLb1EESt6vectorISD_SE_EEC2Elm
FN:195,_ZNKSt8__detail9_ExecutorIN9__gnu_cxx17__normal_iteratorIPKcNSt7__cxx1112basic_stringIcSt11char_traitsIcESaIcEEEEESaINS5_9sub_matchISB_EEENS5_12regex_traitsIcEELb1EE11_State_infoISt17integral_constantIbLb1EESt6vectorISD_SE_EE10_M_visitedEl
FN:198,_ZNSt8__detail9_ExecutorIN9__gnu_cxx17__normal_iteratorIPKcNSt7__cxx1112basic_stringIcSt11char_traitsIcESaIcEEEEESaINS5_9sub_matchISB_EEENS5_12regex_traitsIcEELb1EE11_State_infoISt17integral_constantIbLb1EESt6vectorISD_SE_EE14_M_get_sol_posEv
FNDA:501,_ZNSt8__detail9_ExecutorIN9__gnu_cxx17__normal_iteratorIPKcNSt7__cxx1112basic_stringIcSt11char_traitsIcESaIcEEEEESaINS5_9sub_matchISB_EEENS5_12regex_traitsIcEELb1EED2Ev
FNDA:0,_ZNSt8__detail9_ExecutorIN9__gnu_cxx17__normal_iteratorIPKcNSt7__cxx1112basic_stringIcSt11char_traitsIcESaIcEEEEESaINS5_9sub_matchISB_EEENS5_12regex_traitsIcEELb0EED2Ev
FNDA:501,_ZNSt8__detail9_ExecutorIN9__gnu_cxx17__normal_iteratorIPKcNSt7__cxx1112basic_stringIcSt11char_traitsIcESaIcEEEEESaINS5_9sub_matchISB_EEENS5_12regex_traitsIcEELb1EEC2ESB_SB_RSt6vectorISD_SE_ERKNS5_11basic_regexIcSG_EENSt15regex_constants15match_flag_typeE
FNDA:0,_ZNSt8__detail9_ExecutorIN9__gnu_cxx17__normal_iteratorIPKcNSt7__cxx1112basic_stringIcSt11char_traitsIcESaIcEEEEESaINS5_9sub_matchISB_EEENS5_12regex_traitsIcEELb0EEC2ESB_SB_RSt6vectorISD_SE_ERKNS5_11basic_regexIcSG_EENSt15regex_constants15match_flag_typeE
FNDA:501,_ZNSt8__detail9_ExecutorIN9__gnu_cxx17__normal_iteratorIPKcNSt7__cxx1112basic_stringIcSt11char_traitsIcESaIcEEEEESaINS5_9sub_matchISB_EEENS5_12regex_traitsIcEELb1EE8_M_matchEv
FNDA:0,_ZNSt8__detail9_ExecutorIN9__gnu_cxx17__normal_iteratorIPKcNSt7__cxx1112basic_stringIcSt11char_traitsIcESaIcEEEEESaINS5_9sub_matchISB_EEENS5_12regex_traitsIcEELb0EE8_M_matchEv
FNDA:0,_ZNSt8__detail9_ExecutorIN9__gnu_cxx17__normal_iteratorIPKcNSt7__cxx1112basic_stringIcSt11char_traitsIcESaIcEEEEESaINS5_9sub_matchISB_EEENS5_12regex_traitsIcEELb1EE20_M_search_from_firstEv
FNDA:0,_ZNSt8__detail9_ExecutorIN9__gnu_cxx17__normal_iteratorIPKcNSt7__cxx1112basic_stringIcSt11char_traitsIcESaIcEEEEESaINS5_9sub_matchISB_EEENS5_12regex_traitsIcEELb0EE20_M_search_from_firstEv
FNDA:501,_ZNSt8__detail9_ExecutorIN9__gnu_cxx17__normal_iteratorIPKcNSt7__cxx1112basic_stringIcSt11char_traitsIcESaIcEEEEESaINS5_9sub_matchISB_EEENS5_12regex_traitsIcEELb1EE7_M_mainENSH_11_Match_modeE
FNDA:0,_ZNSt8__detail9_ExecutorIN9__gnu_cxx17__normal_iteratorIPKcNSt7__cxx1112basic_stringIcSt11char_traitsIcESaIcEEEEESaINS5_9sub_matchISB_EEENS5_12regex_traitsIcEELb0EE7_M_mainENSH_11_Match_modeE
FNDA:0,_ZNKSt8__detail9_ExecutorIN9__gnu_cxx17__normal_iteratorIPKcNSt7__cxx1112basic_stringIcSt11char_traitsIcESaIcEEEEESaINS5_9sub_matchISB_EEENS5_12regex_traitsIcEELb1EE10_M_is_wordEc
FNDA:0,_ZNKSt8__detail9_ExecutorIN9__gnu_cxx17__normal_iteratorIPKcNSt7__cxx1112basic_stringIcSt11char_traitsIcESaIcEEEEESaINS5_9sub_matchISB_EEENS5_12regex_traitsIcEELb0EE10_M_is_wordEc
FNDA:0,_ZNKSt8__detail9_ExecutorIN9__gnu_cxx17__normal_iteratorIPKcNSt7__cxx1112basic_stringIcSt11char_traitsIcESaIcEEEEESaINS5_9sub_matchISB_EEENS5_12regex_traitsIcEELb1EE11_M_at_beginEv
FNDA:0,_ZNKSt8__detail9_ExecutorIN9__gnu_cxx17__normal_iteratorIPKcNSt7__cxx1112basic_stringIcSt11char_traitsIcESaIcEEEEESaINS5_9sub_matchISB_EEENS5_12regex_traitsIcEELb0EE11_M_at_beginEv
FNDA:0,_ZNKSt8__detail9_ExecutorIN9__gnu_cxx17__normal_iteratorIPKcNSt7__cxx1112basic_stringIcSt11char_traitsIcESaIcEEEEESaINS5_9sub_matchISB_EEENS5_12regex_traitsIcEELb1EE9_M_at_endEv
FNDA:0,_ZNKSt8__detail9_ExecutorIN9__gnu_cxx17__normal_iteratorIPKcNSt7__cxx1112basic_stringIcSt11char_traitsIcESaIcEEEEESaINS5_9sub_matchISB_EEENS5_12regex_traitsIcEELb0EE9_M_at_endEv
FNDA:0,_ZNSt8__detail9_ExecutorIN9__gnu_cxx17__normal_iteratorIPKcNSt7__cxx1112basic_stringIcSt11char_traitsIcESaIcEEEEESaINS5_9sub_matchISB_EEENS5_12regex_traitsIcEELb0EE11_State_infoISt17integral_constantIbLb0EESt6vectorISD_SE_EED2Ev
FNDA:0,_ZNSt8__detail9_ExecutorIN9__gnu_cxx17__normal_iteratorIPKcNSt7__cxx1112basic_stringIcSt11char_traitsIcESaIcEEEEESaINS5_9sub_matchISB_EEENS5_12regex_traitsIcEELb0EE11_State_infoISt17integral_constantIbLb0EESt6vectorISD_SE_EEC2Elm
FNDA:0,_ZNSt8__detail9_ExecutorIN9__gnu_cxx17__normal_iteratorIPKcNSt7__cxx1112basic_stringIcSt11char_traitsIcESaIcEEEEESaINS5_9sub_matchISB_EEENS5_12regex_traitsIcEELb0EE11_State_infoISt17integral_constantIbLb0EESt6vectorISD_SE_EE10_M_visitedEl
FNDA:0,_ZNSt8__detail9_ExecutorIN9__gnu_cxx17__normal_iteratorIPKcNSt7__cxx1112basic_stringIcSt11char_traitsIcESaIcEEEEESaINS5_9sub_matchISB_EEENS5_12regex_traitsIcEELb0EE11_State_infoISt17integral_constantIbLb0EESt6vectorISD_SE_EE8_M_queueElRKSM_
FNDA:501,_ZNSt8__detail9_ExecutorIN9__gnu_cxx17__normal_iteratorIPKcNSt7__cxx1112basic_stringIcSt11char_traitsIcESaIcEEEEESaINS5_9sub_matchISB_EEENS5_12regex_traitsIcEELb1EE11_State_infoISt17integral_constantIbLb1EESt6vectorISD_SE_EEC2Elm
FNDA:4114826,_ZNKSt8__detail9_ExecutorIN9__gnu_cxx17__normal_iteratorIPKcNSt7__cxx1112basic_stringIcSt11char_traitsIcESaIcEEEEESaINS5_9sub_matchISB_EEENS5_12regex_traitsIcEELb1EE11_State_infoISt17integral_constantIbLb1EESt6vectorISD_SE_EE10_M_visitedEl
FNDA:501,_ZNSt8__detail9_ExecutorIN9__gnu_cxx17__normal_iteratorIPKcNSt7__cxx1112basic_stringIcSt11char_traitsIcESaIcEEEEESaINS5_9sub_matchISB_EEENS5_12regex_traitsIcEELb1EE11_State_infoISt17integral_constantIbLb1EESt6vectorISD_SE_EE14_M_get_sol_posEv
FNF:23
FNH:7
DA:52,501
DA:69,501
DA:77,501
DA:81,501
DA:84,0
DA:85,1503
DA:86,501
DA:90,501
DA:92,501
DA:93,501
DA:98,0
DA:100,0
DA:101,0
DA:115,501
DA:116,501
DA:125,0
DA:128,0
DA:129,0
DA:133,0
DA:135,0
DA:136,0
DA:137,0
DA:141,0
DA:143,0
DA:144,0
DA:158,0
DA:161,0
DA:162,0
DA:163,0
DA:165,0
DA:167,0
DA:168,0
DA:169,0
DA:170,0
DA:173,0
DA:174,0
DA:191,501
DA:192,501
DA:195,4114826
DA:198,501
LF:40
LH:15
end_of_record
SF:/usr/include/c++/5/bits/regex_executor.tcc
FN:81,_ZNSt8__detail9_ExecutorIN9__gnu_cxx17__normal_iteratorIPKcNSt7__cxx1112basic_stringIcSt11char_traitsIcESaIcEEEEESaINS5_9sub_matchISB_EEENS5_12regex_traitsIcEELb1EE16_M_main_dispatchENSH_11_Match_modeESt17integral_constantIbLb1EE
FN:115,_ZNSt8__detail9_ExecutorIN9__gnu_cxx17__normal_iteratorIPKcNSt7__cxx1112basic_stringIcSt11char_traitsIcESaIcEEEEESaINS5_9sub_matchISB_EEENS5_12regex_traitsIcEELb0EE16_M_main_dispatchENSH_11_Match_modeESt17integral_constantIbLb0EE
FN:147,_ZNSt8__detail9_ExecutorIN9__gnu_cxx17__normal_iteratorIPKcNSt7__cxx1112basic_stringIcSt11char_traitsIcESaIcEEEEESaINS5_9sub_matchISB_EEENS5_12regex_traitsIcEELb1EE12_M_lookaheadENS_6_StateISG_EE
FN:147,_ZNSt8__detail9_ExecutorIN9__gnu_cxx17__normal_iteratorIPKcNSt7__cxx1112basic_stringIcSt11char_traitsIcESaIcEEEEESaINS5_9sub_matchISB_EEENS5_12regex_traitsIcEELb0EE12_M_lookaheadENS_6_StateISG_EE
FN:174,_ZNSt8__detail9_ExecutorIN9__gnu_cxx17__normal_iteratorIPKcNSt7__cxx1112basic_stringIcSt11char_traitsIcESaIcEEEEESaINS5_9sub_matchISB_EEENS5_12regex_traitsIcEELb1EE16_M_rep_once_moreENSH_11_Match_modeEl
FN:174,_ZNSt8__detail9_ExecutorIN9__gnu_cxx17__normal_iteratorIPKcNSt7__cxx1112basic_stringIcSt11char_traitsIcESaIcEEEEESaINS5_9sub_matchISB_EEENS5_12regex_traitsIcEELb0EE16_M_rep_once_moreENSH_11_Match_modeEl
FN:200,_ZNSt8__detail9_ExecutorIN9__gnu_cxx17__normal_iteratorIPKcNSt7__cxx1112basic_stringIcSt11char_traitsIcESaIcEEEEESaINS5_9sub_matchISB_EEENS5_12regex_traitsIcEELb1EE6_M_dfsENSH_11_Match_modeEl
FN:200,_ZNSt8__detail9_ExecutorIN9__gnu_cxx17__normal_iteratorIPKcNSt7__cxx1112basic_stringIcSt11char_traitsIcESaIcEEEEESaINS5_9sub_matchISB_EEENS5_12regex_traitsIcEELb0EE6_M_dfsENSH_11_Match_modeEl
FN:414,_ZNKSt8__detail9_ExecutorIN9__gnu_cxx17__normal_iteratorIPKcNSt7__cxx1112basic_stringIcSt11char_traitsIcESaIcEEEEESaINS5_9sub_matchISB_EEENS5_12regex_traitsIcEELb0EE16_M_word_boundaryEv
FN:414,_ZNKSt8__detail9_ExecutorIN9__gnu_cxx17__normal_iteratorIPKcNSt7__cxx1112basic_stringIcSt11char_traitsIcESaIcEEEEESaINS5_9sub_matchISB_EEENS5_12regex_traitsIcEELb1EE16_M_word_boundaryEv
FNDA:501,_ZNSt8__detail9_ExecutorIN9__gnu_cxx17__normal_iteratorIPKcNSt7__cxx1112basic_stringIcSt11char_traitsIcESaIcEEEEESaINS5_9sub_matchISB_EEENS5_12regex_traitsIcEELb1EE16_M_main_dispatchENSH_11_Match_modeESt17integral_constantIbLb1EE
FNDA:0,_ZNSt8__detail9_ExecutorIN9__gnu_cxx17__normal_iteratorIPKcNSt7__cxx1112basic_stringIcSt11char_traitsIcESaIcEEEEESaINS5_9sub_matchISB_EEENS5_12regex_traitsIcEELb0EE16_M_main_dispatchENSH_11_Match_modeESt17integral_constantIbLb0EE
FNDA:0,_ZNSt8__detail9_ExecutorIN9__gnu_cxx17__normal_iteratorIPKcNSt7__cxx1112basic_stringIcSt11char_traitsIcESaIcEEEEESaINS5_9sub_matchISB_EEENS5_12regex_traitsIcEELb1EE12_M_lookaheadENS_6_StateISG_EE
FNDA:0,_ZNSt8__detail9_ExecutorIN9__gnu_cxx17__normal_iteratorIPKcNSt7__cxx1112basic_stringIcSt11char_traitsIcESaIcEEEEESaINS5_9sub_matchISB_EEENS5_12regex_traitsIcEELb0EE12_M_lookaheadENS_6_StateISG_EE
FNDA:1132629,_ZNSt8__detail9_ExecutorIN9__gnu_cxx17__normal_iteratorIPKcNSt7__cxx1112basic_stringIcSt11char_traitsIcESaIcEEEEESaINS5_9sub_matchISB_EEENS5_12regex_traitsIcEELb1EE16_M_rep_once_moreENSH_11_Match_modeEl
FNDA:0,_ZNSt8__detail9_ExecutorIN9__gnu_cxx17__normal_iteratorIPKcNSt7__cxx1112basic_stringIcSt11char_traitsIcESaIcEEEEESaINS5_9sub_matchISB_EEENS5_12regex_traitsIcEELb0EE16_M_rep_once_moreENSH_11_Match_modeEl
FNDA:4114826,_ZNSt8__detail9_ExecutorIN9__gnu_cxx17__normal_iteratorIPKcNSt7__cxx1112basic_stringIcSt11char_traitsIcESaIcEEEEESaINS5_9sub_matchISB_EEENS5_12regex_traitsIcEELb1EE6_M_dfsENSH_11_Match_modeEl
FNDA:0,_ZNSt8__detail9_ExecutorIN9__gnu_cxx17__normal_iteratorIPKcNSt7__cxx1112basic_stringIcSt11char_traitsIcESaIcEEEEESaINS5_9sub_matchISB_EEENS5_12regex_traitsIcEELb0EE6_M_dfsENSH_11_Match_modeEl
FNDA:0,_ZNKSt8__detail9_ExecutorIN9__gnu_cxx17__normal_iteratorIPKcNSt7__cxx1112basic_stringIcSt11char_traitsIcESaIcEEEEESaINS5_9sub_matchISB_EEENS5_12regex_traitsIcEELb1EE16_M_word_boundaryEv
FNDA:0,_ZNKSt8__detail9_ExecutorIN9__gnu_cxx17__normal_iteratorIPKcNSt7__cxx1112basic_stringIcSt11char_traitsIcESaIcEEEEESaINS5_9sub_matchISB_EEENS5_12regex_traitsIcEELb0EE16_M_word_boundaryEv
FNF:10
FNH:3
DA:81,501
DA:84,501
DA:85,501
DA:86,501
DA:87,501
DA:88,501
DA:115,0
DA:118,0
DA:119,0
DA:120,0
DA:122,0
DA:123,0
DA:124,0
DA:125,0
DA:126,0
DA:127,0
DA:129,0
DA:130,0
DA:132,0
DA:133,0
DA:134,0
DA:135,0
DA:136,0
DA:138,0
DA:139,0
DA:140,0
DA:141,0
DA:147,0
DA:153,0
DA:154,0
DA:155,0
DA:156,0
DA:158,0
DA:159,0
DA:160,0
DA:161,0
DA:163,0
DA:174,1132629
DA:177,1132629
DA:178,1132629
DA:179,1132629
DA:181,1132629
DA:182,1132629
DA:183,1132629
DA:184,1132629
DA:185,1132629
DA:189,0
DA:191,0
DA:192,0
DA:193,0
DA:196,1132629
DA:200,4114826
DA:203,4114826
DA:204,0
DA:206,4114826
DA:209,4114826
DA:218,1133130
DA:220,1132629
DA:222,1132629
DA:223,369278
DA:230,501
DA:231,501
DA:232,0
DA:239,0
DA:241,0
DA:245,0
DA:246,0
DA:251,1133130
DA:254,62868
DA:255,62868
DA:256,62868
DA:257,62868
DA:258,62868
DA:260,62868
DA:263,62367
DA:264,62367
DA:265,62367
DA:266,62367
DA:267,62367
DA:268,62367
DA:270,62367
DA:272,0
DA:273,0
DA:274,0
DA:276,0
DA:277,0
DA:278,0
DA:280,0
DA:281,0
DA:282,0
DA:286,0
DA:287,0
DA:288,0
DA:290,2610500
DA:291,0
DA:294,2610500
DA:296,2241222
DA:297,2241222
DA:298,2241222
DA:302,0
DA:303,0
DA:304,2610500
DA:312,0
DA:313,0
DA:314,0
DA:315,0
DA:316,0
DA:317,0
DA:319,0
DA:320,0
DA:322,0
DA:324,0
DA:326,0
DA:327,0
DA:328,0
DA:329,0
DA:332,0
DA:335,0
DA:340,501
DA:341,501
DA:343,0
DA:344,501
DA:345,0
DA:346,0
DA:347,501
DA:349,501
DA:350,501
DA:361,0
DA:362,0
DA:363,0
DA:364,0
DA:366,0
DA:367,0
DA:374,0
DA:375,0
DA:376,0
DA:377,0
DA:378,0
DA:380,0
DA:381,0
DA:384,501
DA:386,245460
DA:390,245460
DA:392,245460
DA:393,0
DA:399,0
DA:400,0
DA:401,0
DA:402,0
DA:403,0
DA:405,245460
DA:414,0
DA:417,0
DA:418,0
DA:419,0
DA:421,0
DA:422,0
DA:423,0
DA:426,0
DA:428,0
DA:429,0
DA:430,0
DA:431,0
DA:432,0
DA:433,0
DA:434,0
LF:166
LH:57
end_of_record
SF:/usr/include/c++/5/bits/regex_scanner.h
FN:90,_ZNSt8__detail12_ScannerBaseC2ENSt15regex_constants18syntax_option_typeE
FN:114,_ZNSt8__detail12_ScannerBase14_M_find_escapeEc
FN:124,_ZNKSt8__detail12_ScannerBase10_M_is_ecmaEv
FN:128,_ZNKSt8__detail12_ScannerBase11_M_is_basicEv
FN:144,_ZNKSt8__detail12_ScannerBase9_M_is_awkEv
FN:209,_ZNSt8__detail8_ScannerIcED2Ev
FN:225,_ZNKSt8__detail8_ScannerIcE12_M_get_tokenEv
FN:229,_ZNKSt8__detail8_ScannerIcE12_M_get_valueEv
FNDA:2,_ZNSt8__detail12_ScannerBaseC2ENSt15regex_constants18syntax_option_typeE
FNDA:90,_ZNSt8__detail12_ScannerBase14_M_find_escapeEc
FNDA:108,_ZNKSt8__detail12_ScannerBase10_M_is_ecmaEv
FNDA:90,_ZNKSt8__detail12_ScannerBase11_M_is_basicEv
FNDA:0,_ZNKSt8__detail12_ScannerBase9_M_is_awkEv
FNDA:2,_ZNSt8__detail8_ScannerIcED2Ev
FNDA:14446,_ZNKSt8__detail8_ScannerIcE12_M_get_tokenEv
FNDA:1522,_ZNKSt8__detail8_ScannerIcE12_M_get_valueEv
FNF:8
FNH:7
DA:90,2
DA:93,2
DA:96,2
DA:98,0
DA:100,0
DA:102,0
DA:104,0
DA:106,0
DA:109,6
DA:110,2
DA:114,90
DA:116,90
DA:117,1350
DA:118,630
DA:119,0
DA:120,90
DA:124,108
DA:125,108
DA:128,90
DA:129,90
DA:144,0
DA:145,0
DA:209,2
DA:225,14446
DA:226,14446
DA:229,1522
DA:230,1522
LF:27
LH:19
end_of_record
SF:/usr/include/c++/5/bits/regex_scanner.tcc
FN:56,_ZNSt8__detail8_ScannerIcEC2EPKcS3_NSt15regex_constants18syntax_option_typeESt6locale
FN:70,_ZNSt8__detail8_ScannerIcE10_M_advanceEv
FN:96,_ZNSt8__detail8_ScannerIcE14_M_scan_normalEv
FN:197,_ZNSt8__detail8_ScannerIcE18_M_scan_in_bracketEv
FN:254,_ZNSt8__detail8_ScannerIcE16_M_scan_in_braceEv
FN:295,_ZNSt8__detail8_ScannerIcE18_M_eat_escape_ecmaEv
FN:369,_ZNSt8__detail8_ScannerIcE19_M_eat_escape_posixEv
FN:409,_ZNSt8__detail8_ScannerIcE17_M_eat_escape_awkEv
FN:446,_ZNSt8__detail8_ScannerIcE12_M_eat_classEc
FNDA:2,_ZNSt8__detail8_ScannerIcEC2EPKcS3_NSt15regex_constants18syntax_option_typeESt6locale
FNDA:1524,_ZNSt8__detail8_ScannerIcE10_M_advanceEv
FNDA:1144,_ZNSt8__detail8_ScannerIcE14_M_scan_normalEv
FNDA:376,_ZNSt8__detail8_ScannerIcE18_M_scan_in_bracketEv
FNDA:0,_ZNSt8__detail8_ScannerIcE16_M_scan_in_braceEv
FNDA:90,_ZNSt8__detail8_ScannerIcE18_M_eat_escape_ecmaEv
FNDA:0,_ZNSt8__detail8_ScannerIcE19_M_eat_escape_posixEv
FNDA:0,_ZNSt8__detail8_ScannerIcE17_M_eat_escape_awkEv
FNDA:0,_ZNSt8__detail8_ScannerIcE12_M_eat_classEc
FNF:9
FNH:5
DA:56,2
DA:62,2
DA:64,2
DA:65,6
DA:66,2
DA:70,1524
DA:73,1524
DA:75,4
DA:76,4
DA:79,1520
DA:80,1144
DA:81,376
DA:82,376
DA:83,0
DA:84,0
DA:96,1144
DA:99,1144
DA:101,1144
DA:103,720
DA:104,720
DA:105,720
DA:107,424
DA:109,90
DA:110,0
DA:112,90
DA:113,0
DA:114,0
DA:115,0
DA:117,90
DA:118,90
DA:120,0
DA:122,334
DA:124,8
DA:126,0
DA:127,0
DA:129,0
DA:131,0
DA:132,0
DA:134,0
DA:136,0
DA:137,0
DA:138,0
DA:140,0
DA:142,0
DA:143,0
DA:144,0
DA:147,0
DA:149,8
DA:150,0
DA:152,8
DA:154,326
DA:155,8
DA:156,318
DA:158,94
DA:159,94
DA:160,94
DA:162,0
DA:163,0
DA:166,94
DA:168,224
DA:170,0
DA:171,0
DA:173,224
DA:175,224
DA:176,224
DA:177,2220
DA:178,1222
DA:180,224
DA:181,224
DA:183,0
DA:187,0
DA:188,0
DA:197,376
DA:200,376
DA:201,0
DA:203,376
DA:205,376
DA:207,0
DA:208,0
DA:210,0
DA:212,0
DA:213,0
DA:215,0
DA:217,0
DA:218,0
DA:220,0
DA:222,0
DA:223,0
DA:227,0
DA:228,0
DA:234,376
DA:236,94
DA:237,94
DA:240,282
DA:241,0
DA:244,282
DA:245,282
DA:247,376
DA:248,376
DA:254,0
DA:257,0
DA:258,0
DA:260,0
DA:262,0
DA:264,0
DA:265,0
DA:266,0
DA:267,0
DA:268,0
DA:270,0
DA:271,0
DA:273,0
DA:275,0
DA:277,0
DA:278,0
DA:279,0
DA:282,0
DA:284,0
DA:286,0
DA:287,0
DA:290,0
DA:291,0
DA:295,90
DA:298,90
DA:299,0
DA:301,90
DA:302,90
DA:304,90
DA:306,0
DA:307,0
DA:309,90
DA:311,0
DA:312,0
DA:314,90
DA:316,0
DA:317,0
DA:320,90
DA:327,0
DA:328,0
DA:330,90
DA:332,0
DA:333,0
DA:334,0
DA:335,0
DA:337,90
DA:339,0
DA:340,0
DA:342,0
DA:343,0
DA:344,0
DA:345,0
DA:347,0
DA:350,90
DA:352,0
DA:353,0
DA:354,0
DA:355,0
DA:356,0
DA:360,90
DA:361,90
DA:363,90
DA:369,0
DA:372,0
DA:373,0
DA:375,0
DA:376,0
DA:378,0
DA:380,0
DA:381,0
DA:384,0
DA:386,0
DA:387,0
DA:389,0
DA:391,0
DA:392,0
DA:398,0
DA:404,0
DA:409,0
DA:412,0
DA:413,0
DA:415,0
DA:417,0
DA:418,0
DA:421,0
DA:422,0
DA:425,0
DA:426,0
DA:428,0
DA:429,0
DA:430,0
DA:431,0
DA:433,0
DA:434,0
DA:435,0
DA:438,0
DA:446,0
DA:449,0
DA:450,0
DA:451,0
DA:452,0
DA:453,0
DA:454,0
DA:456,0
DA:457,0
DA:459,0
DA:461,0
LF:206
LH:69
end_of_record
SF:/usr/include/c++/5/bits/shared_ptr.h
FN:93,_ZNSt10shared_ptrIKNSt8__detail4_NFAINSt7__cxx1112regex_traitsIcEEEEED2Ev
FN:93,_ZNSt10shared_ptrINSt8__detail4_NFAINSt7__cxx1112regex_traitsIcEEEEED2Ev
FN:238,_ZNSt10shared_ptrIKNSt8__detail4_NFAINSt7__cxx1112regex_traitsIcEEEEEC2IS5_vEEOS_IT_E
FN:317,_ZNSt10shared_ptrINSt8__detail4_NFAINSt7__cxx1112regex_traitsIcEEEEEC2ISaIS5_EJRKSt6localeRNSt15regex_constants18syntax_option_typeEEEESt19_Sp_make_shared_tagRKT_DpOT0_
FN:342,_ZSteqIKNSt8__detail4_NFAINSt7__cxx1112regex_traitsIcEEEEEbRKSt10shared_ptrIT_EDn
FN:617,_ZSt15allocate_sharedINSt8__detail4_NFAINSt7__cxx1112regex_traitsIcEEEESaIS5_EJRKSt6localeRNSt15regex_constants18syntax_option_typeEEESt10shared_ptrIT_ERKT0_DpOT1_
FN:632,_ZSt11make_sharedINSt8__detail4_NFAINSt7__cxx1112regex_traitsIcEEEEJRKSt6localeRNSt15regex_constants18syntax_option_typeEEESt10shared_ptrIT_EDpOT0_
FNDA:2,_ZNSt10shared_ptrINSt8__detail4_NFAINSt7__cxx1112regex_traitsIcEEEEED2Ev
FNDA:2,_ZNSt10shared_ptrIKNSt8__detail4_NFAINSt7__cxx1112regex_traitsIcEEEEED2Ev
FNDA:2,_ZNSt10shared_ptrIKNSt8__detail4_NFAINSt7__cxx1112regex_traitsIcEEEEEC2IS5_vEEOS_IT_E
FNDA:2,_ZNSt10shared_ptrINSt8__detail4_NFAINSt7__cxx1112regex_traitsIcEEEEEC2ISaIS5_EJRKSt6localeRNSt15regex_constants18syntax_option_typeEEEESt19_Sp_make_shared_tagRKT_DpOT0_
FNDA:501,_ZSteqIKNSt8__detail4_NFAINSt7__cxx1112regex_traitsIcEEEEEbRKSt10shared_ptrIT_EDn
FNDA:2,_ZSt15allocate_sharedINSt8__detail4_NFAINSt7__cxx1112regex_traitsIcEEEESaIS5_EJRKSt6localeRNSt15regex_constants18syntax_option_typeEEESt10shared_ptrIT_ERKT0_DpOT1_
FNDA:2,_ZSt11make_sharedINSt8__detail4_NFAINSt7__cxx1112regex_traitsIcEEEEJRKSt6localeRNSt15regex_constants18syntax_option_typeEEESt10shared_ptrIT_EDpOT0_
FNF:7
FNH:7
DA:93,4
DA:238,2
DA:239,2
DA:317,2
DA:319,2
DA:320,2
DA:342,501
DA:343,501
DA:617,2
DA:620,2
DA:632,2
DA:636,2
LF:12
LH:12
end_of_record
SF:/usr/include/c++/5/bits/shared_ptr_base.h
FN:89,_ZNSt11_Mutex_baseILN9__gnu_cxx12_Lock_policyE2EEC2Ev
FN:112,_ZNSt16_Sp_counted_baseILN9__gnu_cxx12_Lock_policyE2EEC2Ev
FN:116,_ZNSt16_Sp_counted_baseILN9__gnu_cxx12_Lock_policyE2EED2Ev
FN:116,_ZNSt16_Sp_counted_baseILN9__gnu_cxx12_Lock_policyE2EED0Ev
FN:126,_ZNSt16_Sp_counted_baseILN9__gnu_cxx12_Lock_policyE2EE10_M_destroyEv
FN:143,_ZNSt16_Sp_counted_baseILN9__gnu_cxx12_Lock_policyE2EE10_M_releaseEv
FN:409,_ZNSt14_Sp_ebo_helperILi0ESaINSt8__detail4_NFAINSt7__cxx1112regex_traitsIcEEEEELb1EED2Ev
FN:411,_ZNSt14_Sp_ebo_helperILi0ESaINSt8__detail4_NFAINSt7__cxx1112regex_traitsIcEEEEELb1EEC2ERKS6_
FN:414,_ZNSt14_Sp_ebo_helperILi0ESaINSt8__detail4_NFAINSt7__cxx1112regex_traitsIcEEEEELb1EE6_S_getERS7_
FN:501,_ZNSt23_Sp_counted_ptr_inplaceINSt8__detail4_NFAINSt7__cxx1112regex_traitsIcEEEESaIS5_ELN9__gnu_cxx12_Lock_policyE2EE5_ImplD2Ev
FN:506,_ZNSt23_Sp_counted_ptr_inplaceINSt8__detail4_NFAINSt7__cxx1112regex_traitsIcEEEESaIS5_ELN9__gnu_cxx12_Lock_policyE2EE5_ImplC2ES6_
FN:508,_ZNSt23_Sp_counted_ptr_inplaceINSt8__detail4_NFAINSt7__cxx1112regex_traitsIcEEEESaIS5_ELN9__gnu_cxx12_Lock_policyE2EE5_Impl8_M_allocEv
FN:517,_ZNSt23_Sp_counted_ptr_inplaceINSt8__detail4_NFAINSt7__cxx1112regex_traitsIcEEEESaIS5_ELN9__gnu_cxx12_Lock_policyE2EEC2IJRKSt6localeRNSt15regex_constants18syntax_option_typeEEEES6_DpOT_
FN:526,_ZNSt23_Sp_counted_ptr_inplaceINSt8__detail4_NFAINSt7__cxx1112regex_traitsIcEEEESaIS5_ELN9__gnu_cxx12_Lock_policyE2EED2Ev
FN:526,_ZNSt23_Sp_counted_ptr_inplaceINSt8__detail4_NFAINSt7__cxx1112regex_traitsIcEEEESaIS5_ELN9__gnu_cxx12_Lock_policyE2EED0Ev
FN:529,_ZNSt23_Sp_counted_ptr_inplaceINSt8__detail4_NFAINSt7__cxx1112regex_traitsIcEEEESaIS5_ELN9__gnu_cxx12_Lock_policyE2EE10_M_disposeEv
FN:536,_ZNSt23_Sp_counted_ptr_inplaceINSt8__detail4_NFAINSt7__cxx1112regex_traitsIcEEEESaIS5_ELN9__gnu_cxx12_Lock_policyE2EE10_M_destroyEv
FN:545,_ZNSt23_Sp_counted_ptr_inplaceINSt8__detail4_NFAINSt7__cxx1112regex_traitsIcEEEESaIS5_ELN9__gnu_cxx12_Lock_policyE2EE14_M_get_deleterERKSt9type_info
FN:555,_ZNSt23_Sp_counted_ptr_inplaceINSt8__detail4_NFAINSt7__cxx1112regex_traitsIcEEEESaIS5_ELN9__gnu_cxx12_Lock_policyE2EE6_M_ptrEv
FN:565,_ZNSt14__shared_countILN9__gnu_cxx12_Lock_policyE2EEC2Ev
FN:609,_ZNSt14__shared_countILN9__gnu_cxx12_Lock_policyE2EEC2INSt8__detail4_NFAINSt7__cxx1112regex_traitsIcEEEESaIS9_EJRKSt6localeRNSt15regex_constants18syntax_option_typeEEEESt19_Sp_make_shared_tagPT_RKT0_DpOT1_
FN:656,_ZNSt14__shared_countILN9__gnu_cxx12_Lock_policyE2EED2Ev
FN:685,_ZNSt14__shared_countILN9__gnu_cxx12_Lock_policyE2EE7_M_swapERS2_
FN:701,_ZNKSt14__shared_countILN9__gnu_cxx12_Lock_policyE2EE14_M_get_deleterERKSt9type_info
FN:862,_ZSt32__enable_shared_from_this_helperILN9__gnu_cxx12_Lock_policyE2EEvRKSt14__shared_countIXT_EEz
FN:925,_ZNSt12__shared_ptrIKNSt8__detail4_NFAINSt7__cxx1112regex_traitsIcEEEELN9__gnu_cxx12_Lock_policyE2EED2Ev
FN:925,_ZNSt12__shared_ptrINSt8__detail4_NFAINSt7__cxx1112regex_traitsIcEEEELN9__gnu_cxx12_Lock_policyE2EED2Ev
FN:940,_ZNSt12__shared_ptrIKNSt8__detail4_NFAINSt7__cxx1112regex_traitsIcEEEELN9__gnu_cxx12_Lock_policyE2EEC2IS5_vEEOS_IT_LS8_2EE
FN:1045,_ZNKSt12__shared_ptrINSt8__detail4_NFAINSt7__cxx1112regex_traitsIcEEEELN9__gnu_cxx12_Lock_policyE2EEdeEv
FN:1045,_ZNKSt12__shared_ptrIKNSt8__detail4_NFAINSt7__cxx1112regex_traitsIcEEEELN9__gnu_cxx12_Lock_policyE2EEdeEv
FN:1052,_ZNKSt12__shared_ptrINSt8__detail4_NFAINSt7__cxx1112regex_traitsIcEEEELN9__gnu_cxx12_Lock_policyE2EEptEv
FN:1052,_ZNKSt12__shared_ptrIKNSt8__detail4_NFAINSt7__cxx1112regex_traitsIcEEEELN9__gnu_cxx12_Lock_policyE2EEptEv
FN:1062,_ZNKSt12__shared_ptrIKNSt8__detail4_NFAINSt7__cxx1112regex_traitsIcEEEELN9__gnu_cxx12_Lock_policyE2EEcvbEv
FN:1094,_ZNSt12__shared_ptrINSt8__detail4_NFAINSt7__cxx1112regex_traitsIcEEEELN9__gnu_cxx12_Lock_policyE2EEC2ISaIS5_EJRKSt6localeRNSt15regex_constants18syntax_option_typeEEEESt19_Sp_make_shared_tagRKT_DpOT0_
FNDA:2,_ZNSt11_Mutex_baseILN9__gnu_cxx12_Lock_policyE2EEC2Ev
FNDA:2,_ZNSt16_Sp_counted_baseILN9__gnu_cxx12_Lock_policyE2EEC2Ev
FNDA:0,_ZNSt16_Sp_counted_baseILN9__gnu_cxx12_Lock_policyE2EED0Ev
FNDA:2,_ZNSt16_Sp_counted_baseILN9__gnu_cxx12_Lock_policyE2EED2Ev
FNDA:0,_ZNSt16_Sp_counted_baseILN9__gnu_cxx12_Lock_policyE2EE10_M_destroyEv
FNDA:2,_ZNSt16_Sp_counted_baseILN9__gnu_cxx12_Lock_policyE2EE10_M_releaseEv
FNDA:2,_ZNSt14_Sp_ebo_helperILi0ESaINSt8__detail4_NFAINSt7__cxx1112regex_traitsIcEEEEELb1EED2Ev
FNDA:2,_ZNSt14_Sp_ebo_helperILi0ESaINSt8__detail4_NFAINSt7__cxx1112regex_traitsIcEEEEELb1EEC2ERKS6_
FNDA:4,_ZNSt14_Sp_ebo_helperILi0ESaINSt8__detail4_NFAINSt7__cxx1112regex_traitsIcEEEEELb1EE6_S_getERS7_
FNDA:2,_ZNSt23_Sp_counted_ptr_inplaceINSt8__detail4_NFAINSt7__cxx1112regex_traitsIcEEEESaIS5_ELN9__gnu_cxx12_Lock_policyE2EE5_ImplD2Ev
FNDA:2,_ZNSt23_Sp_counted_ptr_inplaceINSt8__detail4_NFAINSt7__cxx1112regex_traitsIcEEEESaIS5_ELN9__gnu_cxx12_Lock_policyE2EE5_ImplC2ES6_
FNDA:4,_ZNSt23_Sp_counted_ptr_inplaceINSt8__detail4_NFAINSt7__cxx1112regex_traitsIcEEEESaIS5_ELN9__gnu_cxx12_Lock_policyE2EE5_Impl8_M_allocEv
FNDA:2,_ZNSt23_Sp_counted_ptr_inplaceINSt8__detail4_NFAINSt7__cxx1112regex_traitsIcEEEESaIS5_ELN9__gnu_cxx12_Lock_policyE2EEC2IJRKSt6localeRNSt15regex_constants18syntax_option_typeEEEES6_DpOT_
FNDA:0,_ZNSt23_Sp_counted_ptr_inplaceINSt8__detail4_NFAINSt7__cxx1112regex_traitsIcEEEESaIS5_ELN9__gnu_cxx12_Lock_policyE2EED0Ev
FNDA:2,_ZNSt23_Sp_counted_ptr_inplaceINSt8__detail4_NFAINSt7__cxx1112regex_traitsIcEEEESaIS5_ELN9__gnu_cxx12_Lock_policyE2EED2Ev
FNDA:2,_ZNSt23_Sp_counted_ptr_inplaceINSt8__detail4_NFAINSt7__cxx1112regex_traitsIcEEEESaIS5_ELN9__gnu_cxx12_Lock_policyE2EE10_M_disposeEv
FNDA:2,_ZNSt23_Sp_counted_ptr_inplaceINSt8__detail4_NFAINSt7__cxx1112regex_traitsIcEEEESaIS5_ELN9__gnu_cxx12_Lock_policyE2EE10_M_destroyEv
FNDA:2,_ZNSt23_Sp_counted_ptr_inplaceINSt8__detail4_NFAINSt7__cxx1112regex_traitsIcEEEESaIS5_ELN9__gnu_cxx12_Lock_policyE2EE14_M_get_deleterERKSt9type_info
FNDA:6,_ZNSt23_Sp_counted_ptr_inplaceINSt8__detail4_NFAINSt7__cxx1112regex_traitsIcEEEESaIS5_ELN9__gnu_cxx12_Lock_policyE2EE6_M_ptrEv
FNDA:2,_ZNSt14__shared_countILN9__gnu_cxx12_Lock_policyE2EEC2Ev
FNDA:2,_ZNSt14__shared_countILN9__gnu_cxx12_Lock_policyE2EEC2INSt8__detail4_NFAINSt7__cxx1112regex_traitsIcEEEESaIS9_EJRKSt6localeRNSt15regex_constants18syntax_option_typeEEEESt19_Sp_make_shared_tagPT_RKT0_DpOT1_
FNDA:4,_ZNSt14__shared_countILN9__gnu_cxx12_Lock_policyE2EED2Ev
FNDA:2,_ZNSt14__shared_countILN9__gnu_cxx12_Lock_policyE2EE7_M_swapERS2_
FNDA:2,_ZNKSt14__shared_countILN9__gnu_cxx12_Lock_policyE2EE14_M_get_deleterERKSt9type_info
FNDA:2,_ZSt32__enable_shared_from_this_helperILN9__gnu_cxx12_Lock_policyE2EEvRKSt14__shared_countIXT_EEz
FNDA:2,_ZNSt12__shared_ptrINSt8__detail4_NFAINSt7__cxx1112regex_traitsIcEEEELN9__gnu_cxx12_Lock_policyE2EED2Ev
FNDA:2,_ZNSt12__shared_ptrIKNSt8__detail4_NFAINSt7__cxx1112regex_traitsIcEEEELN9__gnu_cxx12_Lock_policyE2EED2Ev
FNDA:2,_ZNSt12__shared_ptrIKNSt8__detail4_NFAINSt7__cxx1112regex_traitsIcEEEELN9__gnu_cxx12_Lock_policyE2EEC2IS5_vEEOS_IT_LS8_2EE
FNDA:501,_ZNKSt12__shared_ptrIKNSt8__detail4_NFAINSt7__cxx1112regex_traitsIcEEEELN9__gnu_cxx12_Lock_policyE2EEdeEv
FNDA:1102,_ZNKSt12__shared_ptrINSt8__detail4_NFAINSt7__cxx1112regex_traitsIcEEEELN9__gnu_cxx12_Lock_policyE2EEdeEv
FNDA:1306,_ZNKSt12__shared_ptrINSt8__detail4_NFAINSt7__cxx1112regex_traitsIcEEEELN9__gnu_cxx12_Lock_policyE2EEptEv
FNDA:1002,_ZNKSt12__shared_ptrIKNSt8__detail4_NFAINSt7__cxx1112regex_traitsIcEEEELN9__gnu_cxx12_Lock_policyE2EEptEv
FNDA:501,_ZNKSt12__shared_ptrIKNSt8__detail4_NFAINSt7__cxx1112regex_traitsIcEEEELN9__gnu_cxx12_Lock_policyE2EEcvbEv
FNDA:2,_ZNSt12__shared_ptrINSt8__detail4_NFAINSt7__cxx1112regex_traitsIcEEEELN9__gnu_cxx12_Lock_policyE2EEC2ISaIS5_EJRKSt6localeRNSt15regex_constants18syntax_option_typeEEEESt19_Sp_make_shared_tagRKT_DpOT0_
FNF:34
FNH:31
DA:89,2
DA:112,2
DA:113,2
DA:116,2
DA:117,2
DA:126,0
DA:127,0
DA:143,2
DA:147,2
DA:150,2
DA:163,2
DA:167,2
DA:170,2
DA:409,2
DA:411,2
DA:414,4
DA:501,2
DA:506,2
DA:508,4
DA:517,2
DA:518,2
DA:522,2
DA:523,2
DA:524,2
DA:526,2
DA:529,2
DA:531,2
DA:532,2
DA:536,2
DA:538,4
DA:539,4
DA:540,2
DA:541,2
DA:545,2
DA:548,2
DA:549,2
DA:551,0
DA:555,6
DA:565,2
DA:566,2
DA:609,2
DA:611,2
DA:614,4
DA:615,4
DA:616,2
DA:617,2
DA:619,2
DA:620,2
DA:621,2
DA:656,4
DA:658,4
DA:659,2
DA:660,4
DA:685,2
DA:687,2
DA:688,2
DA:689,2
DA:690,2
DA:701,2
DA:702,2
DA:862,2
DA:863,2
DA:925,4
DA:940,2
DA:941,2
DA:943,2
DA:944,2
DA:945,2
DA:1045,1603
DA:1048,1603
DA:1052,2308
DA:1055,2308
DA:1062,501
DA:1063,501
DA:1094,2
DA:1097,2
DA:1101,2
DA:1102,2
DA:1103,2
DA:1104,2
LF:80
LH:77
end_of_record
SF:/usr/include/c++/5/bits/stl_algo.h
FN:78,_ZSt22__move_median_to_firstIN9__gnu_cxx17__normal_iteratorIPN5Catch8TestCaseESt6vectorIS3_SaIS3_EEEENS0_5__ops15_Iter_less_iterEEvT_SB_SB_SB_T0_
FN:78,_ZSt22__move_median_to_firstIN9__gnu_cxx17__normal_iteratorIPcSt6vectorIcSaIcEEEENS0_5__ops15_Iter_less_iterEEvT_S9_S9_S9_T0_
FN:112,_ZSt9__find_ifIN9__gnu_cxx17__normal_iteratorIPKcNSt7__cxx1112basic_stringIcSt11char_traitsIcESaIcEEEEENS0_5__ops16_Iter_equals_valIS2_EEET_SE_SE_T0_St26random_access_iterator_tag
FN:112,_ZSt9__find_ifIN9__gnu_cxx17__normal_iteratorIPN5Catch3PtrINS2_22CumulativeReporterBase11SectionNodeEEESt6vectorIS6_SaIS6_EEEENS0_5__ops10_Iter_predINS4_13BySectionInfoEEEET_SG_SG_T0_St26random_access_iterator_tag
FN:112,_ZSt9__find_ifIN9__gnu_cxx17__normal_iteratorIPN5Catch11MessageInfoESt6vectorIS3_SaIS3_EEEENS0_5__ops16_Iter_equals_valIKS3_EEET_SD_SD_T0_St26random_access_iterator_tag
FN:112,_ZSt9__find_ifIN9__gnu_cxx17__normal_iteratorIPKNSt7__cxx1112basic_stringIcSt11char_traitsIcESaIcEEESt6vectorIS7_SaIS7_EEEENS0_5__ops16_Iter_equals_valIS8_EEET_SH_SH_T0_St26random_access_iterator_tag
FN:112,_ZSt9__find_ifIN9__gnu_cxx17__normal_iteratorIPN5Catch3PtrINS2_16TestCaseTracking8ITrackerEEESt6vectorIS6_SaIS6_EEEENS0_5__ops10_Iter_predINS4_11TrackerBase14TrackerHasNameEEEET_SH_SH_T0_St26random_access_iterator_tag
FN:159,_ZSt9__find_ifIN9__gnu_cxx17__normal_iteratorIPN5Catch11MessageInfoESt6vectorIS3_SaIS3_EEEENS0_5__ops16_Iter_equals_valIKS3_EEET_SD_SD_T0_
FN:159,_ZSt9__find_ifIN9__gnu_cxx17__normal_iteratorIPKNSt7__cxx1112basic_stringIcSt11char_traitsIcESaIcEEESt6vectorIS7_SaIS7_EEEENS0_5__ops16_Iter_equals_valIS8_EEET_SH_SH_T0_
FN:159,_ZSt9__find_ifIN9__gnu_cxx17__normal_iteratorIPN5Catch3PtrINS2_16TestCaseTracking8ITrackerEEESt6vectorIS6_SaIS6_EEEENS0_5__ops10_Iter_predINS4_11TrackerBase14TrackerHasNameEEEET_SH_SH_T0_
FN:159,_ZSt9__find_ifIN9__gnu_cxx17__normal_iteratorIPKcNSt7__cxx1112basic_stringIcSt11char_traitsIcESaIcEEEEENS0_5__ops16_Iter_equals_valIS2_EEET_SE_SE_T0_
FN:159,_ZSt9__find_ifIN9__gnu_cxx17__normal_iteratorIPN5Catch3PtrINS2_22CumulativeReporterBase11SectionNodeEEESt6vectorIS6_SaIS6_EEEENS0_5__ops10_Iter_predINS4_13BySectionInfoEEEET_SG_SG_T0_
FN:857,_ZSt11__remove_ifIN9__gnu_cxx17__normal_iteratorIPN5Catch11MessageInfoESt6vectorIS3_SaIS3_EEEENS0_5__ops16_Iter_equals_valIKS3_EEET_SD_SD_T0_
FN:893,_ZSt6removeIN9__gnu_cxx17__normal_iteratorIPN5Catch11MessageInfoESt6vectorIS3_SaIS3_EEEES3_ET_S9_S9_RKT0_
FN:942,_ZSt15__adjacent_findIN9__gnu_cxx17__normal_iteratorIPcSt6vectorIcSaIcEEEENS0_5__ops19_Iter_equal_to_iterEET_S9_S9_T0_
FN:959,_ZSt8__uniqueIN9__gnu_cxx17__normal_iteratorIPcSt6vectorIcSaIcEEEENS0_5__ops19_Iter_equal_to_iterEET_S9_S9_T0_
FN:992,_ZSt6uniqueIN9__gnu_cxx17__normal_iteratorIPcSt6vectorIcSaIcEEEEET_S7_S7_
FN:1665,_ZSt13__heap_selectIN9__gnu_cxx17__normal_iteratorIPN5Catch8TestCaseESt6vectorIS3_SaIS3_EEEENS0_5__ops15_Iter_less_iterEEvT_SB_SB_T0_
FN:1665,_ZSt13__heap_selectIN9__gnu_cxx17__normal_iteratorIPcSt6vectorIcSaIcEEEENS0_5__ops15_Iter_less_iterEEvT_S9_S9_T0_
FN:1816,_ZSt25__unguarded_linear_insertIN9__gnu_cxx17__normal_iteratorIPcSt6vectorIcSaIcEEEENS0_5__ops14_Val_less_iterEEvT_T0_
FN:1816,_ZSt25__unguarded_linear_insertIN9__gnu_cxx17__normal_iteratorIPN5Catch8TestCaseESt6vectorIS3_SaIS3_EEEENS0_5__ops14_Val_less_iterEEvT_T0_
FN:1835,_ZSt16__insertion_sortIN9__gnu_cxx17__normal_iteratorIPcSt6vectorIcSaIcEEEENS0_5__ops15_Iter_less_iterEEvT_S9_T0_
FN:1835,_ZSt16__insertion_sortIN9__gnu_cxx17__normal_iteratorIPN5Catch8TestCaseESt6vectorIS3_SaIS3_EEEENS0_5__ops15_Iter_less_iterEEvT_SB_T0_
FN:1858,_ZSt26__unguarded_insertion_sortIN9__gnu_cxx17__normal_iteratorIPcSt6vectorIcSaIcEEEENS0_5__ops15_Iter_less_iterEEvT_S9_T0_
FN:1858,_ZSt26__unguarded_insertion_sortIN9__gnu_cxx17__normal_iteratorIPN5Catch8TestCaseESt6vectorIS3_SaIS3_EEEENS0_5__ops15_Iter_less_iterEEvT_SB_T0_
FN:1875,_ZSt22__final_insertion_sortIN9__gnu_cxx17__normal_iteratorIPN5Catch8TestCaseESt6vectorIS3_SaIS3_EEEENS0_5__ops15_Iter_less_iterEEvT_SB_T0_
FN:1875,_ZSt22__final_insertion_sortIN9__gnu_cxx17__normal_iteratorIPcSt6vectorIcSaIcEEEENS0_5__ops15_Iter_less_iterEEvT_S9_T0_
FN:1891,_ZSt21__unguarded_partitionIN9__gnu_cxx17__normal_iteratorIPcSt6vectorIcSaIcEEEENS0_5__ops15_Iter_less_iterEET_S9_S9_S9_T0_
FN:1891,_ZSt21__unguarded_partitionIN9__gnu_cxx17__normal_iteratorIPN5Catch8TestCaseESt6vectorIS3_SaIS3_EEEENS0_5__ops15_Iter_less_iterEET_SB_SB_SB_T0_
FN:1912,_ZSt27__unguarded_partition_pivotIN9__gnu_cxx17__normal_iteratorIPN5Catch8TestCaseESt6vectorIS3_SaIS3_EEEENS0_5__ops15_Iter_less_iterEET_SB_SB_T0_
FN:1912,_ZSt27__unguarded_partition_pivotIN9__gnu_cxx17__normal_iteratorIPcSt6vectorIcSaIcEEEENS0_5__ops15_Iter_less_iterEET_S9_S9_T0_
FN:1923,_ZSt14__partial_sortIN9__gnu_cxx17__normal_iteratorIPcSt6vectorIcSaIcEEEENS0_5__ops15_Iter_less_iterEEvT_S9_S9_T0_
FN:1923,_ZSt14__partial_sortIN9__gnu_cxx17__normal_iteratorIPN5Catch8TestCaseESt6vectorIS3_SaIS3_EEEENS0_5__ops15_Iter_less_iterEEvT_SB_SB_T0_
FN:1935,_ZSt16__introsort_loopIN9__gnu_cxx17__normal_iteratorIPN5Catch8TestCaseESt6vectorIS3_SaIS3_EEEElNS0_5__ops15_Iter_less_iterEEvT_SB_T0_T1_
FN:1935,_ZSt16__introsort_loopIN9__gnu_cxx17__normal_iteratorIPcSt6vectorIcSaIcEEEElNS0_5__ops15_Iter_less_iterEEvT_S9_T0_T1_
FN:1958,_ZSt6__sortIN9__gnu_cxx17__normal_iteratorIPN5Catch8TestCaseESt6vectorIS3_SaIS3_EEEENS0_5__ops15_Iter_less_iterEEvT_SB_T0_
FN:1958,_ZSt6__sortIN9__gnu_cxx17__normal_iteratorIPcSt6vectorIcSaIcEEEENS0_5__ops15_Iter_less_iterEEvT_S9_T0_
FN:2254,_ZSt13binary_searchIN9__gnu_cxx17__normal_iteratorIPKcSt6vectorIcSaIcEEEEcEbT_S8_RKT0_
FN:3717,_ZSt7shuffleIN9__gnu_cxx17__normal_iteratorIPN5Catch8TestCaseESt6vectorIS3_SaIS3_EEEERNS2_21RandomNumberGeneratorEEvT_SB_OT0_
FN:3782,_ZSt4findIN9__gnu_cxx17__normal_iteratorIPKNSt7__cxx1112basic_stringIcSt11char_traitsIcESaIcEEESt6vectorIS7_SaIS7_EEEES7_ET_SE_SE_RKT0_
FN:3782,_ZSt4findIN9__gnu_cxx17__normal_iteratorIPKcNSt7__cxx1112basic_stringIcSt11char_traitsIcESaIcEEEEEcET_SB_SB_RKT0_
FN:3806,_ZSt7find_ifIN9__gnu_cxx17__normal_iteratorIPN5Catch3PtrINS2_22CumulativeReporterBase11SectionNodeEEESt6vectorIS6_SaIS6_EEEENS4_13BySectionInfoEET_SD_SD_T0_
FN:3806,_ZSt7find_ifIN9__gnu_cxx17__normal_iteratorIPN5Catch3PtrINS2_16TestCaseTracking8ITrackerEEESt6vectorIS6_SaIS6_EEEENS4_11TrackerBase14TrackerHasNameEET_SE_SE_T0_
FN:4164,_ZSt9transformIN9__gnu_cxx17__normal_iteratorIPcNSt7__cxx1112basic_stringIcSt11char_traitsIcESaIcEEEEES9_PFccEET0_T_SD_SC_T1_
FN:4689,_ZSt4sortIN9__gnu_cxx17__normal_iteratorIPN5Catch8TestCaseESt6vectorIS3_SaIS3_EEEEEvT_S9_
FN:4689,_ZSt4sortIN9__gnu_cxx17__normal_iteratorIPcSt6vectorIcSaIcEEEEEvT_S7_
FNDA:0,_ZSt22__move_median_to_firstIN9__gnu_cxx17__normal_iteratorIPcSt6vectorIcSaIcEEEENS0_5__ops15_Iter_less_iterEEvT_S9_S9_S9_T0_
FNDA:0,_ZSt22__move_median_to_firstIN9__gnu_cxx17__normal_iteratorIPN5Catch8TestCaseESt6vectorIS3_SaIS3_EEEENS0_5__ops15_Iter_less_iterEEvT_SB_SB_SB_T0_
FNDA:0,_ZSt9__find_ifIN9__gnu_cxx17__normal_iteratorIPN5Catch11MessageInfoESt6vectorIS3_SaIS3_EEEENS0_5__ops16_Iter_equals_valIKS3_EEET_SD_SD_T0_St26random_access_iterator_tag
FNDA:0,_ZSt9__find_ifIN9__gnu_cxx17__normal_iteratorIPN5Catch3PtrINS2_22CumulativeReporterBase11SectionNodeEEESt6vectorIS6_SaIS6_EEEENS0_5__ops10_Iter_predINS4_13BySectionInfoEEEET_SG_SG_T0_St26random_access_iterator_tag
FNDA:6,_ZSt9__find_ifIN9__gnu_cxx17__normal_iteratorIPN5Catch3PtrINS2_16TestCaseTracking8ITrackerEEESt6vectorIS6_SaIS6_EEEENS0_5__ops10_Iter_predINS4_11TrackerBase14TrackerHasNameEEEET_SH_SH_T0_St26random_access_iterator_tag
FNDA:0,_ZSt9__find_ifIN9__gnu_cxx17__normal_iteratorIPKcNSt7__cxx1112basic_stringIcSt11char_traitsIcESaIcEEEEENS0_5__ops16_Iter_equals_valIS2_EEET_SE_SE_T0_St26random_access_iterator_tag
FNDA:23970,_ZSt9__find_ifIN9__gnu_cxx17__normal_iteratorIPKNSt7__cxx1112basic_stringIcSt11char_traitsIcESaIcEEESt6vectorIS7_SaIS7_EEEENS0_5__ops16_Iter_equals_valIS8_EEET_SH_SH_T0_St26random_access_iterator_tag
FNDA:0,_ZSt9__find_ifIN9__gnu_cxx17__normal_iteratorIPN5Catch11MessageInfoESt6vectorIS3_SaIS3_EEEENS0_5__ops16_Iter_equals_valIKS3_EEET_SD_SD_T0_
FNDA:0,_ZSt9__find_ifIN9__gnu_cxx17__normal_iteratorIPN5Catch3PtrINS2_22CumulativeReporterBase11SectionNodeEEESt6vectorIS6_SaIS6_EEEENS0_5__ops10_Iter_predINS4_13BySectionInfoEEEET_SG_SG_T0_
FNDA:6,_ZSt9__find_ifIN9__gnu_cxx17__normal_iteratorIPN5Catch3PtrINS2_16TestCaseTracking8ITrackerEEESt6vectorIS6_SaIS6_EEEENS0_5__ops10_Iter_predINS4_11TrackerBase14TrackerHasNameEEEET_SH_SH_T0_
FNDA:0,_ZSt9__find_ifIN9__gnu_cxx17__normal_iteratorIPKcNSt7__cxx1112basic_stringIcSt11char_traitsIcESaIcEEEEENS0_5__ops16_Iter_equals_valIS2_EEET_SE_SE_T0_
FNDA:23970,_ZSt9__find_ifIN9__gnu_cxx17__normal_iteratorIPKNSt7__cxx1112basic_stringIcSt11char_traitsIcESaIcEEESt6vectorIS7_SaIS7_EEEENS0_5__ops16_Iter_equals_valIS8_EEET_SH_SH_T0_
FNDA:0,_ZSt11__remove_ifIN9__gnu_cxx17__normal_iteratorIPN5Catch11MessageInfoESt6vectorIS3_SaIS3_EEEENS0_5__ops16_Iter_equals_valIKS3_EEET_SD_SD_T0_
FNDA:0,_ZSt6removeIN9__gnu_cxx17__normal_iteratorIPN5Catch11MessageInfoESt6vectorIS3_SaIS3_EEEES3_ET_S9_S9_RKT0_
FNDA:94,_ZSt15__adjacent_findIN9__gnu_cxx17__normal_iteratorIPcSt6vectorIcSaIcEEEENS0_5__ops19_Iter_equal_to_iterEET_S9_S9_T0_
FNDA:94,_ZSt8__uniqueIN9__gnu_cxx17__normal_iteratorIPcSt6vectorIcSaIcEEEENS0_5__ops19_Iter_equal_to_iterEET_S9_S9_T0_
FNDA:94,_ZSt6uniqueIN9__gnu_cxx17__normal_iteratorIPcSt6vectorIcSaIcEEEEET_S7_S7_
FNDA:0,_ZSt13__heap_selectIN9__gnu_cxx17__normal_iteratorIPcSt6vectorIcSaIcEEEENS0_5__ops15_Iter_less_iterEEvT_S9_S9_T0_
FNDA:0,_ZSt13__heap_selectIN9__gnu_cxx17__normal_iteratorIPN5Catch8TestCaseESt6vectorIS3_SaIS3_EEEENS0_5__ops15_Iter_less_iterEEvT_SB_SB_T0_
FNDA:0,_ZSt25__unguarded_linear_insertIN9__gnu_cxx17__normal_iteratorIPcSt6vectorIcSaIcEEEENS0_5__ops14_Val_less_iterEEvT_T0_
FNDA:0,_ZSt25__unguarded_linear_insertIN9__gnu_cxx17__normal_iteratorIPN5Catch8TestCaseESt6vectorIS3_SaIS3_EEEENS0_5__ops14_Val_less_iterEEvT_T0_
FNDA:94,_ZSt16__insertion_sortIN9__gnu_cxx17__normal_iteratorIPcSt6vectorIcSaIcEEEENS0_5__ops15_Iter_less_iterEEvT_S9_T0_
FNDA:0,_ZSt16__insertion_sortIN9__gnu_cxx17__normal_iteratorIPN5Catch8TestCaseESt6vectorIS3_SaIS3_EEEENS0_5__ops15_Iter_less_iterEEvT_SB_T0_
FNDA:0,_ZSt26__unguarded_insertion_sortIN9__gnu_cxx17__normal_iteratorIPcSt6vectorIcSaIcEEEENS0_5__ops15_Iter_less_iterEEvT_S9_T0_
FNDA:0,_ZSt26__unguarded_insertion_sortIN9__gnu_cxx17__normal_iteratorIPN5Catch8TestCaseESt6vectorIS3_SaIS3_EEEENS0_5__ops15_Iter_less_iterEEvT_SB_T0_
FNDA:94,_ZSt22__final_insertion_sortIN9__gnu_cxx17__normal_iteratorIPcSt6vectorIcSaIcEEEENS0_5__ops15_Iter_less_iterEEvT_S9_T0_
FNDA:0,_ZSt22__final_insertion_sortIN9__gnu_cxx17__normal_iteratorIPN5Catch8TestCaseESt6vectorIS3_SaIS3_EEEENS0_5__ops15_Iter_less_iterEEvT_SB_T0_
FNDA:0,_ZSt21__unguarded_partitionIN9__gnu_cxx17__normal_iteratorIPcSt6vectorIcSaIcEEEENS0_5__ops15_Iter_less_iterEET_S9_S9_S9_T0_
FNDA:0,_ZSt21__unguarded_partitionIN9__gnu_cxx17__normal_iteratorIPN5Catch8TestCaseESt6vectorIS3_SaIS3_EEEENS0_5__ops15_Iter_less_iterEET_SB_SB_SB_T0_
FNDA:0,_ZSt27__unguarded_partition_pivotIN9__gnu_cxx17__normal_iteratorIPcSt6vectorIcSaIcEEEENS0_5__ops15_Iter_less_iterEET_S9_S9_T0_
FNDA:0,_ZSt27__unguarded_partition_pivotIN9__gnu_cxx17__normal_iteratorIPN5Catch8TestCaseESt6vectorIS3_SaIS3_EEEENS0_5__ops15_Iter_less_iterEET_SB_SB_T0_
FNDA:0,_ZSt14__partial_sortIN9__gnu_cxx17__normal_iteratorIPcSt6vectorIcSaIcEEEENS0_5__ops15_Iter_less_iterEEvT_S9_S9_T0_
FNDA:0,_ZSt14__partial_sortIN9__gnu_cxx17__normal_iteratorIPN5Catch8TestCaseESt6vectorIS3_SaIS3_EEEENS0_5__ops15_Iter_less_iterEEvT_SB_SB_T0_
FNDA:94,_ZSt16__introsort_loopIN9__gnu_cxx17__normal_iteratorIPcSt6vectorIcSaIcEEEElNS0_5__ops15_Iter_less_iterEEvT_S9_T0_T1_
FNDA:0,_ZSt16__introsort_loopIN9__gnu_cxx17__normal_iteratorIPN5Catch8TestCaseESt6vectorIS3_SaIS3_EEEElNS0_5__ops15_Iter_less_iterEEvT_SB_T0_T1_
FNDA:94,_ZSt6__sortIN9__gnu_cxx17__normal_iteratorIPcSt6vectorIcSaIcEEEENS0_5__ops15_Iter_less_iterEEvT_S9_T0_
FNDA:0,_ZSt6__sortIN9__gnu_cxx17__normal_iteratorIPN5Catch8TestCaseESt6vectorIS3_SaIS3_EEEENS0_5__ops15_Iter_less_iterEEvT_SB_T0_
FNDA:24064,_ZSt13binary_searchIN9__gnu_cxx17__normal_iteratorIPKcSt6vectorIcSaIcEEEEcEbT_S8_RKT0_
FNDA:0,_ZSt7shuffleIN9__gnu_cxx17__normal_iteratorIPN5Catch8TestCaseESt6vectorIS3_SaIS3_EEEERNS2_21RandomNumberGeneratorEEvT_SB_OT0_
FNDA:0,_ZSt4findIN9__gnu_cxx17__normal_iteratorIPKcNSt7__cxx1112basic_stringIcSt11char_traitsIcESaIcEEEEEcET_SB_SB_RKT0_
FNDA:23970,_ZSt4findIN9__gnu_cxx17__normal_iteratorIPKNSt7__cxx1112basic_stringIcSt11char_traitsIcESaIcEEESt6vectorIS7_SaIS7_EEEES7_ET_SE_SE_RKT0_
FNDA:0,_ZSt7find_ifIN9__gnu_cxx17__normal_iteratorIPN5Catch3PtrINS2_22CumulativeReporterBase11SectionNodeEEESt6vectorIS6_SaIS6_EEEENS4_13BySectionInfoEET_SD_SD_T0_
FNDA:6,_ZSt7find_ifIN9__gnu_cxx17__normal_iteratorIPN5Catch3PtrINS2_16TestCaseTracking8ITrackerEEESt6vectorIS6_SaIS6_EEEENS4_11TrackerBase14TrackerHasNameEET_SE_SE_T0_
FNDA:7,_ZSt9transformIN9__gnu_cxx17__normal_iteratorIPcNSt7__cxx1112basic_stringIcSt11char_traitsIcESaIcEEEEES9_PFccEET0_T_SD_SC_T1_
FNDA:94,_ZSt4sortIN9__gnu_cxx17__normal_iteratorIPcSt6vectorIcSaIcEEEEEvT_S7_
FNDA:0,_ZSt4sortIN9__gnu_cxx17__normal_iteratorIPN5Catch8TestCaseESt6vectorIS3_SaIS3_EEEEEvT_S9_
FNF:46
FNH:16
DA:78,0
DA:81,0
DA:83,0
DA:84,0
DA:85,0
DA:86,0
DA:88,0
DA:90,0
DA:91,0
DA:92,0
DA:93,0
DA:95,0
DA:96,0
DA:112,23976
DA:116,23976
DA:118,23976
DA:120,0
DA:121,0
DA:122,0
DA:124,0
DA:125,0
DA:126,0
DA:128,0
DA:129,0
DA:130,0
DA:132,0
DA:133,0
DA:134,0
DA:137,23976
DA:140,0
DA:141,0
DA:142,0
DA:144,0
DA:145,0
DA:146,0
DA:148,0
DA:149,0
DA:150,0
DA:153,23976
DA:159,23976
DA:161,23982
DA:162,47958
DA:857,0
DA:860,0
DA:861,0
DA:862,0
DA:863,0
DA:864,0
DA:865,0
DA:866,0
DA:868,0
DA:869,0
DA:871,0
DA:893,0
DA:903,0
DA:904,0
DA:942,94
DA:945,94
DA:946,0
DA:947,94
DA:948,94
DA:950,0
DA:951,0
DA:952,0
DA:954,94
DA:959,94
DA:963,94
DA:964,94
DA:965,94
DA:968,0
DA:969,0
DA:970,0
DA:971,0
DA:972,0
DA:973,0
DA:992,94
DA:1001,94
DA:1002,188
DA:1665,0
DA:1669,0
DA:1670,0
DA:1671,0
DA:1672,0
DA:1673,0
DA:1816,0
DA:1820,0
DA:1821,0
DA:1822,0
DA:1823,0
DA:1825,0
DA:1826,0
DA:1827,0
DA:1829,0
DA:1830,0
DA:1835,94
DA:1838,94
DA:1840,94
DA:1842,0
DA:1845,0
DA:1846,0
DA:1847,0
DA:1850,0
DA:1851,0
DA:1858,0
DA:1861,0
DA:1862,0
DA:1863,0
DA:1864,0
DA:1875,94
DA:1878,94
DA:1880,0
DA:1881,0
DA:1885,94
DA:1886,94
DA:1891,0
DA:1895,0
DA:1897,0
DA:1898,0
DA:1899,0
DA:1900,0
DA:1901,0
DA:1902,0
DA:1903,0
DA:1904,0
DA:1905,0
DA:1912,0
DA:1915,0
DA:1916,0
DA:1918,0
DA:1923,0
DA:1928,0
DA:1929,0
DA:1930,0
DA:1935,94
DA:1939,94
DA:1941,0
DA:1943,0
DA:1944,0
DA:1946,0
DA:1948,0
DA:1949,0
DA:1950,0
DA:1958,94
DA:1961,94
DA:1963,94
DA:1964,94
DA:1966,94
DA:1968,94
DA:2254,24064
DA:2267,24064
DA:2268,24064
DA:2269,24064
DA:3717,0
DA:3725,0
DA:3726,0
DA:3734,0
DA:3736,0
DA:3737,0
DA:3782,23970
DA:3790,23970
DA:3791,23970
DA:3806,6
DA:3815,12
DA:3816,12
DA:4164,53
DA:4174,99
DA:4175,46
DA:4176,7
DA:4689,94
DA:4698,94
DA:4699,94
LF:171
LH:52
end_of_record
SF:/usr/include/c++/5/bits/stl_algobase.h
FN:120,_ZSt9iter_swapIN9__gnu_cxx17__normal_iteratorIPN5Catch8TestCaseESt6vectorIS3_SaIS3_EEEES8_EvT_T0_
FN:120,_ZSt9iter_swapIN9__gnu_cxx17__normal_iteratorIPcSt6vectorIcSaIcEEEES6_EvT_T0_
FN:195,_ZSt3minImERKT_S2_S2_
FN:219,_ZSt3maxImERKT_S2_S2_
FN:282,_ZSt12__niter_baseIN9__gnu_cxx17__normal_iteratorIPN5Catch11MessageInfoESt6vectorIS3_SaIS3_EEEEENSt11_Niter_baseIT_E13iterator_typeESA_
FN:282,_ZSt12__niter_baseIPKcENSt11_Niter_baseIT_E13iterator_typeES3_
FN:282,_ZSt12__niter_baseIN9__gnu_cxx17__normal_iteratorIPKcSt6vectorIcSaIcEEEEENSt11_Niter_baseIT_E13iterator_typeES9_
FN:282,_ZSt12__niter_baseISt16reverse_iteratorIN9__gnu_cxx17__normal_iteratorIPKcNSt7__cxx1112basic_stringIcSt11char_traitsIcESaIcEEEEEEENSt11_Niter_baseIT_E13iterator_typeESE_
FN:282,_ZSt12__niter_baseIPcENSt11_Niter_baseIT_E13iterator_typeES2_
FN:282,_ZSt12__niter_baseIPP4UserENSt11_Niter_baseIT_E13iterator_typeES4_
FN:282,_ZSt12__niter_baseIN9__gnu_cxx17__normal_iteratorIPNSt7__cxx119sub_matchINS1_IPKcNS2_12basic_stringIcSt11char_traitsIcESaIcEEEEEEESt6vectorISC_SaISC_EEEEENSt11_Niter_baseIT_E13iterator_typeESJ_
FN:282,_ZSt12__niter_baseIPmENSt11_Niter_baseIT_E13iterator_typeES2_
FN:282,_ZSt12__niter_baseIN9__gnu_cxx17__normal_iteratorIPN5Catch8TestCaseESt6vectorIS3_SaIS3_EEEEENSt11_Niter_baseIT_E13iterator_typeESA_
FN:282,_ZSt12__niter_baseIPNSt7__cxx119sub_matchIN9__gnu_cxx17__normal_iteratorIPKcNS0_12basic_stringIcSt11char_traitsIcESaIcEEEEEEEENSt11_Niter_baseIT_E13iterator_typeESF_
FN:282,_ZSt12__niter_baseIPPN5Catch14IGeneratorInfoEENSt11_Niter_baseIT_E13iterator_typeES5_
FN:282,_ZSt12__niter_baseIN9__gnu_cxx17__normal_iteratorIPKNSt7__cxx1112basic_stringIcSt11char_traitsIcESaIcEEESt6vectorIS7_SaIS7_EEEEENSt11_Niter_baseIT_E13iterator_typeESF_
FN:282,_ZSt12__niter_baseIN9__gnu_cxx17__normal_iteratorIPNSt7__cxx1112basic_stringIcSt11char_traitsIcESaIcEEESt6vectorIS7_SaIS7_EEEEENSt11_Niter_baseIT_E13iterator_typeESE_
FN:282,_ZSt12__niter_baseIPPKN5Catch20IExceptionTranslatorEENSt11_Niter_baseIT_E13iterator_typeES6_
FN:282,_ZSt12__niter_baseIN9__gnu_cxx17__normal_iteratorIPcSt6vectorIcSaIcEEEEENSt11_Niter_baseIT_E13iterator_typeES8_
FN:282,_ZSt12__niter_baseIPbENSt11_Niter_baseIT_E13iterator_typeES2_
FN:282,_ZSt12__niter_baseIPKP4UserENSt11_Niter_baseIT_E13iterator_typeES5_
FN:282,_ZSt12__niter_baseIPPN5Catch16TestCaseTracking8ITrackerEENSt11_Niter_baseIT_E13iterator_typeES6_
FN:282,_ZSt12__niter_baseIN9__gnu_cxx17__normal_iteratorIPKP4UserSt6vectorIS3_SaIS3_EEEEENSt11_Niter_baseIT_E13iterator_typeESB_
FN:282,_ZSt12__niter_baseIN9__gnu_cxx17__normal_iteratorIPKNSt7__cxx119sub_matchINS1_IPKcNS2_12basic_stringIcSt11char_traitsIcESaIcEEEEEEESt6vectorISC_SaISC_EEEEENSt11_Niter_baseIT_E13iterator_typeESK_
FN:282,_ZSt12__niter_baseIPNSt7__cxx1112basic_stringIcSt11char_traitsIcESaIcEEEENSt11_Niter_baseIT_E13iterator_typeES8_
FN:282,_ZSt12__niter_baseIN9__gnu_cxx17__normal_iteratorIPKcNSt7__cxx1112basic_stringIcSt11char_traitsIcESaIcEEEEEENSt11_Niter_baseIT_E13iterator_typeESC_
FN:282,_ZSt12__niter_baseIPPlENSt11_Niter_baseIT_E13iterator_typeES3_
FN:282,_ZSt12__niter_baseIPPNSt8__detail9_StateSeqINSt7__cxx1112regex_traitsIcEEEEENSt11_Niter_baseIT_E13iterator_typeES9_
FN:293,_ZSt12__miter_baseIN9__gnu_cxx17__normal_iteratorIPKP4UserSt6vectorIS3_SaIS3_EEEEENSt11_Miter_baseIT_E13iterator_typeESB_
FN:293,_ZSt12__miter_baseIN9__gnu_cxx17__normal_iteratorIPN5Catch8TestCaseESt6vectorIS3_SaIS3_EEEEENSt11_Miter_baseIT_E13iterator_typeESA_
FN:293,_ZSt12__miter_baseIPPlENSt11_Miter_baseIT_E13iterator_typeES3_
FN:293,_ZSt12__miter_baseISt13move_iteratorIPmEENSt11_Miter_baseIT_E13iterator_typeES4_
FN:293,_ZSt12__miter_baseIN9__gnu_cxx17__normal_iteratorIPKNSt7__cxx1112basic_stringIcSt11char_traitsIcESaIcEEESt6vectorIS7_SaIS7_EEEEENSt11_Miter_baseIT_E13iterator_typeESF_
FN:293,_ZSt12__miter_baseIPKP4UserENSt11_Miter_baseIT_E13iterator_typeES5_
FN:293,_ZSt12__miter_baseIPNSt7__cxx1112basic_stringIcSt11char_traitsIcESaIcEEEENSt11_Miter_baseIT_E13iterator_typeES8_
FN:293,_ZSt12__miter_baseISt13move_iteratorIPPN5Catch14IGeneratorInfoEEENSt11_Miter_baseIT_E13iterator_typeES7_
FN:293,_ZSt12__miter_baseISt13move_iteratorIPcEENSt11_Miter_baseIT_E13iterator_typeES4_
FN:293,_ZSt12__miter_baseIN9__gnu_cxx17__normal_iteratorIPKNSt7__cxx119sub_matchINS1_IPKcNS2_12basic_stringIcSt11char_traitsIcESaIcEEEEEEESt6vectorISC_SaISC_EEEEENSt11_Miter_baseIT_E13iterator_typeESK_
FN:293,_ZSt12__miter_baseISt13move_iteratorIPPN5Catch16TestCaseTracking8ITrackerEEENSt11_Miter_baseIT_E13iterator_typeES8_
FN:293,_ZSt12__miter_baseIPcENSt11_Miter_baseIT_E13iterator_typeES2_
FN:293,_ZSt12__miter_baseIN9__gnu_cxx17__normal_iteratorIPKcSt6vectorIcSaIcEEEEENSt11_Miter_baseIT_E13iterator_typeES9_
FN:293,_ZSt12__miter_baseIN9__gnu_cxx17__normal_iteratorIPN5Catch11MessageInfoESt6vectorIS3_SaIS3_EEEEENSt11_Miter_baseIT_E13iterator_typeESA_
FN:293,_ZSt12__miter_baseIPPNSt8__detail9_StateSeqINSt7__cxx1112regex_traitsIcEEEEENSt11_Miter_baseIT_E13iterator_typeES9_
FN:293,_ZSt12__miter_baseIPKcENSt11_Miter_baseIT_E13iterator_typeES3_
FN:293,_ZSt12__miter_baseISt13move_iteratorIPPKN5Catch20IExceptionTranslatorEEENSt11_Miter_baseIT_E13iterator_typeES8_
FN:293,_ZSt12__miter_baseIPNSt7__cxx119sub_matchIN9__gnu_cxx17__normal_iteratorIPKcNS0_12basic_stringIcSt11char_traitsIcESaIcEEEEEEEENSt11_Miter_baseIT_E13iterator_typeESF_
FN:293,_ZSt12__miter_baseIN9__gnu_cxx17__normal_iteratorIPcSt6vectorIcSaIcEEEEENSt11_Miter_baseIT_E13iterator_typeES8_
FN:335,_ZNSt11__copy_moveILb0ELb0ESt26random_access_iterator_tagE8__copy_mIPKNSt7__cxx119sub_matchIN9__gnu_cxx17__normal_iteratorIPKcNS3_12basic_stringIcSt11char_traitsIcESaIcEEEEEEEPSF_EET0_T_SK_SJ_
FN:335,_ZNSt11__copy_moveILb0ELb0ESt26random_access_iterator_tagE8__copy_mIPKNSt7__cxx1112basic_stringIcSt11char_traitsIcESaIcEEEPS8_EET0_T_SD_SC_
FN:335,_ZNSt11__copy_moveILb0ELb0ESt26random_access_iterator_tagE8__copy_mIPNSt7__cxx119sub_matchIN9__gnu_cxx17__normal_iteratorIPKcNS3_12basic_stringIcSt11char_traitsIcESaIcEEEEEEESG_EET0_T_SI_SH_
FN:354,_ZNSt11__copy_moveILb1ELb0ESt26random_access_iterator_tagE8__copy_mIPN5Catch11MessageInfoES5_EET0_T_S7_S6_
FN:373,_ZNSt11__copy_moveILb0ELb1ESt26random_access_iterator_tagE8__copy_mIP4UserEEPT_PKS5_S8_S6_
FN:373,_ZNSt11__copy_moveILb1ELb1ESt26random_access_iterator_tagE8__copy_mImEEPT_PKS3_S6_S4_
FN:373,_ZNSt11__copy_moveILb0ELb1ESt26random_access_iterator_tagE8__copy_mIPNSt8__detail9_StateSeqINSt7__cxx1112regex_traitsIcEEEEEEPT_PKSA_SD_SB_
FN:373,_ZNSt11__copy_moveILb1ELb1ESt26random_access_iterator_tagE8__copy_mIPKN5Catch20IExceptionTranslatorEEEPT_PKS7_SA_S8_
FN:373,_ZNSt11__copy_moveILb0ELb1ESt26random_access_iterator_tagE8__copy_mIcEEPT_PKS3_S6_S4_
FN:373,_ZNSt11__copy_moveILb0ELb1ESt26random_access_iterator_tagE8__copy_mIPlEEPT_PKS4_S7_S5_
FN:373,_ZNSt11__copy_moveILb1ELb1ESt26random_access_iterator_tagE8__copy_mIcEEPT_PKS3_S6_S4_
FN:373,_ZNSt11__copy_moveILb1ELb1ESt26random_access_iterator_tagE8__copy_mIPN5Catch14IGeneratorInfoEEEPT_PKS6_S9_S7_
FN:373,_ZNSt11__copy_moveILb1ELb1ESt26random_access_iterator_tagE8__copy_mIPN5Catch16TestCaseTracking8ITrackerEEEPT_PKS7_SA_S8_
FN:391,_ZSt13__copy_move_aILb0EPNSt7__cxx119sub_matchIN9__gnu_cxx17__normal_iteratorIPKcNS0_12basic_stringIcSt11char_traitsIcESaIcEEEEEEESD_ET1_T0_SF_SE_
FN:391,_ZSt13__copy_move_aILb0EPKcPcET1_T0_S4_S3_
FN:391,_ZSt13__copy_move_aILb0EPPlS1_ET1_T0_S3_S2_
FN:391,_ZSt13__copy_move_aILb0EPKNSt7__cxx119sub_matchIN9__gnu_cxx17__normal_iteratorIPKcNS0_12basic_stringIcSt11char_traitsIcESaIcEEEEEEEPSC_ET1_T0_SH_SG_
FN:391,_ZSt13__copy_move_aILb0EPPNSt8__detail9_StateSeqINSt7__cxx1112regex_traitsIcEEEES7_ET1_T0_S9_S8_
FN:391,_ZSt13__copy_move_aILb1EPmS0_ET1_T0_S2_S1_
FN:391,_ZSt13__copy_move_aILb1EPPN5Catch16TestCaseTracking8ITrackerES4_ET1_T0_S6_S5_
FN:391,_ZSt13__copy_move_aILb0EPKNSt7__cxx1112basic_stringIcSt11char_traitsIcESaIcEEEPS5_ET1_T0_SA_S9_
FN:391,_ZSt13__copy_move_aILb1EPN5Catch11MessageInfoES2_ET1_T0_S4_S3_
FN:391,_ZSt13__copy_move_aILb1EPcS0_ET1_T0_S2_S1_
FN:391,_ZSt13__copy_move_aILb0EPcS0_ET1_T0_S2_S1_
FN:391,_ZSt13__copy_move_aILb1EPPN5Catch14IGeneratorInfoES3_ET1_T0_S5_S4_
FN:391,_ZSt13__copy_move_aILb1EPPKN5Catch20IExceptionTranslatorES4_ET1_T0_S6_S5_
FN:391,_ZSt13__copy_move_aILb0EPKP4UserPS1_ET1_T0_S6_S5_
FN:436,_ZSt14__copy_move_a2ILb1EPPKN5Catch20IExceptionTranslatorES4_ET1_T0_S6_S5_
FN:436,_ZSt14__copy_move_a2ILb0EN9__gnu_cxx17__normal_iteratorIPKNSt7__cxx1112basic_stringIcSt11char_traitsIcESaIcEEESt6vectorIS7_SaIS7_EEEENS1_IPS7_SC_EEET1_T0_SH_SG_
FN:436,_ZSt14__copy_move_a2ILb1EPcS0_ET1_T0_S2_S1_
FN:436,_ZSt14__copy_move_a2ILb0EN9__gnu_cxx17__normal_iteratorIPKP4UserSt6vectorIS3_SaIS3_EEEEPS3_ET1_T0_SC_SB_
FN:436,_ZSt14__copy_move_a2ILb0EN9__gnu_cxx17__normal_iteratorIPKNSt7__cxx119sub_matchINS1_IPKcNS2_12basic_stringIcSt11char_traitsIcESaIcEEEEEEESt6vectorISC_SaISC_EEEENS1_IPSC_SH_EEET1_T0_SM_SL_
FN:436,_ZSt14__copy_move_a2ILb1EPmS0_ET1_T0_S2_S1_
FN:436,_ZSt14__copy_move_a2ILb0EPKP4UserPS1_ET1_T0_S6_S5_
FN:436,_ZSt14__copy_move_a2ILb1EN9__gnu_cxx17__normal_iteratorIPN5Catch11MessageInfoESt6vectorIS3_SaIS3_EEEES8_ET1_T0_SA_S9_
FN:436,_ZSt14__copy_move_a2ILb1EN9__gnu_cxx17__normal_iteratorIPcSt6vectorIcSaIcEEEES6_ET1_T0_S8_S7_
FN:436,_ZSt14__copy_move_a2ILb0EPcS0_ET1_T0_S2_S1_
FN:436,_ZSt14__copy_move_a2ILb0EPPlS1_ET1_T0_S3_S2_
FN:436,_ZSt14__copy_move_a2ILb0EPKcPcET1_T0_S4_S3_
FN:436,_ZSt14__copy_move_a2ILb1EPPN5Catch14IGeneratorInfoES3_ET1_T0_S5_S4_
FN:436,_ZSt14__copy_move_a2ILb0EN9__gnu_cxx17__normal_iteratorIPKcSt6vectorIcSaIcEEEEPcET1_T0_SA_S9_
FN:436,_ZSt14__copy_move_a2ILb1EPPN5Catch16TestCaseTracking8ITrackerES4_ET1_T0_S6_S5_
FN:436,_ZSt14__copy_move_a2ILb0EPPNSt8__detail9_StateSeqINSt7__cxx1112regex_traitsIcEEEES7_ET1_T0_S9_S8_
FN:436,_ZSt14__copy_move_a2ILb0EPNSt7__cxx119sub_matchIN9__gnu_cxx17__normal_iteratorIPKcNS0_12basic_stringIcSt11char_traitsIcESaIcEEEEEEESD_ET1_T0_SF_SE_
FN:462,_ZSt4copyIPKP4UserPS1_ET0_T_S6_S5_
FN:462,_ZSt4copyIN9__gnu_cxx17__normal_iteratorIPKP4UserSt6vectorIS3_SaIS3_EEEEPS3_ET0_T_SC_SB_
FN:462,_ZSt4copyIPNSt7__cxx119sub_matchIN9__gnu_cxx17__normal_iteratorIPKcNS0_12basic_stringIcSt11char_traitsIcESaIcEEEEEEESD_ET0_T_SF_SE_
FN:462,_ZSt4copyIPPlS1_ET0_T_S3_S2_
FN:462,_ZSt4copyISt13move_iteratorIPcES1_ET0_T_S4_S3_
FN:462,_ZSt4copyIN9__gnu_cxx17__normal_iteratorIPKcSt6vectorIcSaIcEEEEPcET0_T_SA_S9_
FN:462,_ZSt4copyISt13move_iteratorIPPKN5Catch20IExceptionTranslatorEES5_ET0_T_S8_S7_
FN:462,_ZSt4copyIPPNSt8__detail9_StateSeqINSt7__cxx1112regex_traitsIcEEEES7_ET0_T_S9_S8_
FN:462,_ZSt4copyIN9__gnu_cxx17__normal_iteratorIPKNSt7__cxx1112basic_stringIcSt11char_traitsIcESaIcEEESt6vectorIS7_SaIS7_EEEENS1_IPS7_SC_EEET0_T_SH_SG_
FN:462,_ZSt4copyISt13move_iteratorIPPN5Catch14IGeneratorInfoEES4_ET0_T_S7_S6_
FN:462,_ZSt4copyIPKcPcET0_T_S4_S3_
FN:462,_ZSt4copyIPcS0_ET0_T_S2_S1_
FN:462,_ZSt4copyISt13move_iteratorIPPN5Catch16TestCaseTracking8ITrackerEES5_ET0_T_S8_S7_
FN:462,_ZSt4copyIN9__gnu_cxx17__normal_iteratorIPKNSt7__cxx119sub_matchINS1_IPKcNS2_12basic_stringIcSt11char_traitsIcESaIcEEEEEEESt6vectorISC_SaISC_EEEENS1_IPSC_SH_EEET0_T_SM_SL_
FN:462,_ZSt4copyISt13move_iteratorIPmES1_ET0_T_S4_S3_
FN:495,_ZSt4moveIN9__gnu_cxx17__normal_iteratorIPcSt6vectorIcSaIcEEEES6_ET0_T_S8_S7_
FN:495,_ZSt4moveIN9__gnu_cxx17__normal_iteratorIPN5Catch11MessageInfoESt6vectorIS3_SaIS3_EEEES8_ET0_T_SA_S9_
FN:560,_ZNSt20__copy_move_backwardILb1ELb0ESt26random_access_iterator_tagE13__copy_move_bIPNSt7__cxx1112basic_stringIcSt11char_traitsIcESaIcEEES9_EET0_T_SB_SA_
FN:560,_ZNSt20__copy_move_backwardILb1ELb0ESt26random_access_iterator_tagE13__copy_move_bIPN5Catch8TestCaseES5_EET0_T_S7_S6_
FN:575,_ZNSt20__copy_move_backwardILb1ELb1ESt26random_access_iterator_tagE13__copy_move_bIcEEPT_PKS3_S6_S4_
FN:575,_ZNSt20__copy_move_backwardILb0ELb1ESt26random_access_iterator_tagE13__copy_move_bIPlEEPT_PKS4_S7_S5_
FN:575,_ZNSt20__copy_move_backwardILb0ELb1ESt26random_access_iterator_tagE13__copy_move_bIPNSt8__detail9_StateSeqINSt7__cxx1112regex_traitsIcEEEEEEPT_PKSA_SD_SB_
FN:593,_ZSt22__copy_move_backward_aILb1EPN5Catch8TestCaseES2_ET1_T0_S4_S3_
FN:593,_ZSt22__copy_move_backward_aILb0EPPNSt8__detail9_StateSeqINSt7__cxx1112regex_traitsIcEEEES7_ET1_T0_S9_S8_
FN:593,_ZSt22__copy_move_backward_aILb1EPcS0_ET1_T0_S2_S1_
FN:593,_ZSt22__copy_move_backward_aILb0EPPlS1_ET1_T0_S3_S2_
FN:593,_ZSt22__copy_move_backward_aILb1EPNSt7__cxx1112basic_stringIcSt11char_traitsIcESaIcEEES6_ET1_T0_S8_S7_
FN:611,_ZSt23__copy_move_backward_a2ILb1EPNSt7__cxx1112basic_stringIcSt11char_traitsIcESaIcEEES6_ET1_T0_S8_S7_
FN:611,_ZSt23__copy_move_backward_a2ILb0EPPNSt8__detail9_StateSeqINSt7__cxx1112regex_traitsIcEEEES7_ET1_T0_S9_S8_
FN:611,_ZSt23__copy_move_backward_a2ILb1EN9__gnu_cxx17__normal_iteratorIPcSt6vectorIcSaIcEEEES6_ET1_T0_S8_S7_
FN:611,_ZSt23__copy_move_backward_a2ILb1EN9__gnu_cxx17__normal_iteratorIPN5Catch8TestCaseESt6vectorIS3_SaIS3_EEEES8_ET1_T0_SA_S9_
FN:611,_ZSt23__copy_move_backward_a2ILb0EPPlS1_ET1_T0_S3_S2_
FN:638,_ZSt13copy_backwardIPPlS1_ET0_T_S3_S2_
FN:638,_ZSt13copy_backwardIPPNSt8__detail9_StateSeqINSt7__cxx1112regex_traitsIcEEEES7_ET0_T_S9_S8_
FN:674,_ZSt13move_backwardIPNSt7__cxx1112basic_stringIcSt11char_traitsIcESaIcEEES6_ET0_T_S8_S7_
FN:674,_ZSt13move_backwardIN9__gnu_cxx17__normal_iteratorIPN5Catch8TestCaseESt6vectorIS3_SaIS3_EEEES8_ET0_T_SA_S9_
FN:674,_ZSt13move_backwardIN9__gnu_cxx17__normal_iteratorIPcSt6vectorIcSaIcEEEES6_ET0_T_S8_S7_
FN:765,_ZSt10__fill_n_aIPbmbEN9__gnu_cxx11__enable_ifIXsrSt11__is_scalarIT1_E7__valueET_E6__typeES6_T0_RKS4_
FN:800,_ZSt6fill_nIPbmbET_S1_T0_RKT1_
FN:813,_ZNSt7__equalILb0EE5equalISt16reverse_iteratorIN9__gnu_cxx17__normal_iteratorIPKcNSt7__cxx1112basic_stringIcSt11char_traitsIcESaIcEEEEEESE_EEbT_SF_T0_
FN:827,_ZNSt7__equalILb1EE5equalIcEEbPKT_S4_S4_
FN:837,_ZSt11__equal_auxIPKcS1_EbT_S2_T0_
FN:837,_ZSt11__equal_auxISt16reverse_iteratorIN9__gnu_cxx17__normal_iteratorIPKcNSt7__cxx1112basic_stringIcSt11char_traitsIcESaIcEEEEEESC_EbT_SD_T0_
FN:962,_ZSt13__lower_boundIN9__gnu_cxx17__normal_iteratorIPKcSt6vectorIcSaIcEEEEcNS0_5__ops14_Iter_less_valEET_SA_SA_RKT0_T1_
FN:1024,_ZSt4__lgl
FN:1057,_ZSt5equalIN9__gnu_cxx17__normal_iteratorIPKcNSt7__cxx1112basic_stringIcSt11char_traitsIcESaIcEEEEESA_EbT_SB_T0_
FN:1057,_ZSt5equalISt16reverse_iteratorIN9__gnu_cxx17__normal_iteratorIPKcNSt7__cxx1112basic_stringIcSt11char_traitsIcESaIcEEEEEESC_EbT_SD_T0_
FNDA:0,_ZSt9iter_swapIN9__gnu_cxx17__normal_iteratorIPcSt6vectorIcSaIcEEEES6_EvT_T0_
FNDA:0,_ZSt9iter_swapIN9__gnu_cxx17__normal_iteratorIPN5Catch8TestCaseESt6vectorIS3_SaIS3_EEEES8_EvT_T0_
FNDA:0,_ZSt3minImERKT_S2_S2_
FNDA:552537,_ZSt3maxImERKT_S2_S2_
FNDA:0,_ZSt12__niter_baseIPKcENSt11_Niter_baseIT_E13iterator_typeES3_
FNDA:72322,_ZSt12__niter_baseIPcENSt11_Niter_baseIT_E13iterator_typeES2_
FNDA:260,_ZSt12__niter_baseIN9__gnu_cxx17__normal_iteratorIPKcSt6vectorIcSaIcEEEEENSt11_Niter_baseIT_E13iterator_typeES9_
FNDA:0,_ZSt12__niter_baseIPPlENSt11_Niter_baseIT_E13iterator_typeES3_
FNDA:0,_ZSt12__niter_baseIN9__gnu_cxx17__normal_iteratorIPcSt6vectorIcSaIcEEEEENSt11_Niter_baseIT_E13iterator_typeES8_
FNDA:0,_ZSt12__niter_baseIPPNSt8__detail9_StateSeqINSt7__cxx1112regex_traitsIcEEEEENSt11_Niter_baseIT_E13iterator_typeES9_
FNDA:0,_ZSt12__niter_baseIPNSt7__cxx119sub_matchIN9__gnu_cxx17__normal_iteratorIPKcNS0_12basic_stringIcSt11char_traitsIcESaIcEEEEEEEENSt11_Niter_baseIT_E13iterator_typeESF_
FNDA:501,_ZSt12__niter_baseIN9__gnu_cxx17__normal_iteratorIPNSt7__cxx119sub_matchINS1_IPKcNS2_12basic_stringIcSt11char_traitsIcESaIcEEEEEEESt6vectorISC_SaISC_EEEEENSt11_Niter_baseIT_E13iterator_typeESJ_
FNDA:1002,_ZSt12__niter_baseIN9__gnu_cxx17__normal_iteratorIPKNSt7__cxx119sub_matchINS1_IPKcNS2_12basic_stringIcSt11char_traitsIcESaIcEEEEEEESt6vectorISC_SaISC_EEEEENSt11_Niter_baseIT_E13iterator_typeESK_
FNDA:0,_ZSt12__niter_baseIPPN5Catch16TestCaseTracking8ITrackerEENSt11_Niter_baseIT_E13iterator_typeES6_
FNDA:0,_ZSt12__niter_baseIPbENSt11_Niter_baseIT_E13iterator_typeES2_
FNDA:0,_ZSt12__niter_baseIPPN5Catch14IGeneratorInfoEENSt11_Niter_baseIT_E13iterator_typeES5_
FNDA:0,_ZSt12__niter_baseIPPKN5Catch20IExceptionTranslatorEENSt11_Niter_baseIT_E13iterator_typeES6_
FNDA:2,_ZSt12__niter_baseIPKP4UserENSt11_Niter_baseIT_E13iterator_typeES5_
FNDA:15003,_ZSt12__niter_baseIPP4UserENSt11_Niter_baseIT_E13iterator_typeES4_
FNDA:4,_ZSt12__niter_baseIN9__gnu_cxx17__normal_iteratorIPKP4UserSt6vectorIS3_SaIS3_EEEEENSt11_Niter_baseIT_E13iterator_typeESB_
FNDA:0,_ZSt12__niter_baseIN9__gnu_cxx17__normal_iteratorIPN5Catch8TestCaseESt6vectorIS3_SaIS3_EEEEENSt11_Niter_baseIT_E13iterator_typeESA_
FNDA:0,_ZSt12__niter_baseIN9__gnu_cxx17__normal_iteratorIPN5Catch11MessageInfoESt6vectorIS3_SaIS3_EEEEENSt11_Niter_baseIT_E13iterator_typeESA_
FNDA:0,_ZSt12__niter_baseIPNSt7__cxx1112basic_stringIcSt11char_traitsIcESaIcEEEENSt11_Niter_baseIT_E13iterator_typeES8_
FNDA:0,_ZSt12__niter_baseIN9__gnu_cxx17__normal_iteratorIPNSt7__cxx1112basic_stringIcSt11char_traitsIcESaIcEEESt6vectorIS7_SaIS7_EEEEENSt11_Niter_baseIT_E13iterator_typeESE_
FNDA:0,_ZSt12__niter_baseIN9__gnu_cxx17__normal_iteratorIPKNSt7__cxx1112basic_stringIcSt11char_traitsIcESaIcEEESt6vectorIS7_SaIS7_EEEEENSt11_Niter_baseIT_E13iterator_typeESF_
FNDA:0,_ZSt12__niter_baseISt16reverse_iteratorIN9__gnu_cxx17__normal_iteratorIPKcNSt7__cxx1112basic_stringIcSt11char_traitsIcESaIcEEEEEEENSt11_Niter_baseIT_E13iterator_typeESE_
FNDA:18,_ZSt12__niter_baseIN9__gnu_cxx17__normal_iteratorIPKcNSt7__cxx1112basic_stringIcSt11char_traitsIcESaIcEEEEEENSt11_Niter_baseIT_E13iterator_typeESC_
FNDA:18,_ZSt12__niter_baseIPmENSt11_Niter_baseIT_E13iterator_typeES2_
FNDA:0,_ZSt12__miter_baseIPKcENSt11_Miter_baseIT_E13iterator_typeES3_
FNDA:47940,_ZSt12__miter_baseIPcENSt11_Miter_baseIT_E13iterator_typeES2_
FNDA:188,_ZSt12__miter_baseISt13move_iteratorIPcEENSt11_Miter_baseIT_E13iterator_typeES4_
FNDA:260,_ZSt12__miter_baseIN9__gnu_cxx17__normal_iteratorIPKcSt6vectorIcSaIcEEEEENSt11_Miter_baseIT_E13iterator_typeES9_
FNDA:0,_ZSt12__miter_baseIPPlENSt11_Miter_baseIT_E13iterator_typeES3_
FNDA:0,_ZSt12__miter_baseIN9__gnu_cxx17__normal_iteratorIPcSt6vectorIcSaIcEEEEENSt11_Miter_baseIT_E13iterator_typeES8_
FNDA:0,_ZSt12__miter_baseIPPNSt8__detail9_StateSeqINSt7__cxx1112regex_traitsIcEEEEENSt11_Miter_baseIT_E13iterator_typeES9_
FNDA:0,_ZSt12__miter_baseIPNSt7__cxx119sub_matchIN9__gnu_cxx17__normal_iteratorIPKcNS0_12basic_stringIcSt11char_traitsIcESaIcEEEEEEEENSt11_Miter_baseIT_E13iterator_typeESF_
FNDA:1002,_ZSt12__miter_baseIN9__gnu_cxx17__normal_iteratorIPKNSt7__cxx119sub_matchINS1_IPKcNS2_12basic_stringIcSt11char_traitsIcESaIcEEEEEEESt6vectorISC_SaISC_EEEEENSt11_Miter_baseIT_E13iterator_typeESK_
FNDA:0,_ZSt12__miter_baseISt13move_iteratorIPPN5Catch16TestCaseTracking8ITrackerEEENSt11_Miter_baseIT_E13iterator_typeES8_
FNDA:0,_ZSt12__miter_baseISt13move_iteratorIPPN5Catch14IGeneratorInfoEEENSt11_Miter_baseIT_E13iterator_typeES7_
FNDA:0,_ZSt12__miter_baseISt13move_iteratorIPPKN5Catch20IExceptionTranslatorEEENSt11_Miter_baseIT_E13iterator_typeES8_
FNDA:12,_ZSt12__miter_baseISt13move_iteratorIPmEENSt11_Miter_baseIT_E13iterator_typeES4_
FNDA:2,_ZSt12__miter_baseIPKP4UserENSt11_Miter_baseIT_E13iterator_typeES5_
FNDA:4,_ZSt12__miter_baseIN9__gnu_cxx17__normal_iteratorIPKP4UserSt6vectorIS3_SaIS3_EEEEENSt11_Miter_baseIT_E13iterator_typeESB_
FNDA:0,_ZSt12__miter_baseIN9__gnu_cxx17__normal_iteratorIPN5Catch8TestCaseESt6vectorIS3_SaIS3_EEEEENSt11_Miter_baseIT_E13iterator_typeESA_
FNDA:0,_ZSt12__miter_baseIN9__gnu_cxx17__normal_iteratorIPN5Catch11MessageInfoESt6vectorIS3_SaIS3_EEEEENSt11_Miter_baseIT_E13iterator_typeESA_
FNDA:0,_ZSt12__miter_baseIPNSt7__cxx1112basic_stringIcSt11char_traitsIcESaIcEEEENSt11_Miter_baseIT_E13iterator_typeES8_
FNDA:0,_ZSt12__miter_baseIN9__gnu_cxx17__normal_iteratorIPKNSt7__cxx1112basic_stringIcSt11char_traitsIcESaIcEEESt6vectorIS7_SaIS7_EEEEENSt11_Miter_baseIT_E13iterator_typeESF_
FNDA:0,_ZNSt11__copy_moveILb0ELb0ESt26random_access_iterator_tagE8__copy_mIPNSt7__cxx119sub_matchIN9__gnu_cxx17__normal_iteratorIPKcNS3_12basic_stringIcSt11char_traitsIcESaIcEEEEEEESG_EET0_T_SI_SH_
FNDA:501,_ZNSt11__copy_moveILb0ELb0ESt26random_access_iterator_tagE8__copy_mIPKNSt7__cxx119sub_matchIN9__gnu_cxx17__normal_iteratorIPKcNS3_12basic_stringIcSt11char_traitsIcESaIcEEEEEEEPSF_EET0_T_SK_SJ_
FNDA:0,_ZNSt11__copy_moveILb0ELb0ESt26random_access_iterator_tagE8__copy_mIPKNSt7__cxx1112basic_stringIcSt11char_traitsIcESaIcEEEPS8_EET0_T_SD_SC_
FNDA:0,_ZNSt11__copy_moveILb1ELb0ESt26random_access_iterator_tagE8__copy_mIPN5Catch11MessageInfoES5_EET0_T_S7_S6_
FNDA:24100,_ZNSt11__copy_moveILb0ELb1ESt26random_access_iterator_tagE8__copy_mIcEEPT_PKS3_S6_S4_
FNDA:0,_ZNSt11__copy_moveILb0ELb1ESt26random_access_iterator_tagE8__copy_mIPlEEPT_PKS4_S7_S5_
FNDA:94,_ZNSt11__copy_moveILb1ELb1ESt26random_access_iterator_tagE8__copy_mIcEEPT_PKS3_S6_S4_
FNDA:0,_ZNSt11__copy_moveILb0ELb1ESt26random_access_iterator_tagE8__copy_mIPNSt8__detail9_StateSeqINSt7__cxx1112regex_traitsIcEEEEEEPT_PKSA_SD_SB_
FNDA:0,_ZNSt11__copy_moveILb1ELb1ESt26random_access_iterator_tagE8__copy_mIPN5Catch16TestCaseTracking8ITrackerEEEPT_PKS7_SA_S8_
FNDA:0,_ZNSt11__copy_moveILb1ELb1ESt26random_access_iterator_tagE8__copy_mIPN5Catch14IGeneratorInfoEEEPT_PKS6_S9_S7_
FNDA:0,_ZNSt11__copy_moveILb1ELb1ESt26random_access_iterator_tagE8__copy_mIPKN5Catch20IExceptionTranslatorEEEPT_PKS7_SA_S8_
FNDA:6,_ZNSt11__copy_moveILb1ELb1ESt26random_access_iterator_tagE8__copy_mImEEPT_PKS3_S6_S4_
FNDA:3,_ZNSt11__copy_moveILb0ELb1ESt26random_access_iterator_tagE8__copy_mIP4UserEEPT_PKS5_S8_S6_
FNDA:23970,_ZSt13__copy_move_aILb0EPcS0_ET1_T0_S2_S1_
FNDA:130,_ZSt13__copy_move_aILb0EPKcPcET1_T0_S4_S3_
FNDA:0,_ZSt13__copy_move_aILb0EPPlS1_ET1_T0_S3_S2_
FNDA:94,_ZSt13__copy_move_aILb1EPcS0_ET1_T0_S2_S1_
FNDA:0,_ZSt13__copy_move_aILb0EPPNSt8__detail9_StateSeqINSt7__cxx1112regex_traitsIcEEEES7_ET1_T0_S9_S8_
FNDA:0,_ZSt13__copy_move_aILb0EPNSt7__cxx119sub_matchIN9__gnu_cxx17__normal_iteratorIPKcNS0_12basic_stringIcSt11char_traitsIcESaIcEEEEEEESD_ET1_T0_SF_SE_
FNDA:501,_ZSt13__copy_move_aILb0EPKNSt7__cxx119sub_matchIN9__gnu_cxx17__normal_iteratorIPKcNS0_12basic_stringIcSt11char_traitsIcESaIcEEEEEEEPSC_ET1_T0_SH_SG_
FNDA:0,_ZSt13__copy_move_aILb1EPPN5Catch16TestCaseTracking8ITrackerES4_ET1_T0_S6_S5_
FNDA:0,_ZSt13__copy_move_aILb1EPPN5Catch14IGeneratorInfoES3_ET1_T0_S5_S4_
FNDA:0,_ZSt13__copy_move_aILb1EPPKN5Catch20IExceptionTranslatorES4_ET1_T0_S6_S5_
FNDA:6,_ZSt13__copy_move_aILb1EPmS0_ET1_T0_S2_S1_
FNDA:3,_ZSt13__copy_move_aILb0EPKP4UserPS1_ET1_T0_S6_S5_
FNDA:0,_ZSt13__copy_move_aILb1EPN5Catch11MessageInfoES2_ET1_T0_S4_S3_
FNDA:0,_ZSt13__copy_move_aILb0EPKNSt7__cxx1112basic_stringIcSt11char_traitsIcESaIcEEEPS5_ET1_T0_SA_S9_
FNDA:0,_ZSt14__copy_move_a2ILb0EPKcPcET1_T0_S4_S3_
FNDA:23970,_ZSt14__copy_move_a2ILb0EPcS0_ET1_T0_S2_S1_
FNDA:94,_ZSt14__copy_move_a2ILb1EPcS0_ET1_T0_S2_S1_
FNDA:130,_ZSt14__copy_move_a2ILb0EN9__gnu_cxx17__normal_iteratorIPKcSt6vectorIcSaIcEEEEPcET1_T0_SA_S9_
FNDA:0,_ZSt14__copy_move_a2ILb0EPPlS1_ET1_T0_S3_S2_
FNDA:0,_ZSt14__copy_move_a2ILb1EN9__gnu_cxx17__normal_iteratorIPcSt6vectorIcSaIcEEEES6_ET1_T0_S8_S7_
FNDA:0,_ZSt14__copy_move_a2ILb0EPPNSt8__detail9_StateSeqINSt7__cxx1112regex_traitsIcEEEES7_ET1_T0_S9_S8_
FNDA:0,_ZSt14__copy_move_a2ILb0EPNSt7__cxx119sub_matchIN9__gnu_cxx17__normal_iteratorIPKcNS0_12basic_stringIcSt11char_traitsIcESaIcEEEEEEESD_ET1_T0_SF_SE_
FNDA:501,_ZSt14__copy_move_a2ILb0EN9__gnu_cxx17__normal_iteratorIPKNSt7__cxx119sub_matchINS1_IPKcNS2_12basic_stringIcSt11char_traitsIcESaIcEEEEEEESt6vectorISC_SaISC_EEEENS1_IPSC_SH_EEET1_T0_SM_SL_
FNDA:0,_ZSt14__copy_move_a2ILb1EPPN5Catch16TestCaseTracking8ITrackerES4_ET1_T0_S6_S5_
FNDA:0,_ZSt14__copy_move_a2ILb1EPPN5Catch14IGeneratorInfoES3_ET1_T0_S5_S4_
FNDA:0,_ZSt14__copy_move_a2ILb1EPPKN5Catch20IExceptionTranslatorES4_ET1_T0_S6_S5_
FNDA:6,_ZSt14__copy_move_a2ILb1EPmS0_ET1_T0_S2_S1_
FNDA:1,_ZSt14__copy_move_a2ILb0EPKP4UserPS1_ET1_T0_S6_S5_
FNDA:2,_ZSt14__copy_move_a2ILb0EN9__gnu_cxx17__normal_iteratorIPKP4UserSt6vectorIS3_SaIS3_EEEEPS3_ET1_T0_SC_SB_
FNDA:0,_ZSt14__copy_move_a2ILb1EN9__gnu_cxx17__normal_iteratorIPN5Catch11MessageInfoESt6vectorIS3_SaIS3_EEEES8_ET1_T0_SA_S9_
FNDA:0,_ZSt14__copy_move_a2ILb0EN9__gnu_cxx17__normal_iteratorIPKNSt7__cxx1112basic_stringIcSt11char_traitsIcESaIcEEESt6vectorIS7_SaIS7_EEEENS1_IPS7_SC_EEET1_T0_SH_SG_
FNDA:0,_ZSt4copyIPKcPcET0_T_S4_S3_
FNDA:23970,_ZSt4copyIPcS0_ET0_T_S2_S1_
FNDA:94,_ZSt4copyISt13move_iteratorIPcES1_ET0_T_S4_S3_
FNDA:130,_ZSt4copyIN9__gnu_cxx17__normal_iteratorIPKcSt6vectorIcSaIcEEEEPcET0_T_SA_S9_
FNDA:0,_ZSt4copyIPPlS1_ET0_T_S3_S2_
FNDA:0,_ZSt4copyIPPNSt8__detail9_StateSeqINSt7__cxx1112regex_traitsIcEEEES7_ET0_T_S9_S8_
FNDA:0,_ZSt4copyIPNSt7__cxx119sub_matchIN9__gnu_cxx17__normal_iteratorIPKcNS0_12basic_stringIcSt11char_traitsIcESaIcEEEEEEESD_ET0_T_SF_SE_
FNDA:501,_ZSt4copyIN9__gnu_cxx17__normal_iteratorIPKNSt7__cxx119sub_matchINS1_IPKcNS2_12basic_stringIcSt11char_traitsIcESaIcEEEEEEESt6vectorISC_SaISC_EEEENS1_IPSC_SH_EEET0_T_SM_SL_
FNDA:0,_ZSt4copyISt13move_iteratorIPPN5Catch16TestCaseTracking8ITrackerEES5_ET0_T_S8_S7_
FNDA:0,_ZSt4copyISt13move_iteratorIPPN5Catch14IGeneratorInfoEES4_ET0_T_S7_S6_
FNDA:0,_ZSt4copyISt13move_iteratorIPPKN5Catch20IExceptionTranslatorEES5_ET0_T_S8_S7_
FNDA:6,_ZSt4copyISt13move_iteratorIPmES1_ET0_T_S4_S3_
FNDA:1,_ZSt4copyIPKP4UserPS1_ET0_T_S6_S5_
FNDA:2,_ZSt4copyIN9__gnu_cxx17__normal_iteratorIPKP4UserSt6vectorIS3_SaIS3_EEEEPS3_ET0_T_SC_SB_
FNDA:0,_ZSt4copyIN9__gnu_cxx17__normal_iteratorIPKNSt7__cxx1112basic_stringIcSt11char_traitsIcESaIcEEESt6vectorIS7_SaIS7_EEEENS1_IPS7_SC_EEET0_T_SH_SG_
FNDA:0,_ZSt4moveIN9__gnu_cxx17__normal_iteratorIPcSt6vectorIcSaIcEEEES6_ET0_T_S8_S7_
FNDA:0,_ZSt4moveIN9__gnu_cxx17__normal_iteratorIPN5Catch11MessageInfoESt6vectorIS3_SaIS3_EEEES8_ET0_T_SA_S9_
FNDA:0,_ZNSt20__copy_move_backwardILb1ELb0ESt26random_access_iterator_tagE13__copy_move_bIPN5Catch8TestCaseES5_EET0_T_S7_S6_
FNDA:0,_ZNSt20__copy_move_backwardILb1ELb0ESt26random_access_iterator_tagE13__copy_move_bIPNSt7__cxx1112basic_stringIcSt11char_traitsIcESaIcEEES9_EET0_T_SB_SA_
FNDA:0,_ZNSt20__copy_move_backwardILb1ELb1ESt26random_access_iterator_tagE13__copy_move_bIcEEPT_PKS3_S6_S4_
FNDA:0,_ZNSt20__copy_move_backwardILb0ELb1ESt26random_access_iterator_tagE13__copy_move_bIPlEEPT_PKS4_S7_S5_
FNDA:0,_ZNSt20__copy_move_backwardILb0ELb1ESt26random_access_iterator_tagE13__copy_move_bIPNSt8__detail9_StateSeqINSt7__cxx1112regex_traitsIcEEEEEEPT_PKSA_SD_SB_
FNDA:0,_ZSt22__copy_move_backward_aILb1EPcS0_ET1_T0_S2_S1_
FNDA:0,_ZSt22__copy_move_backward_aILb0EPPlS1_ET1_T0_S3_S2_
FNDA:0,_ZSt22__copy_move_backward_aILb0EPPNSt8__detail9_StateSeqINSt7__cxx1112regex_traitsIcEEEES7_ET1_T0_S9_S8_
FNDA:0,_ZSt22__copy_move_backward_aILb1EPN5Catch8TestCaseES2_ET1_T0_S4_S3_
FNDA:0,_ZSt22__copy_move_backward_aILb1EPNSt7__cxx1112basic_stringIcSt11char_traitsIcESaIcEEES6_ET1_T0_S8_S7_
FNDA:0,_ZSt23__copy_move_backward_a2ILb1EN9__gnu_cxx17__normal_iteratorIPcSt6vectorIcSaIcEEEES6_ET1_T0_S8_S7_
FNDA:0,_ZSt23__copy_move_backward_a2ILb0EPPlS1_ET1_T0_S3_S2_
FNDA:0,_ZSt23__copy_move_backward_a2ILb0EPPNSt8__detail9_StateSeqINSt7__cxx1112regex_traitsIcEEEES7_ET1_T0_S9_S8_
FNDA:0,_ZSt23__copy_move_backward_a2ILb1EN9__gnu_cxx17__normal_iteratorIPN5Catch8TestCaseESt6vectorIS3_SaIS3_EEEES8_ET1_T0_SA_S9_
FNDA:0,_ZSt23__copy_move_backward_a2ILb1EPNSt7__cxx1112basic_stringIcSt11char_traitsIcESaIcEEES6_ET1_T0_S8_S7_
FNDA:0,_ZSt13copy_backwardIPPlS1_ET0_T_S3_S2_
FNDA:0,_ZSt13copy_backwardIPPNSt8__detail9_StateSeqINSt7__cxx1112regex_traitsIcEEEES7_ET0_T_S9_S8_
FNDA:0,_ZSt13move_backwardIN9__gnu_cxx17__normal_iteratorIPcSt6vectorIcSaIcEEEES6_ET0_T_S8_S7_
FNDA:0,_ZSt13move_backwardIN9__gnu_cxx17__normal_iteratorIPN5Catch8TestCaseESt6vectorIS3_SaIS3_EEEES8_ET0_T_SA_S9_
FNDA:0,_ZSt13move_backwardIPNSt7__cxx1112basic_stringIcSt11char_traitsIcESaIcEEES6_ET0_T_S8_S7_
FNDA:0,_ZSt10__fill_n_aIPbmbEN9__gnu_cxx11__enable_ifIXsrSt11__is_scalarIT1_E7__valueET_E6__typeES6_T0_RKS4_
FNDA:0,_ZSt6fill_nIPbmbET_S1_T0_RKT1_
FNDA:0,_ZNSt7__equalILb0EE5equalISt16reverse_iteratorIN9__gnu_cxx17__normal_iteratorIPKcNSt7__cxx1112basic_stringIcSt11char_traitsIcESaIcEEEEEESE_EEbT_SF_T0_
FNDA:6,_ZNSt7__equalILb1EE5equalIcEEbPKT_S4_S4_
FNDA:0,_ZSt11__equal_auxISt16reverse_iteratorIN9__gnu_cxx17__normal_iteratorIPKcNSt7__cxx1112basic_stringIcSt11char_traitsIcESaIcEEEEEESC_EbT_SD_T0_
FNDA:6,_ZSt11__equal_auxIPKcS1_EbT_S2_T0_
FNDA:24064,_ZSt13__lower_boundIN9__gnu_cxx17__normal_iteratorIPKcSt6vectorIcSaIcEEEEcNS0_5__ops14_Iter_less_valEET_SA_SA_RKT0_T1_
FNDA:594,_ZSt4__lgl
FNDA:0,_ZSt5equalISt16reverse_iteratorIN9__gnu_cxx17__normal_iteratorIPKcNSt7__cxx1112basic_stringIcSt11char_traitsIcESaIcEEEEEESC_EbT_SD_T0_
FNDA:6,_ZSt5equalIN9__gnu_cxx17__normal_iteratorIPKcNSt7__cxx1112basic_stringIcSt11char_traitsIcESaIcEEEEESA_EbT_SB_T0_
FNF:138
FNH:47
DA:120,0
DA:148,0
DA:150,0
DA:195,0
DA:200,0
DA:201,0
DA:202,0
DA:219,552537
DA:224,552537
DA:225,506778
DA:226,45759
DA:282,89130
DA:283,89130
DA:293,49408
DA:294,49408
DA:335,501
DA:338,4509
DA:340,4008
DA:341,4008
DA:342,4008
DA:344,501
DA:354,0
DA:357,0
DA:359,0
DA:360,0
DA:361,0
DA:363,0
DA:373,24203
DA:382,24203
DA:383,24203
DA:384,24107
DA:385,24203
DA:391,24704
DA:399,24704
DA:402,24704
DA:436,24704
DA:438,24704
DA:440,24704
DA:462,24704
DA:471,24704
DA:472,24704
DA:495,0
DA:503,0
DA:504,0
DA:560,0
DA:563,0
DA:564,0
DA:565,0
DA:575,0
DA:584,0
DA:585,0
DA:586,0
DA:587,0
DA:593,0
DA:601,0
DA:606,0
DA:611,0
DA:614,0
DA:615,0
DA:638,0
DA:649,0
DA:650,0
DA:674,0
DA:684,0
DA:686,0
DA:765,0
DA:767,0
DA:768,0
DA:770,0
DA:771,0
DA:800,0
DA:805,0
DA:813,0
DA:815,0
DA:816,0
DA:817,0
DA:818,0
DA:827,6
DA:829,6
DA:830,6
DA:831,0
DA:837,6
DA:845,6
DA:847,6
DA:962,24064
DA:968,24064
DA:970,72192
DA:972,24064
DA:973,24064
DA:974,24064
DA:975,24064
DA:977,7426
DA:978,7426
DA:979,7426
DA:982,16638
DA:984,24064
DA:1024,594
DA:1025,594
DA:1057,6
DA:1067,6
DA:1069,6
LF:101
LH:51
end_of_record
SF:/usr/include/c++/5/bits/stl_construct.h
FN:74,_ZSt10_ConstructIN5Catch3PtrINS0_22CumulativeReporterBase11SectionNodeEEEJRS4_EEvPT_DpOT0_
FN:74,_ZSt10_ConstructIN5Catch8TestSpec6FilterEJS2_EEvPT_DpOT0_
FN:74,_ZSt10_ConstructIN5Catch14SectionEndInfoEJS1_EEvPT_DpOT0_
FN:74,_ZSt10_ConstructINSt7__cxx1112regex_traitsIcE10_RegexMaskEJRKS3_EEvPT_DpOT0_
FN:74,_ZSt10_ConstructIN5Catch3PtrINS0_8TestSpec7PatternEEEJRS4_EEvPT_DpOT0_
FN:74,_ZSt10_ConstructISt4pairIN9__gnu_cxx17__normal_iteratorIPKcNSt7__cxx1112basic_stringIcSt11char_traitsIcESaIcEEEEEiEJEEvPT_DpOT0_
FN:74,_ZSt10_ConstructINSt7__cxx119sub_matchIN9__gnu_cxx17__normal_iteratorIPKcNS0_12basic_stringIcSt11char_traitsIcESaIcEEEEEEEJEEvPT_DpOT0_
FN:74,_ZSt10_ConstructIN5Catch5Clara11CommandLineINS0_10ConfigDataEE3ArgEJRS5_EEvPT_DpOT0_
FN:74,_ZSt10_ConstructIN5Catch3PtrINS0_16IReporterFactoryEEEJRS3_EEvPT_DpOT0_
FN:74,_ZSt10_ConstructIN5Catch11SectionInfoEJS1_EEvPT_DpOT0_
FN:74,_ZSt10_ConstructIN5Catch8TestCaseEJRKS1_EEvPT_DpOT0_
FN:74,_ZSt10_ConstructIN5Catch3PtrINS0_18IStreamingReporterEEEJRS3_EEvPT_DpOT0_
FN:74,_ZSt10_ConstructIN5Catch15ConsoleReporter13SummaryColumnEJS2_EEvPT_DpOT0_
FN:74,_ZSt10_ConstructIN5Catch5Clara6Parser5TokenEJS3_EEvPT_DpOT0_
FN:74,_ZSt10_ConstructINSt7__cxx1112basic_stringIcSt11char_traitsIcESaIcEEEJS5_EEvPT_DpOT0_
FN:74,_ZSt10_ConstructISt4pairINSt7__cxx1112basic_stringIcSt11char_traitsIcESaIcEEES6_EJS7_EEvPT_DpOT0_
FN:74,_ZSt10_ConstructIN5Catch3PtrINS0_8TestSpec7PatternEEEJRKS4_EEvPT_DpOT0_
FN:74,_ZSt10_ConstructIN5Catch3PtrINS0_22CumulativeReporterBase4NodeINS0_13TestCaseStatsENS2_11SectionNodeEEEEEJRS7_EEvPT_DpOT0_
FN:74,_ZSt10_ConstructIN5Catch3PtrINS0_22CumulativeReporterBase4NodeINS0_12TestRunStatsENS3_INS0_14TestGroupStatsENS3_INS0_13TestCaseStatsENS2_11SectionNodeEEEEEEEEEJRSB_EEvPT_DpOT0_
FN:74,_ZSt10_ConstructINSt7__cxx1112basic_stringIcSt11char_traitsIcESaIcEEEJRKS5_EEvPT_DpOT0_
FN:74,_ZSt10_ConstructIN5Catch3PtrINS0_22CumulativeReporterBase4NodeINS0_14TestGroupStatsENS3_INS0_13TestCaseStatsENS2_11SectionNodeEEEEEEEJRS9_EEvPT_DpOT0_
FN:74,_ZSt10_ConstructI3JobJRKS0_EEvPT_DpOT0_
FN:74,_ZSt10_ConstructISt4pairINSt7__cxx1112basic_stringIcSt11char_traitsIcESaIcEEES6_EJRKS7_EEvPT_DpOT0_
FN:74,_ZSt10_ConstructIN5Catch11MessageInfoEJS1_EEvPT_DpOT0_
FN:74,_ZSt10_ConstructIN5Catch14AssertionStatsEJS1_EEvPT_DpOT0_
FN:74,_ZSt10_ConstructIN5Catch3PtrINS0_16TestCaseTracking8ITrackerEEEJRS4_EEvPT_DpOT0_
FN:74,_ZSt10_ConstructINSt7__cxx119sub_matchIN9__gnu_cxx17__normal_iteratorIPKcNS0_12basic_stringIcSt11char_traitsIcESaIcEEEEEEEJSC_EEvPT_DpOT0_
FN:74,_ZSt10_ConstructINSt7__cxx1112regex_traitsIcE10_RegexMaskEJS3_EEvPT_DpOT0_
FN:74,_ZSt10_ConstructIN5Catch3PtrINS0_16IReporterFactoryEEEJRKS3_EEvPT_DpOT0_
FN:74,_ZSt10_ConstructISt4pairIccEJRKS1_EEvPT_DpOT0_
FN:74,_ZSt10_ConstructIN5Catch8TestCaseEJRS1_EEvPT_DpOT0_
FN:74,_ZSt10_ConstructIN5Catch11MessageInfoEJRKS1_EEvPT_DpOT0_
FN:74,_ZSt10_ConstructIN5Catch5Clara6Parser5TokenEJRKS3_EEvPT_DpOT0_
FN:74,_ZSt10_ConstructINSt7__cxx119sub_matchIN9__gnu_cxx17__normal_iteratorIPKcNS0_12basic_stringIcSt11char_traitsIcESaIcEEEEEEEJRKSC_EEvPT_DpOT0_
FN:74,_ZSt10_ConstructISt4pairIccEJS1_EEvPT_DpOT0_
FN:74,_ZSt10_ConstructINSt7__cxx1112basic_stringIcSt11char_traitsIcESaIcEEEJEEvPT_DpOT0_
FN:74,_ZSt10_ConstructINSt8__detail6_StateINSt7__cxx1112regex_traitsIcEEEEJRS5_EEvPT_DpOT0_
FN:74,_ZSt10_ConstructINSt7__cxx119sub_matchIN9__gnu_cxx17__normal_iteratorIPKcNS0_12basic_stringIcSt11char_traitsIcESaIcEEEEEEEJRSC_EEvPT_DpOT0_
FN:74,_ZSt10_ConstructIN5Catch8TestSpec6FilterEJRKS2_EEvPT_DpOT0_
FN:74,_ZSt10_ConstructISt4pairIlSt6vectorINSt7__cxx119sub_matchIN9__gnu_cxx17__normal_iteratorIPKcNS2_12basic_stringIcSt11char_traitsIcESaIcEEEEEEESaISE_EEEJSH_EEvPT_DpOT0_
FN:92,_ZSt8_DestroyIN5Catch3PtrINS0_18IStreamingReporterEEEEvPT_
FN:92,_ZSt8_DestroyIN5Catch15ConsoleReporter13SummaryColumnEEvPT_
FN:92,_ZSt8_DestroyIN5Catch11SectionInfoEEvPT_
FN:92,_ZSt8_DestroyIN5Catch3PtrINS0_22CumulativeReporterBase4NodeINS0_14TestGroupStatsENS3_INS0_13TestCaseStatsENS2_11SectionNodeEEEEEEEEvPT_
FN:92,_ZSt8_DestroyIN5Catch3PtrINS0_8TestSpec7PatternEEEEvPT_
FN:92,_ZSt8_DestroyIN5Catch14SectionEndInfoEEvPT_
FN:92,_ZSt8_DestroyISt6vectorIN5Catch3PtrINS1_22CumulativeReporterBase11SectionNodeEEESaIS5_EEEvPT_
FN:92,_ZSt8_DestroyIN5Catch8TestSpec6FilterEEvPT_
FN:92,_ZSt8_DestroyIN5Catch11MessageInfoEEvPT_
FN:92,_ZSt8_DestroyISt4pairIlSt6vectorINSt7__cxx119sub_matchIN9__gnu_cxx17__normal_iteratorIPKcNS2_12basic_stringIcSt11char_traitsIcESaIcEEEEEEESaISE_EEEEvPT_
FN:92,_ZSt8_DestroyIN5Catch3PtrINS0_16TestCaseTracking8ITrackerEEEEvPT_
FN:92,_ZSt8_DestroyIN5Catch5Clara11CommandLineINS0_10ConfigDataEE3ArgEEvPT_
FN:92,_ZSt8_DestroyIN5Catch5Clara6Parser5TokenEEvPT_
FN:92,_ZSt8_DestroyINSt7__cxx1112basic_stringIcSt11char_traitsIcESaIcEEEEvPT_
FN:92,_ZSt8_DestroyIN5Catch14AssertionStatsEEvPT_
FN:92,_ZSt8_DestroyIN5Catch3PtrINS0_22CumulativeReporterBase4NodeINS0_13TestCaseStatsENS2_11SectionNodeEEEEEEvPT_
FN:92,_ZSt8_DestroyINSt8__detail6_StateINSt7__cxx1112regex_traitsIcEEEEEvPT_
FN:92,_ZSt8_DestroyIN5Catch8TestCaseEEvPT_
FN:92,_ZSt8_DestroyIN5Catch3PtrINS0_22CumulativeReporterBase4NodeINS0_12TestRunStatsENS3_INS0_14TestGroupStatsENS3_INS0_13TestCaseStatsENS2_11SectionNodeEEEEEEEEEEvPT_
FN:92,_ZSt8_DestroyISt4pairINSt7__cxx1112basic_stringIcSt11char_traitsIcESaIcEEES6_EEvPT_
FN:92,_ZSt8_DestroyIN5Catch3PtrINS0_22CumulativeReporterBase11SectionNodeEEEEvPT_
FN:92,_ZSt8_DestroyIN5Catch3PtrINS0_16IReporterFactoryEEEEvPT_
FN:100,_ZNSt12_Destroy_auxILb0EE9__destroyIPSt6vectorIN5Catch3PtrINS3_22CumulativeReporterBase11SectionNodeEEESaIS7_EEEEvT_SB_
FN:100,_ZNSt12_Destroy_auxILb0EE9__destroyIPN5Catch15ConsoleReporter13SummaryColumnEEEvT_S6_
FN:100,_ZNSt12_Destroy_auxILb0EE9__destroyIPN5Catch3PtrINS2_22CumulativeReporterBase11SectionNodeEEEEEvT_S8_
FN:100,_ZNSt12_Destroy_auxILb0EE9__destroyIPN5Catch14SectionEndInfoEEEvT_S5_
FN:100,_ZNSt12_Destroy_auxILb0EE9__destroyIPN5Catch3PtrINS2_18IStreamingReporterEEEEEvT_S7_
FN:100,_ZNSt12_Destroy_auxILb0EE9__destroyIPN5Catch3PtrINS2_22CumulativeReporterBase4NodeINS2_13TestCaseStatsENS4_11SectionNodeEEEEEEEvT_SB_
FN:100,_ZNSt12_Destroy_auxILb0EE9__destroyIPN5Catch8TestCaseEEEvT_S5_
FN:100,_ZNSt12_Destroy_auxILb0EE9__destroyIPSt4pairIlSt6vectorINSt7__cxx119sub_matchIN9__gnu_cxx17__normal_iteratorIPKcNS4_12basic_stringIcSt11char_traitsIcESaIcEEEEEEESaISG_EEEEEvT_SL_
FN:100,_ZNSt12_Destroy_auxILb0EE9__destroyIPN5Catch3PtrINS2_16TestCaseTracking8ITrackerEEEEEvT_S8_
FN:100,_ZNSt12_Destroy_auxILb0EE9__destroyIPN5Catch8TestSpec6FilterEEEvT_S6_
FN:100,_ZNSt12_Destroy_auxILb0EE9__destroyIPN5Catch3PtrINS2_16IReporterFactoryEEEEEvT_S7_
FN:100,_ZNSt12_Destroy_auxILb0EE9__destroyIPN5Catch5Clara6Parser5TokenEEEvT_S7_
FN:100,_ZNSt12_Destroy_auxILb0EE9__destroyIPN5Catch14AssertionStatsEEEvT_S5_
FN:100,_ZNSt12_Destroy_auxILb0EE9__destroyIPN5Catch5Clara11CommandLineINS2_10ConfigDataEE3ArgEEEvT_S9_
FN:100,_ZNSt12_Destroy_auxILb0EE9__destroyIPN5Catch3PtrINS2_8TestSpec7PatternEEEEEvT_S8_
FN:100,_ZNSt12_Destroy_auxILb0EE9__destroyIPN5Catch11SectionInfoEEEvT_S5_
FN:100,_ZNSt12_Destroy_auxILb0EE9__destroyIPNSt7__cxx1112basic_stringIcSt11char_traitsIcESaIcEEEEEvT_S9_
FN:100,_ZNSt12_Destroy_auxILb0EE9__destroyIPN5Catch3PtrINS2_22CumulativeReporterBase4NodeINS2_14TestGroupStatsENS5_INS2_13TestCaseStatsENS4_11SectionNodeEEEEEEEEEvT_SD_
FN:100,_ZNSt12_Destroy_auxILb0EE9__destroyIPN5Catch3PtrINS2_22CumulativeReporterBase4NodeINS2_12TestRunStatsENS5_INS2_14TestGroupStatsENS5_INS2_13TestCaseStatsENS4_11SectionNodeEEEEEEEEEEEvT_SF_
FN:100,_ZNSt12_Destroy_auxILb0EE9__destroyIPSt4pairINSt7__cxx1112basic_stringIcSt11char_traitsIcESaIcEEES8_EEEvT_SB_
FN:100,_ZNSt12_Destroy_auxILb0EE9__destroyIPN5Catch11MessageInfoEEEvT_S5_
FN:100,_ZNSt12_Destroy_auxILb0EE9__destroyIPNSt8__detail6_StateINSt7__cxx1112regex_traitsIcEEEEEEvT_S9_
FN:112,_ZNSt12_Destroy_auxILb1EE9__destroyIPcEEvT_S3_
FN:112,_ZNSt12_Destroy_auxILb1EE9__destroyIN9__gnu_cxx17__normal_iteratorIPNSt7__cxx119sub_matchINS3_IPKcNS4_12basic_stringIcSt11char_traitsIcESaIcEEEEEEESt6vectorISE_SaISE_EEEEEEvT_SK_
FN:112,_ZNSt12_Destroy_auxILb1EE9__destroyIPPN5Catch14IGeneratorInfoEEEvT_S6_
FN:112,_ZNSt12_Destroy_auxILb1EE9__destroyIPPKN5Catch8Matchers4Impl11MatcherBaseINSt7__cxx1112basic_stringIcSt11char_traitsIcESaIcEEESB_EEEEvT_SG_
FN:112,_ZNSt12_Destroy_auxILb1EE9__destroyIPNSt7__cxx119sub_matchIN9__gnu_cxx17__normal_iteratorIPKcNS2_12basic_stringIcSt11char_traitsIcESaIcEEEEEEEEEvT_SG_
FN:112,_ZNSt12_Destroy_auxILb1EE9__destroyIPP4UserEEvT_S5_
FN:112,_ZNSt12_Destroy_auxILb1EE9__destroyIPNSt7__cxx1112regex_traitsIcE10_RegexMaskEEEvT_S7_
FN:112,_ZNSt12_Destroy_auxILb1EE9__destroyIPSt4pairIN9__gnu_cxx17__normal_iteratorIPKcNSt7__cxx1112basic_stringIcSt11char_traitsIcESaIcEEEEEiEEEvT_SG_
FN:112,_ZNSt12_Destroy_auxILb1EE9__destroyIPPKN5Catch20IExceptionTranslatorEEEvT_S7_
FN:112,_ZNSt12_Destroy_auxILb1EE9__destroyIPmEEvT_S3_
FN:112,_ZNSt12_Destroy_auxILb1EE9__destroyIPPN5Catch16TestCaseTracking8ITrackerEEEvT_S7_
FN:112,_ZNSt12_Destroy_auxILb1EE9__destroyIPSt4pairIccEEEvT_S5_
FN:112,_ZNSt12_Destroy_auxILb1EE9__destroyIP3JobEEvT_S4_
FN:122,_ZSt8_DestroyIPNSt7__cxx119sub_matchIN9__gnu_cxx17__normal_iteratorIPKcNS0_12basic_stringIcSt11char_traitsIcESaIcEEEEEEEEvT_SE_
FN:122,_ZSt8_DestroyIPP4UserEvT_S3_
FN:122,_ZSt8_DestroyIPN5Catch3PtrINS0_16IReporterFactoryEEEEvT_S5_
FN:122,_ZSt8_DestroyIPN5Catch3PtrINS0_8TestSpec7PatternEEEEvT_S6_
FN:122,_ZSt8_DestroyIPPKN5Catch8Matchers4Impl11MatcherBaseINSt7__cxx1112basic_stringIcSt11char_traitsIcESaIcEEES9_EEEvT_SE_
FN:122,_ZSt8_DestroyIPNSt7__cxx1112regex_traitsIcE10_RegexMaskEEvT_S5_
FN:122,_ZSt8_DestroyIPN5Catch8TestCaseEEvT_S3_
FN:122,_ZSt8_DestroyIPSt4pairIlSt6vectorINSt7__cxx119sub_matchIN9__gnu_cxx17__normal_iteratorIPKcNS2_12basic_stringIcSt11char_traitsIcESaIcEEEEEEESaISE_EEEEvT_SJ_
FN:122,_ZSt8_DestroyIP3JobEvT_S2_
FN:122,_ZSt8_DestroyIPPN5Catch16TestCaseTracking8ITrackerEEvT_S5_
FN:122,_ZSt8_DestroyIPSt4pairIN9__gnu_cxx17__normal_iteratorIPKcNSt7__cxx1112basic_stringIcSt11char_traitsIcESaIcEEEEEiEEvT_SE_
FN:122,_ZSt8_DestroyIPNSt8__detail6_StateINSt7__cxx1112regex_traitsIcEEEEEvT_S7_
FN:122,_ZSt8_DestroyIPN5Catch3PtrINS0_16TestCaseTracking8ITrackerEEEEvT_S6_
FN:122,_ZSt8_DestroyIPN5Catch11SectionInfoEEvT_S3_
FN:122,_ZSt8_DestroyIPPKN5Catch20IExceptionTranslatorEEvT_S5_
FN:122,_ZSt8_DestroyIPPN5Catch14IGeneratorInfoEEvT_S4_
FN:122,_ZSt8_DestroyIPN5Catch3PtrINS0_22CumulativeReporterBase4NodeINS0_12TestRunStatsENS3_INS0_14TestGroupStatsENS3_INS0_13TestCaseStatsENS2_11SectionNodeEEEEEEEEEEvT_SD_
FN:122,_ZSt8_DestroyIPN5Catch3PtrINS0_22CumulativeReporterBase4NodeINS0_13TestCaseStatsENS2_11SectionNodeEEEEEEvT_S9_
FN:122,_ZSt8_DestroyIPSt4pairINSt7__cxx1112basic_stringIcSt11char_traitsIcESaIcEEES6_EEvT_S9_
FN:122,_ZSt8_DestroyIPN5Catch3PtrINS0_22CumulativeReporterBase4NodeINS0_14TestGroupStatsENS3_INS0_13TestCaseStatsENS2_11SectionNodeEEEEEEEEvT_SB_
FN:122,_ZSt8_DestroyIPmEvT_S1_
FN:122,_ZSt8_DestroyIPN5Catch3PtrINS0_18IStreamingReporterEEEEvT_S5_
FN:122,_ZSt8_DestroyIPN5Catch11MessageInfoEEvT_S3_
FN:122,_ZSt8_DestroyIPN5Catch14AssertionStatsEEvT_S3_
FN:122,_ZSt8_DestroyIPN5Catch8TestSpec6FilterEEvT_S4_
FN:122,_ZSt8_DestroyIPcEvT_S1_
FN:122,_ZSt8_DestroyIPN5Catch15ConsoleReporter13SummaryColumnEEvT_S4_
FN:122,_ZSt8_DestroyIPSt4pairIccEEvT_S3_
FN:122,_ZSt8_DestroyIPN5Catch5Clara6Parser5TokenEEvT_S5_
FN:122,_ZSt8_DestroyIN9__gnu_cxx17__normal_iteratorIPNSt7__cxx119sub_matchINS1_IPKcNS2_12basic_stringIcSt11char_traitsIcESaIcEEEEEEESt6vectorISC_SaISC_EEEEEvT_SI_
FN:122,_ZSt8_DestroyIPSt6vectorIN5Catch3PtrINS1_22CumulativeReporterBase11SectionNodeEEESaIS5_EEEvT_S9_
FN:122,_ZSt8_DestroyIPN5Catch14SectionEndInfoEEvT_S3_
FN:122,_ZSt8_DestroyIPN5Catch3PtrINS0_22CumulativeReporterBase11SectionNodeEEEEvT_S6_
FN:122,_ZSt8_DestroyIPN5Catch5Clara11CommandLineINS0_10ConfigDataEE3ArgEEvT_S7_
FN:122,_ZSt8_DestroyIPNSt7__cxx1112basic_stringIcSt11char_traitsIcESaIcEEEEvT_S7_
FN:148,_ZSt8_DestroyIPN5Catch3PtrINS0_16TestCaseTracking8ITrackerEEES4_EvT_S6_RSaIT0_E
FN:148,_ZSt8_DestroyIPN5Catch8TestSpec6FilterES2_EvT_S4_RSaIT0_E
FN:148,_ZSt8_DestroyIPN5Catch3PtrINS0_22CumulativeReporterBase11SectionNodeEEES4_EvT_S6_RSaIT0_E
FN:148,_ZSt8_DestroyIPP4UserS1_EvT_S3_RSaIT0_E
FN:148,_ZSt8_DestroyIPSt6vectorIN5Catch3PtrINS1_22CumulativeReporterBase11SectionNodeEEESaIS5_EES7_EvT_S9_RSaIT0_E
FN:148,_ZSt8_DestroyIPN5Catch3PtrINS0_22CumulativeReporterBase4NodeINS0_14TestGroupStatsENS3_INS0_13TestCaseStatsENS2_11SectionNodeEEEEEEES9_EvT_SB_RSaIT0_E
FN:148,_ZSt8_DestroyIPSt4pairIlSt6vectorINSt7__cxx119sub_matchIN9__gnu_cxx17__normal_iteratorIPKcNS2_12basic_stringIcSt11char_traitsIcESaIcEEEEEEESaISE_EEESH_EvT_SJ_RSaIT0_E
FN:148,_ZSt8_DestroyIPN5Catch14AssertionStatsES1_EvT_S3_RSaIT0_E
FN:148,_ZSt8_DestroyIPN5Catch11SectionInfoES1_EvT_S3_RSaIT0_E
FN:148,_ZSt8_DestroyIPccEvT_S1_RSaIT0_E
FN:148,_ZSt8_DestroyIPN5Catch15ConsoleReporter13SummaryColumnES2_EvT_S4_RSaIT0_E
FN:148,_ZSt8_DestroyIPSt4pairIccES1_EvT_S3_RSaIT0_E
FN:148,_ZSt8_DestroyIPN5Catch5Clara11CommandLineINS0_10ConfigDataEE3ArgES5_EvT_S7_RSaIT0_E
FN:148,_ZSt8_DestroyIPPN5Catch14IGeneratorInfoES2_EvT_S4_RSaIT0_E
FN:148,_ZSt8_DestroyIPN5Catch3PtrINS0_22CumulativeReporterBase4NodeINS0_13TestCaseStatsENS2_11SectionNodeEEEEES7_EvT_S9_RSaIT0_E
FN:148,_ZSt8_DestroyIPN5Catch11MessageInfoES1_EvT_S3_RSaIT0_E
FN:148,_ZSt8_DestroyIPmmEvT_S1_RSaIT0_E
FN:148,_ZSt8_DestroyIPSt4pairINSt7__cxx1112basic_stringIcSt11char_traitsIcESaIcEEES6_ES7_EvT_S9_RSaIT0_E
FN:148,_ZSt8_DestroyIPNSt8__detail6_StateINSt7__cxx1112regex_traitsIcEEEES5_EvT_S7_RSaIT0_E
FN:148,_ZSt8_DestroyIPN5Catch3PtrINS0_16IReporterFactoryEEES3_EvT_S5_RSaIT0_E
FN:148,_ZSt8_DestroyIPN5Catch8TestCaseES1_EvT_S3_RSaIT0_E
FN:148,_ZSt8_DestroyIPN5Catch5Clara6Parser5TokenES3_EvT_S5_RSaIT0_E
FN:148,_ZSt8_DestroyIPN5Catch3PtrINS0_8TestSpec7PatternEEES4_EvT_S6_RSaIT0_E
FN:148,_ZSt8_DestroyIN9__gnu_cxx17__normal_iteratorIPNSt7__cxx119sub_matchINS1_IPKcNS2_12basic_stringIcSt11char_traitsIcESaIcEEEEEEESt6vectorISC_SaISC_EEEESC_EvT_SI_RSaIT0_E
FN:148,_ZSt8_DestroyIPN5Catch14SectionEndInfoES1_EvT_S3_RSaIT0_E
FN:148,_ZSt8_DestroyIPSt4pairIN9__gnu_cxx17__normal_iteratorIPKcNSt7__cxx1112basic_stringIcSt11char_traitsIcESaIcEEEEEiESC_EvT_SE_RSaIT0_E
FN:148,_ZSt8_DestroyIPN5Catch3PtrINS0_22CumulativeReporterBase4NodeINS0_12TestRunStatsENS3_INS0_14TestGroupStatsENS3_INS0_13TestCaseStatsENS2_11SectionNodeEEEEEEEEESB_EvT_SD_RSaIT0_E
FN:148,_ZSt8_DestroyIP3JobS0_EvT_S2_RSaIT0_E
FN:148,_ZSt8_DestroyIPNSt7__cxx119sub_matchIN9__gnu_cxx17__normal_iteratorIPKcNS0_12basic_stringIcSt11char_traitsIcESaIcEEEEEEESC_EvT_SE_RSaIT0_E
FN:148,_ZSt8_DestroyIPNSt7__cxx1112basic_stringIcSt11char_traitsIcESaIcEEES5_EvT_S7_RSaIT0_E
FN:148,_ZSt8_DestroyIPPN5Catch16TestCaseTracking8ITrackerES3_EvT_S5_RSaIT0_E
FN:148,_ZSt8_DestroyIPN5Catch3PtrINS0_18IStreamingReporterEEES3_EvT_S5_RSaIT0_E
FN:148,_ZSt8_DestroyIPNSt7__cxx1112regex_traitsIcE10_RegexMaskES3_EvT_S5_RSaIT0_E
FN:148,_ZSt8_DestroyIPPKN5Catch8Matchers4Impl11MatcherBaseINSt7__cxx1112basic_stringIcSt11char_traitsIcESaIcEEES9_EESC_EvT_SE_RSaIT0_E
FN:148,_ZSt8_DestroyIPPKN5Catch20IExceptionTranslatorES3_EvT_S5_RSaIT0_E
FNDA:0,_ZSt10_ConstructISt4pairINSt7__cxx1112basic_stringIcSt11char_traitsIcESaIcEEES6_EJS7_EEvPT_DpOT0_
FNDA:0,_ZSt10_ConstructISt4pairIccEJS1_EEvPT_DpOT0_
FNDA:0,_ZSt10_ConstructISt4pairINSt7__cxx1112basic_stringIcSt11char_traitsIcESaIcEEES6_EJRKS7_EEvPT_DpOT0_
FNDA:0,_ZSt10_ConstructINSt7__cxx1112regex_traitsIcE10_RegexMaskEJRKS3_EEvPT_DpOT0_
FNDA:130,_ZSt10_ConstructISt4pairIccEJRKS1_EEvPT_DpOT0_
FNDA:0,_ZSt10_ConstructINSt7__cxx1112regex_traitsIcE10_RegexMaskEJS3_EEvPT_DpOT0_
FNDA:0,_ZSt10_ConstructISt4pairIlSt6vectorINSt7__cxx119sub_matchIN9__gnu_cxx17__normal_iteratorIPKcNS2_12basic_stringIcSt11char_traitsIcESaIcEEEEEEESaISE_EEEJSH_EEvPT_DpOT0_
FNDA:2046,_ZSt10_ConstructINSt8__detail6_StateINSt7__cxx1112regex_traitsIcEEEEJRS5_EEvPT_DpOT0_
FNDA:4008,_ZSt10_ConstructINSt7__cxx119sub_matchIN9__gnu_cxx17__normal_iteratorIPKcNS0_12basic_stringIcSt11char_traitsIcESaIcEEEEEEEJRKSC_EEvPT_DpOT0_
FNDA:0,_ZSt10_ConstructINSt7__cxx119sub_matchIN9__gnu_cxx17__normal_iteratorIPKcNS0_12basic_stringIcSt11char_traitsIcESaIcEEEEEEEJRSC_EEvPT_DpOT0_
FNDA:0,_ZSt10_ConstructINSt7__cxx119sub_matchIN9__gnu_cxx17__normal_iteratorIPKcNS0_12basic_stringIcSt11char_traitsIcESaIcEEEEEEEJSC_EEvPT_DpOT0_
FNDA:325650,_ZSt10_ConstructISt4pairIN9__gnu_cxx17__normal_iteratorIPKcNSt7__cxx1112basic_stringIcSt11char_traitsIcESaIcEEEEEiEJEEvPT_DpOT0_
FNDA:4008,_ZSt10_ConstructINSt7__cxx119sub_matchIN9__gnu_cxx17__normal_iteratorIPKcNS0_12basic_stringIcSt11char_traitsIcESaIcEEEEEEEJEEvPT_DpOT0_
FNDA:31,_ZSt10_ConstructIN5Catch5Clara11CommandLineINS0_10ConfigDataEE3ArgEJRS5_EEvPT_DpOT0_
FNDA:0,_ZSt10_ConstructIN5Catch15ConsoleReporter13SummaryColumnEJS2_EEvPT_DpOT0_
FNDA:0,_ZSt10_ConstructIN5Catch5Clara6Parser5TokenEJRKS3_EEvPT_DpOT0_
FNDA:0,_ZSt10_ConstructIN5Catch5Clara6Parser5TokenEJS3_EEvPT_DpOT0_
FNDA:2,_ZSt10_ConstructIN5Catch3PtrINS0_8TestSpec7PatternEEEJRKS4_EEvPT_DpOT0_
FNDA:0,_ZSt10_ConstructIN5Catch3PtrINS0_8TestSpec7PatternEEEJRS4_EEvPT_DpOT0_
FNDA:0,_ZSt10_ConstructIN5Catch3PtrINS0_22CumulativeReporterBase4NodeINS0_12TestRunStatsENS3_INS0_14TestGroupStatsENS3_INS0_13TestCaseStatsENS2_11SectionNodeEEEEEEEEEJRSB_EEvPT_DpOT0_
FNDA:0,_ZSt10_ConstructIN5Catch3PtrINS0_22CumulativeReporterBase4NodeINS0_14TestGroupStatsENS3_INS0_13TestCaseStatsENS2_11SectionNodeEEEEEEEJRS9_EEvPT_DpOT0_
FNDA:0,_ZSt10_ConstructIN5Catch3PtrINS0_22CumulativeReporterBase4NodeINS0_13TestCaseStatsENS2_11SectionNodeEEEEEJRS7_EEvPT_DpOT0_
FNDA:0,_ZSt10_ConstructIN5Catch14AssertionStatsEJS1_EEvPT_DpOT0_
FNDA:0,_ZSt10_ConstructIN5Catch3PtrINS0_22CumulativeReporterBase11SectionNodeEEEJRS4_EEvPT_DpOT0_
FNDA:0,_ZSt10_ConstructIN5Catch11SectionInfoEJS1_EEvPT_DpOT0_
FNDA:0,_ZSt10_ConstructIN5Catch3PtrINS0_18IStreamingReporterEEEJRS3_EEvPT_DpOT0_
FNDA:0,_ZSt10_ConstructIN5Catch3PtrINS0_16IReporterFactoryEEEJRS3_EEvPT_DpOT0_
FNDA:0,_ZSt10_ConstructIN5Catch14SectionEndInfoEJS1_EEvPT_DpOT0_
FNDA:0,_ZSt10_ConstructIN5Catch3PtrINS0_16TestCaseTracking8ITrackerEEEJRS4_EEvPT_DpOT0_
FNDA:0,_ZSt10_ConstructIN5Catch11MessageInfoEJS1_EEvPT_DpOT0_
FNDA:1,_ZSt10_ConstructINSt7__cxx1112basic_stringIcSt11char_traitsIcESaIcEEEJS5_EEvPT_DpOT0_
FNDA:0,_ZSt10_ConstructIN5Catch8TestSpec6FilterEJS2_EEvPT_DpOT0_
FNDA:7,_ZSt10_ConstructIN5Catch8TestCaseEJRS1_EEvPT_DpOT0_
FNDA:1,_ZSt10_ConstructINSt7__cxx1112basic_stringIcSt11char_traitsIcESaIcEEEJEEvPT_DpOT0_
FNDA:21,_ZSt10_ConstructI3JobJRKS0_EEvPT_DpOT0_
FNDA:6,_ZSt10_ConstructIN5Catch8TestCaseEJRKS1_EEvPT_DpOT0_
FNDA:0,_ZSt10_ConstructIN5Catch3PtrINS0_16IReporterFactoryEEEJRKS3_EEvPT_DpOT0_
FNDA:0,_ZSt10_ConstructIN5Catch11MessageInfoEJRKS1_EEvPT_DpOT0_
FNDA:36,_ZSt10_ConstructINSt7__cxx1112basic_stringIcSt11char_traitsIcESaIcEEEJRKS5_EEvPT_DpOT0_
FNDA:1,_ZSt10_ConstructIN5Catch8TestSpec6FilterEJRKS2_EEvPT_DpOT0_
FNDA:0,_ZSt8_DestroyISt4pairINSt7__cxx1112basic_stringIcSt11char_traitsIcESaIcEEES6_EEvPT_
FNDA:3346,_ZSt8_DestroyINSt8__detail6_StateINSt7__cxx1112regex_traitsIcEEEEEvPT_
FNDA:0,_ZSt8_DestroyISt4pairIlSt6vectorINSt7__cxx119sub_matchIN9__gnu_cxx17__normal_iteratorIPKcNS2_12basic_stringIcSt11char_traitsIcESaIcEEEEEEESaISE_EEEEvPT_
FNDA:0,_ZSt8_DestroyIN5Catch15ConsoleReporter13SummaryColumnEEvPT_
FNDA:0,_ZSt8_DestroyIN5Catch3PtrINS0_22CumulativeReporterBase4NodeINS0_12TestRunStatsENS3_INS0_14TestGroupStatsENS3_INS0_13TestCaseStatsENS2_11SectionNodeEEEEEEEEEEvPT_
FNDA:0,_ZSt8_DestroyIN5Catch3PtrINS0_22CumulativeReporterBase4NodeINS0_14TestGroupStatsENS3_INS0_13TestCaseStatsENS2_11SectionNodeEEEEEEEEvPT_
FNDA:0,_ZSt8_DestroyIN5Catch3PtrINS0_22CumulativeReporterBase4NodeINS0_13TestCaseStatsENS2_11SectionNodeEEEEEEvPT_
FNDA:0,_ZSt8_DestroyISt6vectorIN5Catch3PtrINS1_22CumulativeReporterBase11SectionNodeEEESaIS5_EEEvPT_
FNDA:0,_ZSt8_DestroyIN5Catch14AssertionStatsEEvPT_
FNDA:0,_ZSt8_DestroyIN5Catch3PtrINS0_22CumulativeReporterBase11SectionNodeEEEEvPT_
FNDA:0,_ZSt8_DestroyIN5Catch11SectionInfoEEvPT_
FNDA:0,_ZSt8_DestroyIN5Catch3PtrINS0_18IStreamingReporterEEEEvPT_
FNDA:0,_ZSt8_DestroyIN5Catch5Clara6Parser5TokenEEvPT_
FNDA:0,_ZSt8_DestroyIN5Catch3PtrINS0_16IReporterFactoryEEEEvPT_
FNDA:0,_ZSt8_DestroyIN5Catch14SectionEndInfoEEvPT_
FNDA:6,_ZSt8_DestroyIN5Catch3PtrINS0_16TestCaseTracking8ITrackerEEEEvPT_
FNDA:19,_ZSt8_DestroyIN5Catch8TestCaseEEvPT_
FNDA:0,_ZSt8_DestroyIN5Catch11MessageInfoEEvPT_
FNDA:58,_ZSt8_DestroyIN5Catch5Clara11CommandLineINS0_10ConfigDataEE3ArgEEvPT_
FNDA:57,_ZSt8_DestroyINSt7__cxx1112basic_stringIcSt11char_traitsIcESaIcEEEEvPT_
FNDA:2,_ZSt8_DestroyIN5Catch8TestSpec6FilterEEvPT_
FNDA:3,_ZSt8_DestroyIN5Catch3PtrINS0_8TestSpec7PatternEEEEvPT_
FNDA:0,_ZNSt12_Destroy_auxILb0EE9__destroyIPSt4pairINSt7__cxx1112basic_stringIcSt11char_traitsIcESaIcEEES8_EEEvT_SB_
FNDA:24,_ZNSt12_Destroy_auxILb0EE9__destroyIPNSt8__detail6_StateINSt7__cxx1112regex_traitsIcEEEEEEvT_S9_
FNDA:0,_ZNSt12_Destroy_auxILb0EE9__destroyIPSt4pairIlSt6vectorINSt7__cxx119sub_matchIN9__gnu_cxx17__normal_iteratorIPKcNS4_12basic_stringIcSt11char_traitsIcESaIcEEEEEEESaISG_EEEEEvT_SL_
FNDA:0,_ZNSt12_Destroy_auxILb0EE9__destroyIPN5Catch15ConsoleReporter13SummaryColumnEEEvT_S6_
FNDA:0,_ZNSt12_Destroy_auxILb0EE9__destroyIPN5Catch3PtrINS2_22CumulativeReporterBase4NodeINS2_12TestRunStatsENS5_INS2_14TestGroupStatsENS5_INS2_13TestCaseStatsENS4_11SectionNodeEEEEEEEEEEEvT_SF_
FNDA:0,_ZNSt12_Destroy_auxILb0EE9__destroyIPN5Catch3PtrINS2_22CumulativeReporterBase4NodeINS2_14TestGroupStatsENS5_INS2_13TestCaseStatsENS4_11SectionNodeEEEEEEEEEvT_SD_
FNDA:0,_ZNSt12_Destroy_auxILb0EE9__destroyIPN5Catch3PtrINS2_22CumulativeReporterBase4NodeINS2_13TestCaseStatsENS4_11SectionNodeEEEEEEEvT_SB_
FNDA:0,_ZNSt12_Destroy_auxILb0EE9__destroyIPSt6vectorIN5Catch3PtrINS3_22CumulativeReporterBase11SectionNodeEEESaIS7_EEEEvT_SB_
FNDA:0,_ZNSt12_Destroy_auxILb0EE9__destroyIPN5Catch14AssertionStatsEEEvT_S5_
FNDA:0,_ZNSt12_Destroy_auxILb0EE9__destroyIPN5Catch3PtrINS2_22CumulativeReporterBase11SectionNodeEEEEEvT_S8_
FNDA:2,_ZNSt12_Destroy_auxILb0EE9__destroyIPN5Catch11SectionInfoEEEvT_S5_
FNDA:0,_ZNSt12_Destroy_auxILb0EE9__destroyIPN5Catch3PtrINS2_18IStreamingReporterEEEEEvT_S7_
FNDA:9,_ZNSt12_Destroy_auxILb0EE9__destroyIPN5Catch5Clara6Parser5TokenEEEvT_S7_
FNDA:2,_ZNSt12_Destroy_auxILb0EE9__destroyIPN5Catch3PtrINS2_16IReporterFactoryEEEEEvT_S7_
FNDA:7,_ZNSt12_Destroy_auxILb0EE9__destroyIPN5Catch14SectionEndInfoEEEvT_S5_
FNDA:18,_ZNSt12_Destroy_auxILb0EE9__destroyIPN5Catch3PtrINS2_16TestCaseTracking8ITrackerEEEEEvT_S8_
FNDA:8,_ZNSt12_Destroy_auxILb0EE9__destroyIPN5Catch8TestCaseEEEvT_S5_
FNDA:7,_ZNSt12_Destroy_auxILb0EE9__destroyIPN5Catch11MessageInfoEEEvT_S5_
FNDA:7,_ZNSt12_Destroy_auxILb0EE9__destroyIPN5Catch5Clara11CommandLineINS2_10ConfigDataEE3ArgEEEvT_S9_
FNDA:538,_ZNSt12_Destroy_auxILb0EE9__destroyIPNSt7__cxx1112basic_stringIcSt11char_traitsIcESaIcEEEEEvT_S9_
FNDA:6,_ZNSt12_Destroy_auxILb0EE9__destroyIPN5Catch8TestSpec6FilterEEEvT_S6_
FNDA:6,_ZNSt12_Destroy_auxILb0EE9__destroyIPN5Catch3PtrINS2_8TestSpec7PatternEEEEEvT_S8_
FNDA:412,_ZNSt12_Destroy_auxILb1EE9__destroyIPNSt7__cxx1112regex_traitsIcE10_RegexMaskEEEvT_S7_
FNDA:506,_ZNSt12_Destroy_auxILb1EE9__destroyIPSt4pairIccEEEvT_S5_
FNDA:24476,_ZNSt12_Destroy_auxILb1EE9__destroyIPcEEvT_S3_
FNDA:501,_ZNSt12_Destroy_auxILb1EE9__destroyIN9__gnu_cxx17__normal_iteratorIPNSt7__cxx119sub_matchINS3_IPKcNS4_12basic_stringIcSt11char_traitsIcESaIcEEEEEEESt6vectorISE_SaISE_EEEEEEvT_SK_
FNDA:501,_ZNSt12_Destroy_auxILb1EE9__destroyIPSt4pairIN9__gnu_cxx17__normal_iteratorIPKcNSt7__cxx1112basic_stringIcSt11char_traitsIcESaIcEEEEEiEEEvT_SG_
FNDA:2004,_ZNSt12_Destroy_auxILb1EE9__destroyIPNSt7__cxx119sub_matchIN9__gnu_cxx17__normal_iteratorIPKcNS2_12basic_stringIcSt11char_traitsIcESaIcEEEEEEEEEvT_SG_
FNDA:5003,_ZNSt12_Destroy_auxILb1EE9__destroyIP3JobEEvT_S4_
FNDA:5003,_ZNSt12_Destroy_auxILb1EE9__destroyIPP4UserEEvT_S5_
FNDA:0,_ZNSt12_Destroy_auxILb1EE9__destroyIPPKN5Catch8Matchers4Impl11MatcherBaseINSt7__cxx1112basic_stringIcSt11char_traitsIcESaIcEEESB_EEEEvT_SG_
FNDA:0,_ZNSt12_Destroy_auxILb1EE9__destroyIPPN5Catch14IGeneratorInfoEEEvT_S6_
FNDA:1,_ZNSt12_Destroy_auxILb1EE9__destroyIPPKN5Catch20IExceptionTranslatorEEEvT_S7_
FNDA:1,_ZNSt12_Destroy_auxILb1EE9__destroyIPPN5Catch16TestCaseTracking8ITrackerEEEvT_S7_
FNDA:11,_ZNSt12_Destroy_auxILb1EE9__destroyIPmEEvT_S3_
FNDA:0,_ZSt8_DestroyIPSt4pairINSt7__cxx1112basic_stringIcSt11char_traitsIcESaIcEEES6_EEvT_S9_
FNDA:412,_ZSt8_DestroyIPNSt7__cxx1112regex_traitsIcE10_RegexMaskEEvT_S5_
FNDA:506,_ZSt8_DestroyIPSt4pairIccEEvT_S3_
FNDA:24476,_ZSt8_DestroyIPcEvT_S1_
FNDA:24,_ZSt8_DestroyIPNSt8__detail6_StateINSt7__cxx1112regex_traitsIcEEEEEvT_S7_
FNDA:501,_ZSt8_DestroyIN9__gnu_cxx17__normal_iteratorIPNSt7__cxx119sub_matchINS1_IPKcNS2_12basic_stringIcSt11char_traitsIcESaIcEEEEEEESt6vectorISC_SaISC_EEEEEvT_SI_
FNDA:0,_ZSt8_DestroyIPSt4pairIlSt6vectorINSt7__cxx119sub_matchIN9__gnu_cxx17__normal_iteratorIPKcNS2_12basic_stringIcSt11char_traitsIcESaIcEEEEEEESaISE_EEEEvT_SJ_
FNDA:501,_ZSt8_DestroyIPSt4pairIN9__gnu_cxx17__normal_iteratorIPKcNSt7__cxx1112basic_stringIcSt11char_traitsIcESaIcEEEEEiEEvT_SE_
FNDA:2004,_ZSt8_DestroyIPNSt7__cxx119sub_matchIN9__gnu_cxx17__normal_iteratorIPKcNS0_12basic_stringIcSt11char_traitsIcESaIcEEEEEEEEvT_SE_
FNDA:5003,_ZSt8_DestroyIP3JobEvT_S2_
FNDA:5003,_ZSt8_DestroyIPP4UserEvT_S3_
FNDA:0,_ZSt8_DestroyIPN5Catch15ConsoleReporter13SummaryColumnEEvT_S4_
FNDA:0,_ZSt8_DestroyIPN5Catch3PtrINS0_22CumulativeReporterBase4NodeINS0_12TestRunStatsENS3_INS0_14TestGroupStatsENS3_INS0_13TestCaseStatsENS2_11SectionNodeEEEEEEEEEEvT_SD_
FNDA:0,_ZSt8_DestroyIPN5Catch3PtrINS0_22CumulativeReporterBase4NodeINS0_14TestGroupStatsENS3_INS0_13TestCaseStatsENS2_11SectionNodeEEEEEEEEvT_SB_
FNDA:0,_ZSt8_DestroyIPN5Catch3PtrINS0_22CumulativeReporterBase4NodeINS0_13TestCaseStatsENS2_11SectionNodeEEEEEEvT_S9_
FNDA:0,_ZSt8_DestroyIPSt6vectorIN5Catch3PtrINS1_22CumulativeReporterBase11SectionNodeEEESaIS5_EEEvT_S9_
FNDA:0,_ZSt8_DestroyIPN5Catch14AssertionStatsEEvT_S3_
FNDA:0,_ZSt8_DestroyIPN5Catch3PtrINS0_22CumulativeReporterBase11SectionNodeEEEEvT_S6_
FNDA:2,_ZSt8_DestroyIPN5Catch11SectionInfoEEvT_S3_
FNDA:0,_ZSt8_DestroyIPN5Catch3PtrINS0_18IStreamingReporterEEEEvT_S5_
FNDA:0,_ZSt8_DestroyIPPKN5Catch8Matchers4Impl11MatcherBaseINSt7__cxx1112basic_stringIcSt11char_traitsIcESaIcEEES9_EEEvT_SE_
FNDA:0,_ZSt8_DestroyIPPN5Catch14IGeneratorInfoEEvT_S4_
FNDA:1,_ZSt8_DestroyIPPKN5Catch20IExceptionTranslatorEEvT_S5_
FNDA:9,_ZSt8_DestroyIPN5Catch5Clara6Parser5TokenEEvT_S5_
FNDA:2,_ZSt8_DestroyIPN5Catch3PtrINS0_16IReporterFactoryEEEEvT_S5_
FNDA:1,_ZSt8_DestroyIPPN5Catch16TestCaseTracking8ITrackerEEvT_S5_
FNDA:7,_ZSt8_DestroyIPN5Catch14SectionEndInfoEEvT_S3_
FNDA:18,_ZSt8_DestroyIPN5Catch3PtrINS0_16TestCaseTracking8ITrackerEEEEvT_S6_
FNDA:8,_ZSt8_DestroyIPN5Catch8TestCaseEEvT_S3_
FNDA:7,_ZSt8_DestroyIPN5Catch11MessageInfoEEvT_S3_
FNDA:7,_ZSt8_DestroyIPN5Catch5Clara11CommandLineINS0_10ConfigDataEE3ArgEEvT_S7_
FNDA:538,_ZSt8_DestroyIPNSt7__cxx1112basic_stringIcSt11char_traitsIcESaIcEEEEvT_S7_
FNDA:6,_ZSt8_DestroyIPN5Catch8TestSpec6FilterEEvT_S4_
FNDA:6,_ZSt8_DestroyIPN5Catch3PtrINS0_8TestSpec7PatternEEEEvT_S6_
FNDA:11,_ZSt8_DestroyIPmEvT_S1_
FNDA:0,_ZSt8_DestroyIPSt4pairINSt7__cxx1112basic_stringIcSt11char_traitsIcESaIcEEES6_ES7_EvT_S9_RSaIT0_E
FNDA:412,_ZSt8_DestroyIPNSt7__cxx1112regex_traitsIcE10_RegexMaskES3_EvT_S5_RSaIT0_E
FNDA:506,_ZSt8_DestroyIPSt4pairIccES1_EvT_S3_RSaIT0_E
FNDA:24476,_ZSt8_DestroyIPccEvT_S1_RSaIT0_E
FNDA:24,_ZSt8_DestroyIPNSt8__detail6_StateINSt7__cxx1112regex_traitsIcEEEES5_EvT_S7_RSaIT0_E
FNDA:501,_ZSt8_DestroyIN9__gnu_cxx17__normal_iteratorIPNSt7__cxx119sub_matchINS1_IPKcNS2_12basic_stringIcSt11char_traitsIcESaIcEEEEEEESt6vectorISC_SaISC_EEEESC_EvT_SI_RSaIT0_E
FNDA:0,_ZSt8_DestroyIPSt4pairIlSt6vectorINSt7__cxx119sub_matchIN9__gnu_cxx17__normal_iteratorIPKcNS2_12basic_stringIcSt11char_traitsIcESaIcEEEEEEESaISE_EEESH_EvT_SJ_RSaIT0_E
FNDA:501,_ZSt8_DestroyIPSt4pairIN9__gnu_cxx17__normal_iteratorIPKcNSt7__cxx1112basic_stringIcSt11char_traitsIcESaIcEEEEEiESC_EvT_SE_RSaIT0_E
FNDA:2004,_ZSt8_DestroyIPNSt7__cxx119sub_matchIN9__gnu_cxx17__normal_iteratorIPKcNS0_12basic_stringIcSt11char_traitsIcESaIcEEEEEEESC_EvT_SE_RSaIT0_E
FNDA:5003,_ZSt8_DestroyIP3JobS0_EvT_S2_RSaIT0_E
FNDA:5003,_ZSt8_DestroyIPP4UserS1_EvT_S3_RSaIT0_E
FNDA:0,_ZSt8_DestroyIPN5Catch15ConsoleReporter13SummaryColumnES2_EvT_S4_RSaIT0_E
FNDA:0,_ZSt8_DestroyIPN5Catch3PtrINS0_22CumulativeReporterBase4NodeINS0_12TestRunStatsENS3_INS0_14TestGroupStatsENS3_INS0_13TestCaseStatsENS2_11SectionNodeEEEEEEEEESB_EvT_SD_RSaIT0_E
FNDA:0,_ZSt8_DestroyIPN5Catch3PtrINS0_22CumulativeReporterBase4NodeINS0_14TestGroupStatsENS3_INS0_13TestCaseStatsENS2_11SectionNodeEEEEEEES9_EvT_SB_RSaIT0_E
FNDA:0,_ZSt8_DestroyIPN5Catch3PtrINS0_22CumulativeReporterBase4NodeINS0_13TestCaseStatsENS2_11SectionNodeEEEEES7_EvT_S9_RSaIT0_E
FNDA:0,_ZSt8_DestroyIPSt6vectorIN5Catch3PtrINS1_22CumulativeReporterBase11SectionNodeEEESaIS5_EES7_EvT_S9_RSaIT0_E
FNDA:0,_ZSt8_DestroyIPN5Catch14AssertionStatsES1_EvT_S3_RSaIT0_E
FNDA:0,_ZSt8_DestroyIPN5Catch3PtrINS0_22CumulativeReporterBase11SectionNodeEEES4_EvT_S6_RSaIT0_E
FNDA:2,_ZSt8_DestroyIPN5Catch11SectionInfoES1_EvT_S3_RSaIT0_E
FNDA:0,_ZSt8_DestroyIPN5Catch3PtrINS0_18IStreamingReporterEEES3_EvT_S5_RSaIT0_E
FNDA:0,_ZSt8_DestroyIPPKN5Catch8Matchers4Impl11MatcherBaseINSt7__cxx1112basic_stringIcSt11char_traitsIcESaIcEEES9_EESC_EvT_SE_RSaIT0_E
FNDA:0,_ZSt8_DestroyIPPN5Catch14IGeneratorInfoES2_EvT_S4_RSaIT0_E
FNDA:1,_ZSt8_DestroyIPPKN5Catch20IExceptionTranslatorES3_EvT_S5_RSaIT0_E
FNDA:9,_ZSt8_DestroyIPN5Catch5Clara6Parser5TokenES3_EvT_S5_RSaIT0_E
FNDA:2,_ZSt8_DestroyIPN5Catch3PtrINS0_16IReporterFactoryEEES3_EvT_S5_RSaIT0_E
FNDA:1,_ZSt8_DestroyIPPN5Catch16TestCaseTracking8ITrackerES3_EvT_S5_RSaIT0_E
FNDA:7,_ZSt8_DestroyIPN5Catch14SectionEndInfoES1_EvT_S3_RSaIT0_E
FNDA:18,_ZSt8_DestroyIPN5Catch3PtrINS0_16TestCaseTracking8ITrackerEEES4_EvT_S6_RSaIT0_E
FNDA:8,_ZSt8_DestroyIPN5Catch8TestCaseES1_EvT_S3_RSaIT0_E
FNDA:7,_ZSt8_DestroyIPN5Catch11MessageInfoES1_EvT_S3_RSaIT0_E
FNDA:7,_ZSt8_DestroyIPN5Catch5Clara11CommandLineINS0_10ConfigDataEE3ArgES5_EvT_S7_RSaIT0_E
FNDA:538,_ZSt8_DestroyIPNSt7__cxx1112basic_stringIcSt11char_traitsIcESaIcEEES5_EvT_S7_RSaIT0_E
FNDA:6,_ZSt8_DestroyIPN5Catch8TestSpec6FilterES2_EvT_S4_RSaIT0_E
FNDA:6,_ZSt8_DestroyIPN5Catch3PtrINS0_8TestSpec7PatternEEES4_EvT_S6_RSaIT0_E
FNDA:11,_ZSt8_DestroyIPmmEvT_S1_RSaIT0_E
FNF:167
FNH:90
DA:74,335948
DA:75,335948
DA:92,3491
DA:93,3491
DA:100,4125
DA:102,7616
DA:103,3491
DA:104,634
DA:112,38419
DA:122,39053
DA:126,39053
DA:128,39053
DA:148,39053
DA:151,39053
DA:152,39053
LF:15
LH:15
end_of_record
SF:/usr/include/c++/5/bits/stl_deque.h
FN:89,_ZSt16__deque_buf_sizem
FN:126,_ZNSt15_Deque_iteratorIlRlPlE14_S_buffer_sizeEv
FN:126,_ZNSt15_Deque_iteratorINSt8__detail9_StateSeqINSt7__cxx1112regex_traitsIcEEEERS5_PS5_E14_S_buffer_sizeEv
FN:146,_ZNSt15_Deque_iteratorINSt8__detail9_StateSeqINSt7__cxx1112regex_traitsIcEEEERS5_PS5_EC2Ev
FN:146,_ZNSt15_Deque_iteratorIlRlPlEC2Ev
FN:149,_ZNSt15_Deque_iteratorIlRlPlEC2ERKS2_
FN:149,_ZNSt15_Deque_iteratorINSt8__detail9_StateSeqINSt7__cxx1112regex_traitsIcEEEERS5_PS5_EC2ERKS8_
FN:158,_ZNKSt15_Deque_iteratorIlRlPlEdeEv
FN:158,_ZNKSt15_Deque_iteratorINSt8__detail9_StateSeqINSt7__cxx1112regex_traitsIcEEEERS5_PS5_EdeEv
FN:186,_ZNSt15_Deque_iteratorIlRlPlEmmEv
FN:186,_ZNSt15_Deque_iteratorINSt8__detail9_StateSeqINSt7__cxx1112regex_traitsIcEEEERS5_PS5_EmmEv
FN:252,_ZNSt15_Deque_iteratorINSt8__detail9_StateSeqINSt7__cxx1112regex_traitsIcEEEERS5_PS5_E11_M_set_nodeEPS7_
FN:252,_ZNSt15_Deque_iteratorIlRlPlE11_M_set_nodeEPS1_
FN:265,_ZSteqIlRlPlEbRKSt15_Deque_iteratorIT_T0_T1_ES8_
FN:265,_ZSteqINSt8__detail9_StateSeqINSt7__cxx1112regex_traitsIcEEEERS5_PS5_EbRKSt15_Deque_iteratorIT_T0_T1_ESE_
FN:488,_ZNSt11_Deque_baseIlSaIlEEC2Ev
FN:488,_ZNSt11_Deque_baseINSt8__detail9_StateSeqINSt7__cxx1112regex_traitsIcEEEESaIS5_EEC2Ev
FN:509,_ZNSt11_Deque_baseINSt8__detail9_StateSeqINSt7__cxx1112regex_traitsIcEEEESaIS5_EEC2EOS7_St17integral_constantIbLb1EE
FN:509,_ZNSt11_Deque_baseIlSaIlEEC2EOS1_St17integral_constantIbLb1EE
FN:517,_ZNSt11_Deque_baseIlSaIlEEC2EOS1_
FN:517,_ZNSt11_Deque_baseINSt8__detail9_StateSeqINSt7__cxx1112regex_traitsIcEEEESaIS5_EEC2EOS7_
FN:548,_ZNSt11_Deque_baseINSt8__detail9_StateSeqINSt7__cxx1112regex_traitsIcEEEESaIS5_EE11_Deque_implD2Ev
FN:548,_ZNSt11_Deque_baseIlSaIlEE11_Deque_implD2Ev
FN:556,_ZNSt11_Deque_baseIlSaIlEE11_Deque_implC2Ev
FN:556,_ZNSt11_Deque_baseINSt8__detail9_StateSeqINSt7__cxx1112regex_traitsIcEEEESaIS5_EE11_Deque_implC2Ev
FN:569,_ZNSt11_Deque_baseINSt8__detail9_StateSeqINSt7__cxx1112regex_traitsIcEEEESaIS5_EE11_Deque_implC2EOS6_
FN:569,_ZNSt11_Deque_baseIlSaIlEE11_Deque_implC2EOS0_
FN:575,_ZNSt11_Deque_baseINSt8__detail9_StateSeqINSt7__cxx1112regex_traitsIcEEEESaIS5_EE11_Deque_impl12_M_swap_dataERS8_
FN:575,_ZNSt11_Deque_baseIlSaIlEE11_Deque_impl12_M_swap_dataERS2_
FN:586,_ZNSt11_Deque_baseIlSaIlEE19_M_get_Tp_allocatorEv
FN:586,_ZNSt11_Deque_baseINSt8__detail9_StateSeqINSt7__cxx1112regex_traitsIcEEEESaIS5_EE19_M_get_Tp_allocatorEv
FN:590,_ZNKSt11_Deque_baseINSt8__detail9_StateSeqINSt7__cxx1112regex_traitsIcEEEESaIS5_EE19_M_get_Tp_allocatorEv
FN:590,_ZNKSt11_Deque_baseIlSaIlEE19_M_get_Tp_allocatorEv
FN:594,_ZNKSt11_Deque_baseINSt8__detail9_StateSeqINSt7__cxx1112regex_traitsIcEEEESaIS5_EE20_M_get_map_allocatorEv
FN:594,_ZNKSt11_Deque_baseIlSaIlEE20_M_get_map_allocatorEv
FN:598,_ZNSt11_Deque_baseINSt8__detail9_StateSeqINSt7__cxx1112regex_traitsIcEEEESaIS5_EE16_M_allocate_nodeEv
FN:598,_ZNSt11_Deque_baseIlSaIlEE16_M_allocate_nodeEv
FN:605,_ZNSt11_Deque_baseIlSaIlEE18_M_deallocate_nodeEPl
FN:605,_ZNSt11_Deque_baseINSt8__detail9_StateSeqINSt7__cxx1112regex_traitsIcEEEESaIS5_EE18_M_deallocate_nodeEPS5_
FN:612,_ZNSt11_Deque_baseIlSaIlEE15_M_allocate_mapEm
FN:612,_ZNSt11_Deque_baseINSt8__detail9_StateSeqINSt7__cxx1112regex_traitsIcEEEESaIS5_EE15_M_allocate_mapEm
FN:619,_ZNSt11_Deque_baseINSt8__detail9_StateSeqINSt7__cxx1112regex_traitsIcEEEESaIS5_EE17_M_deallocate_mapEPPS5_m
FN:619,_ZNSt11_Deque_baseIlSaIlEE17_M_deallocate_mapEPPlm
FN:659,_ZNSt11_Deque_baseINSt8__detail9_StateSeqINSt7__cxx1112regex_traitsIcEEEESaIS5_EED2Ev
FN:659,_ZNSt11_Deque_baseIlSaIlEED2Ev
FN:680,_ZNSt11_Deque_baseINSt8__detail9_StateSeqINSt7__cxx1112regex_traitsIcEEEESaIS5_EE17_M_initialize_mapEm
FN:680,_ZNSt11_Deque_baseIlSaIlEE17_M_initialize_mapEm
FN:719,_ZNSt11_Deque_baseIlSaIlEE15_M_create_nodesEPPlS3_
FN:719,_ZNSt11_Deque_baseINSt8__detail9_StateSeqINSt7__cxx1112regex_traitsIcEEEESaIS5_EE15_M_create_nodesEPPS5_S9_
FN:737,_ZNSt11_Deque_baseIlSaIlEE16_M_destroy_nodesEPPlS3_
FN:737,_ZNSt11_Deque_baseINSt8__detail9_StateSeqINSt7__cxx1112regex_traitsIcEEEESaIS5_EE16_M_destroy_nodesEPPS5_S9_
FN:883,_ZNSt5dequeINSt8__detail9_StateSeqINSt7__cxx1112regex_traitsIcEEEESaIS5_EEC2Ev
FN:883,_ZNSt5dequeIlSaIlEEC2Ev
FN:956,_ZNSt5dequeIlSaIlEEC2EOS1_
FN:956,_ZNSt5dequeINSt8__detail9_StateSeqINSt7__cxx1112regex_traitsIcEEEESaIS5_EEC2EOS7_
FN:1038,_ZNSt5dequeIlSaIlEED2Ev
FN:1038,_ZNSt5dequeINSt8__detail9_StateSeqINSt7__cxx1112regex_traitsIcEEEESaIS5_EED2Ev
FN:1158,_ZNSt5dequeIlSaIlEE5beginEv
FN:1158,_ZNSt5dequeINSt8__detail9_StateSeqINSt7__cxx1112regex_traitsIcEEEESaIS5_EE5beginEv
FN:1175,_ZNSt5dequeIlSaIlEE3endEv
FN:1175,_ZNSt5dequeINSt8__detail9_StateSeqINSt7__cxx1112regex_traitsIcEEEESaIS5_EE3endEv
FN:1349,_ZNKSt5dequeIlSaIlEE5emptyEv
FN:1349,_ZNKSt5dequeINSt8__detail9_StateSeqINSt7__cxx1112regex_traitsIcEEEESaIS5_EE5emptyEv
FN:1453,_ZNSt5dequeIlSaIlEE4backEv
FN:1453,_ZNSt5dequeINSt8__detail9_StateSeqINSt7__cxx1112regex_traitsIcEEEESaIS5_EE4backEv
FN:1516,_ZNSt5dequeINSt8__detail9_StateSeqINSt7__cxx1112regex_traitsIcEEEESaIS5_EE9push_backERKS5_
FN:1516,_ZNSt5dequeIlSaIlEE9push_backERKl
FN:1531,_ZNSt5dequeINSt8__detail9_StateSeqINSt7__cxx1112regex_traitsIcEEEESaIS5_EE9push_backEOS5_
FN:1570,_ZNSt5dequeIlSaIlEE8pop_backEv
FN:1570,_ZNSt5dequeINSt8__detail9_StateSeqINSt7__cxx1112regex_traitsIcEEEESaIS5_EE8pop_backEv
FN:2033,_ZNSt5dequeINSt8__detail9_StateSeqINSt7__cxx1112regex_traitsIcEEEESaIS5_EE15_M_destroy_dataESt15_Deque_iteratorIS5_RS5_PS5_ESB_RKS6_
FN:2033,_ZNSt5dequeIlSaIlEE15_M_destroy_dataESt15_Deque_iteratorIlRlPlES5_RKS0_
FN:2114,_ZNSt5dequeIlSaIlEE22_M_reserve_map_at_backEm
FN:2114,_ZNSt5dequeINSt8__detail9_StateSeqINSt7__cxx1112regex_traitsIcEEEESaIS5_EE22_M_reserve_map_at_backEm
FNDA:24,_ZSt16__deque_buf_sizem
FNDA:0,_ZNSt15_Deque_iteratorIlRlPlE14_S_buffer_sizeEv
FNDA:8,_ZNSt15_Deque_iteratorINSt8__detail9_StateSeqINSt7__cxx1112regex_traitsIcEEEERS5_PS5_E14_S_buffer_sizeEv
FNDA:0,_ZNSt15_Deque_iteratorIlRlPlEC2Ev
FNDA:8,_ZNSt15_Deque_iteratorINSt8__detail9_StateSeqINSt7__cxx1112regex_traitsIcEEEERS5_PS5_EC2Ev
FNDA:0,_ZNSt15_Deque_iteratorIlRlPlEC2ERKS2_
FNDA:2098,_ZNSt15_Deque_iteratorINSt8__detail9_StateSeqINSt7__cxx1112regex_traitsIcEEEERS5_PS5_EC2ERKS8_
FNDA:0,_ZNKSt15_Deque_iteratorIlRlPlEdeEv
FNDA:2086,_ZNKSt15_Deque_iteratorINSt8__detail9_StateSeqINSt7__cxx1112regex_traitsIcEEEERS5_PS5_EdeEv
FNDA:0,_ZNSt15_Deque_iteratorIlRlPlEmmEv
FNDA:2086,_ZNSt15_Deque_iteratorINSt8__detail9_StateSeqINSt7__cxx1112regex_traitsIcEEEERS5_PS5_EmmEv
FNDA:0,_ZNSt15_Deque_iteratorIlRlPlE11_M_set_nodeEPS1_
FNDA:8,_ZNSt15_Deque_iteratorINSt8__detail9_StateSeqINSt7__cxx1112regex_traitsIcEEEERS5_PS5_E11_M_set_nodeEPS7_
FNDA:0,_ZSteqIlRlPlEbRKSt15_Deque_iteratorIT_T0_T1_ES8_
FNDA:192,_ZSteqINSt8__detail9_StateSeqINSt7__cxx1112regex_traitsIcEEEERS5_PS5_EbRKSt15_Deque_iteratorIT_T0_T1_ESE_
FNDA:0,_ZNSt11_Deque_baseIlSaIlEEC2Ev
FNDA:2,_ZNSt11_Deque_baseINSt8__detail9_StateSeqINSt7__cxx1112regex_traitsIcEEEESaIS5_EEC2Ev
FNDA:0,_ZNSt11_Deque_baseIlSaIlEEC2EOS1_St17integral_constantIbLb1EE
FNDA:2,_ZNSt11_Deque_baseINSt8__detail9_StateSeqINSt7__cxx1112regex_traitsIcEEEESaIS5_EEC2EOS7_St17integral_constantIbLb1EE
FNDA:0,_ZNSt11_Deque_baseIlSaIlEEC2EOS1_
FNDA:2,_ZNSt11_Deque_baseINSt8__detail9_StateSeqINSt7__cxx1112regex_traitsIcEEEESaIS5_EEC2EOS7_
FNDA:0,_ZNSt11_Deque_baseIlSaIlEE11_Deque_implD2Ev
FNDA:4,_ZNSt11_Deque_baseINSt8__detail9_StateSeqINSt7__cxx1112regex_traitsIcEEEESaIS5_EE11_Deque_implD2Ev
FNDA:0,_ZNSt11_Deque_baseIlSaIlEE11_Deque_implC2Ev
FNDA:2,_ZNSt11_Deque_baseINSt8__detail9_StateSeqINSt7__cxx1112regex_traitsIcEEEESaIS5_EE11_Deque_implC2Ev
FNDA:0,_ZNSt11_Deque_baseIlSaIlEE11_Deque_implC2EOS0_
FNDA:2,_ZNSt11_Deque_baseINSt8__detail9_StateSeqINSt7__cxx1112regex_traitsIcEEEESaIS5_EE11_Deque_implC2EOS6_
FNDA:0,_ZNSt11_Deque_baseIlSaIlEE11_Deque_impl12_M_swap_dataERS2_
FNDA:2,_ZNSt11_Deque_baseINSt8__detail9_StateSeqINSt7__cxx1112regex_traitsIcEEEESaIS5_EE11_Deque_impl12_M_swap_dataERS8_
FNDA:0,_ZNSt11_Deque_baseIlSaIlEE19_M_get_Tp_allocatorEv
FNDA:6,_ZNSt11_Deque_baseINSt8__detail9_StateSeqINSt7__cxx1112regex_traitsIcEEEESaIS5_EE19_M_get_Tp_allocatorEv
FNDA:0,_ZNKSt11_Deque_baseIlSaIlEE19_M_get_Tp_allocatorEv
FNDA:8,_ZNKSt11_Deque_baseINSt8__detail9_StateSeqINSt7__cxx1112regex_traitsIcEEEESaIS5_EE19_M_get_Tp_allocatorEv
FNDA:0,_ZNKSt11_Deque_baseIlSaIlEE20_M_get_map_allocatorEv
FNDA:8,_ZNKSt11_Deque_baseINSt8__detail9_StateSeqINSt7__cxx1112regex_traitsIcEEEESaIS5_EE20_M_get_map_allocatorEv
FNDA:0,_ZNSt11_Deque_baseIlSaIlEE16_M_allocate_nodeEv
FNDA:4,_ZNSt11_Deque_baseINSt8__detail9_StateSeqINSt7__cxx1112regex_traitsIcEEEESaIS5_EE16_M_allocate_nodeEv
FNDA:0,_ZNSt11_Deque_baseIlSaIlEE18_M_deallocate_nodeEPl
FNDA:4,_ZNSt11_Deque_baseINSt8__detail9_StateSeqINSt7__cxx1112regex_traitsIcEEEESaIS5_EE18_M_deallocate_nodeEPS5_
FNDA:0,_ZNSt11_Deque_baseIlSaIlEE15_M_allocate_mapEm
FNDA:4,_ZNSt11_Deque_baseINSt8__detail9_StateSeqINSt7__cxx1112regex_traitsIcEEEESaIS5_EE15_M_allocate_mapEm
FNDA:0,_ZNSt11_Deque_baseIlSaIlEE17_M_deallocate_mapEPPlm
FNDA:4,_ZNSt11_Deque_baseINSt8__detail9_StateSeqINSt7__cxx1112regex_traitsIcEEEESaIS5_EE17_M_deallocate_mapEPPS5_m
FNDA:0,_ZNSt11_Deque_baseIlSaIlEED2Ev
FNDA:4,_ZNSt11_Deque_baseINSt8__detail9_StateSeqINSt7__cxx1112regex_traitsIcEEEESaIS5_EED2Ev
FNDA:0,_ZNSt11_Deque_baseIlSaIlEE17_M_initialize_mapEm
FNDA:4,_ZNSt11_Deque_baseINSt8__detail9_StateSeqINSt7__cxx1112regex_traitsIcEEEESaIS5_EE17_M_initialize_mapEm
FNDA:0,_ZNSt11_Deque_baseIlSaIlEE15_M_create_nodesEPPlS3_
FNDA:4,_ZNSt11_Deque_baseINSt8__detail9_StateSeqINSt7__cxx1112regex_traitsIcEEEESaIS5_EE15_M_create_nodesEPPS5_S9_
FNDA:0,_ZNSt11_Deque_baseIlSaIlEE16_M_destroy_nodesEPPlS3_
FNDA:4,_ZNSt11_Deque_baseINSt8__detail9_StateSeqINSt7__cxx1112regex_traitsIcEEEESaIS5_EE16_M_destroy_nodesEPPS5_S9_
FNDA:0,_ZNSt5dequeIlSaIlEEC2Ev
FNDA:2,_ZNSt5dequeINSt8__detail9_StateSeqINSt7__cxx1112regex_traitsIcEEEESaIS5_EEC2Ev
FNDA:0,_ZNSt5dequeIlSaIlEEC2EOS1_
FNDA:2,_ZNSt5dequeINSt8__detail9_StateSeqINSt7__cxx1112regex_traitsIcEEEESaIS5_EEC2EOS7_
FNDA:0,_ZNSt5dequeIlSaIlEED2Ev
FNDA:4,_ZNSt5dequeINSt8__detail9_StateSeqINSt7__cxx1112regex_traitsIcEEEESaIS5_EED2Ev
FNDA:0,_ZNSt5dequeIlSaIlEE5beginEv
FNDA:4,_ZNSt5dequeINSt8__detail9_StateSeqINSt7__cxx1112regex_traitsIcEEEESaIS5_EE5beginEv
FNDA:0,_ZNSt5dequeIlSaIlEE3endEv
FNDA:2090,_ZNSt5dequeINSt8__detail9_StateSeqINSt7__cxx1112regex_traitsIcEEEESaIS5_EE3endEv
FNDA:0,_ZNKSt5dequeIlSaIlEE5emptyEv
FNDA:192,_ZNKSt5dequeINSt8__detail9_StateSeqINSt7__cxx1112regex_traitsIcEEEESaIS5_EE5emptyEv
FNDA:0,_ZNSt5dequeIlSaIlEE4backEv
FNDA:2086,_ZNSt5dequeINSt8__detail9_StateSeqINSt7__cxx1112regex_traitsIcEEEESaIS5_EE4backEv
FNDA:0,_ZNSt5dequeIlSaIlEE9push_backERKl
FNDA:1118,_ZNSt5dequeINSt8__detail9_StateSeqINSt7__cxx1112regex_traitsIcEEEESaIS5_EE9push_backERKS5_
FNDA:968,_ZNSt5dequeINSt8__detail9_StateSeqINSt7__cxx1112regex_traitsIcEEEESaIS5_EE9push_backEOS5_
FNDA:0,_ZNSt5dequeIlSaIlEE8pop_backEv
FNDA:2086,_ZNSt5dequeINSt8__detail9_StateSeqINSt7__cxx1112regex_traitsIcEEEESaIS5_EE8pop_backEv
FNDA:0,_ZNSt5dequeIlSaIlEE15_M_destroy_dataESt15_Deque_iteratorIlRlPlES5_RKS0_
FNDA:4,_ZNSt5dequeINSt8__detail9_StateSeqINSt7__cxx1112regex_traitsIcEEEESaIS5_EE15_M_destroy_dataESt15_Deque_iteratorIS5_RS5_PS5_ESB_RKS6_
FNDA:0,_ZNSt5dequeIlSaIlEE22_M_reserve_map_at_backEm
FNDA:0,_ZNSt5dequeINSt8__detail9_StateSeqINSt7__cxx1112regex_traitsIcEEEESaIS5_EE22_M_reserve_map_at_backEm
FNF:74
FNH:37
DA:89,24
DA:91,24
DA:126,8
DA:127,8
DA:146,8
DA:147,8
DA:149,2098
DA:151,2098
DA:158,2086
DA:159,2086
DA:186,2086
DA:188,2086
DA:190,0
DA:191,0
DA:193,2086
DA:194,2086
DA:252,8
DA:254,8
DA:255,8
DA:256,8
DA:257,8
DA:265,192
DA:267,192
DA:488,2
DA:489,2
DA:490,2
DA:509,2
DA:510,2
DA:512,2
DA:513,2
DA:514,2
DA:515,2
DA:517,2
DA:518,2
DA:519,4
DA:520,2
DA:548,4
DA:556,2
DA:558,2
DA:559,2
DA:569,2
DA:570,2
DA:571,2
DA:572,2
DA:575,2
DA:578,2
DA:579,2
DA:580,2
DA:581,2
DA:582,2
DA:586,6
DA:587,6
DA:590,8
DA:591,8
DA:594,8
DA:595,8
DA:598,4
DA:601,4
DA:605,4
DA:608,4
DA:609,4
DA:612,4
DA:614,8
DA:615,8
DA:619,4
DA:621,8
DA:622,4
DA:623,4
DA:659,4
DA:662,4
DA:664,4
DA:665,4
DA:666,4
DA:668,4
DA:680,4
DA:683,4
DA:684,4
DA:686,4
DA:687,8
DA:688,4
DA:696,4
DA:697,4
DA:700,4
DA:701,0
DA:703,0
DA:704,0
DA:705,0
DA:706,0
DA:709,4
DA:710,4
DA:711,4
DA:712,4
DA:713,8
DA:714,4
DA:715,4
DA:719,4
DA:725,8
DA:726,4
DA:728,0
DA:730,0
DA:731,0
DA:733,4
DA:737,4
DA:741,8
DA:742,4
DA:743,4
DA:883,2
DA:956,2
DA:957,2
DA:1038,4
DA:1039,4
DA:1158,4
DA:1159,4
DA:1175,2090
DA:1176,2090
DA:1349,192
DA:1350,192
DA:1453,2086
DA:1455,2086
DA:1456,2086
DA:1457,2086
DA:1516,1118
DA:1518,1118
DA:1519,1118
DA:1521,1118
DA:1523,1118
DA:1526,0
DA:1527,1118
DA:1531,968
DA:1532,968
DA:1570,2086
DA:1572,2086
DA:1573,2086
DA:1575,2086
DA:1576,2086
DA:1580,0
DA:1581,2086
DA:2033,4
DA:2038,4
DA:2114,0
DA:2116,0
DA:2117,0
DA:2118,0
DA:2119,0
LF:144
LH:127
end_of_record
SF:/usr/include/c++/5/bits/stl_function.h
FN:105,_ZNSt14unary_functionIcbEC2Ev
FN:386,_ZNKSt4lessINSt7__cxx1112basic_stringIcSt11char_traitsIcESaIcEEEEclERKS5_S8_
FN:386,_ZNKSt4lessIN5Catch8TestCaseEEclERKS1_S4_
FN:386,_ZNKSt4lessIlEclERKlS2_
FN:386,_ZNKSt4lessIiEclERKiS2_
FN:874,_ZNKSt9_IdentityINSt7__cxx1112basic_stringIcSt11char_traitsIcESaIcEEEEclERS5_
FN:878,_ZNKSt9_IdentityIN5Catch8TestCaseEEclERKS1_
FN:878,_ZNKSt9_IdentityINSt7__cxx1112basic_stringIcSt11char_traitsIcESaIcEEEEclERKS5_
FN:891,_ZNKSt10_Select1stISt4pairIKNSt7__cxx1112basic_stringIcSt11char_traitsIcESaIcEEEN5Catch7TagInfoEEEclERKSA_
FN:891,_ZNKSt10_Select1stISt4pairIKNSt7__cxx1112basic_stringIcSt11char_traitsIcESaIcEEEN5Catch3PtrINS8_16IReporterFactoryEEEEEclERKSC_
FN:891,_ZNKSt10_Select1stISt4pairIKNSt7__cxx1112basic_stringIcSt11char_traitsIcESaIcEEEPN5Catch18IGeneratorsForTestEEEclERKSB_
FN:891,_ZNKSt10_Select1stISt4pairIKiN5Catch5Clara11CommandLineINS2_10ConfigDataEE3ArgEEEclERKS8_
FN:891,_ZNKSt10_Select1stISt4pairIKNSt7__cxx1112basic_stringIcSt11char_traitsIcESaIcEEEN5Catch8TagAliasEEEclERKSA_
FN:891,_ZNKSt10_Select1stISt4pairIKNSt7__cxx1112basic_stringIcSt11char_traitsIcESaIcEEEPN5Catch14IGeneratorInfoEEEclERKSB_
FN:891,_ZNKSt10_Select1stISt4pairIKllEEclERKS2_
FN:897,_ZNKSt10_Select1stISt4pairIKNSt7__cxx1112basic_stringIcSt11char_traitsIcESaIcEEEN5Catch8TagAliasEEEclIS0_IS6_S9_EEERNT_10first_typeERSE_
FN:897,_ZNKSt10_Select1stISt4pairIKNSt7__cxx1112basic_stringIcSt11char_traitsIcESaIcEEEPN5Catch14IGeneratorInfoEEEclIS0_IS6_SA_EEERNT_10first_typeERSF_
FN:897,_ZNKSt10_Select1stISt4pairIKNSt7__cxx1112basic_stringIcSt11char_traitsIcESaIcEEEPN5Catch18IGeneratorsForTestEEEclIS0_IS6_SA_EEERNT_10first_typeERSF_
FN:897,_ZNKSt10_Select1stISt4pairIKNSt7__cxx1112basic_stringIcSt11char_traitsIcESaIcEEEN5Catch3PtrINS8_16IReporterFactoryEEEEEclIS0_IS6_SB_EEERNT_10first_typeERSG_
FN:897,_ZNKSt10_Select1stISt4pairIKNSt7__cxx1112basic_stringIcSt11char_traitsIcESaIcEEEN5Catch7TagInfoEEEclIS0_IS6_S9_EEERNT_10first_typeERSE_
FNDA:7612,_ZNSt14unary_functionIcbEC2Ev
FNDA:0,_ZNKSt4lessIlEclERKlS2_
FNDA:0,_ZNKSt4lessIiEclERKiS2_
FNDA:19,_ZNKSt4lessIN5Catch8TestCaseEEclERKS1_S4_
FNDA:24,_ZNKSt4lessINSt7__cxx1112basic_stringIcSt11char_traitsIcESaIcEEEEclERKS5_S8_
FNDA:0,_ZNKSt9_IdentityINSt7__cxx1112basic_stringIcSt11char_traitsIcESaIcEEEEclERS5_
FNDA:30,_ZNKSt9_IdentityIN5Catch8TestCaseEEclERKS1_
FNDA:24,_ZNKSt9_IdentityINSt7__cxx1112basic_stringIcSt11char_traitsIcESaIcEEEEclERKS5_
FNDA:0,_ZNKSt10_Select1stISt4pairIKllEEclERKS2_
FNDA:0,_ZNKSt10_Select1stISt4pairIKiN5Catch5Clara11CommandLineINS2_10ConfigDataEE3ArgEEEclERKS8_
FNDA:0,_ZNKSt10_Select1stISt4pairIKNSt7__cxx1112basic_stringIcSt11char_traitsIcESaIcEEEN5Catch8TagAliasEEEclERKSA_
FNDA:0,_ZNKSt10_Select1stISt4pairIKNSt7__cxx1112basic_stringIcSt11char_traitsIcESaIcEEEPN5Catch14IGeneratorInfoEEEclERKSB_
FNDA:0,_ZNKSt10_Select1stISt4pairIKNSt7__cxx1112basic_stringIcSt11char_traitsIcESaIcEEEPN5Catch18IGeneratorsForTestEEEclERKSB_
FNDA:12,_ZNKSt10_Select1stISt4pairIKNSt7__cxx1112basic_stringIcSt11char_traitsIcESaIcEEEN5Catch3PtrINS8_16IReporterFactoryEEEEEclERKSC_
FNDA:0,_ZNKSt10_Select1stISt4pairIKNSt7__cxx1112basic_stringIcSt11char_traitsIcESaIcEEEN5Catch7TagInfoEEEclERKSA_
FNDA:0,_ZNKSt10_Select1stISt4pairIKNSt7__cxx1112basic_stringIcSt11char_traitsIcESaIcEEEN5Catch8TagAliasEEEclIS0_IS6_S9_EEERNT_10first_typeERSE_
FNDA:0,_ZNKSt10_Select1stISt4pairIKNSt7__cxx1112basic_stringIcSt11char_traitsIcESaIcEEEPN5Catch14IGeneratorInfoEEEclIS0_IS6_SA_EEERNT_10first_typeERSF_
FNDA:0,_ZNKSt10_Select1stISt4pairIKNSt7__cxx1112basic_stringIcSt11char_traitsIcESaIcEEEPN5Catch18IGeneratorsForTestEEEclIS0_IS6_SA_EEERNT_10first_typeERSF_
FNDA:7,_ZNKSt10_Select1stISt4pairIKNSt7__cxx1112basic_stringIcSt11char_traitsIcESaIcEEEN5Catch3PtrINS8_16IReporterFactoryEEEEEclIS0_IS6_SB_EEERNT_10first_typeERSG_
FNDA:0,_ZNKSt10_Select1stISt4pairIKNSt7__cxx1112basic_stringIcSt11char_traitsIcESaIcEEEN5Catch7TagInfoEEEclIS0_IS6_S9_EEERNT_10first_typeERSE_
FNF:20
FNH:7
DA:105,7612
DA:386,43
DA:387,43
DA:874,0
DA:875,0
DA:878,54
DA:879,54
DA:891,12
DA:892,12
DA:897,7
DA:898,7
LF:11
LH:9
end_of_record
SF:/usr/include/c++/5/bits/stl_heap.h
FN:124,_ZSt11__push_heapIN9__gnu_cxx17__normal_iteratorIPN5Catch8TestCaseESt6vectorIS3_SaIS3_EEEElS3_NS0_5__ops14_Iter_less_valEEvT_T0_SC_T1_T2_
FN:124,_ZSt11__push_heapIN9__gnu_cxx17__normal_iteratorIPcSt6vectorIcSaIcEEEElcNS0_5__ops14_Iter_less_valEEvT_T0_SA_T1_T2_
FN:207,_ZSt13__adjust_heapIN9__gnu_cxx17__normal_iteratorIPcSt6vectorIcSaIcEEEElcNS0_5__ops15_Iter_less_iterEEvT_T0_SA_T1_T2_
FN:207,_ZSt13__adjust_heapIN9__gnu_cxx17__normal_iteratorIPN5Catch8TestCaseESt6vectorIS3_SaIS3_EEEElS3_NS0_5__ops15_Iter_less_iterEEvT_T0_SC_T1_T2_
FN:235,_ZSt10__pop_heapIN9__gnu_cxx17__normal_iteratorIPcSt6vectorIcSaIcEEEENS0_5__ops15_Iter_less_iterEEvT_S9_S9_T0_
FN:235,_ZSt10__pop_heapIN9__gnu_cxx17__normal_iteratorIPN5Catch8TestCaseESt6vectorIS3_SaIS3_EEEENS0_5__ops15_Iter_less_iterEEvT_SB_SB_T0_
FN:317,_ZSt11__make_heapIN9__gnu_cxx17__normal_iteratorIPcSt6vectorIcSaIcEEEENS0_5__ops15_Iter_less_iterEEvT_S9_T0_
FN:317,_ZSt11__make_heapIN9__gnu_cxx17__normal_iteratorIPN5Catch8TestCaseESt6vectorIS3_SaIS3_EEEENS0_5__ops15_Iter_less_iterEEvT_SB_T0_
FN:390,_ZSt11__sort_heapIN9__gnu_cxx17__normal_iteratorIPcSt6vectorIcSaIcEEEENS0_5__ops15_Iter_less_iterEEvT_S9_T0_
FN:390,_ZSt11__sort_heapIN9__gnu_cxx17__normal_iteratorIPN5Catch8TestCaseESt6vectorIS3_SaIS3_EEEENS0_5__ops15_Iter_less_iterEEvT_SB_T0_
FNDA:0,_ZSt11__push_heapIN9__gnu_cxx17__normal_iteratorIPcSt6vectorIcSaIcEEEElcNS0_5__ops14_Iter_less_valEEvT_T0_SA_T1_T2_
FNDA:0,_ZSt11__push_heapIN9__gnu_cxx17__normal_iteratorIPN5Catch8TestCaseESt6vectorIS3_SaIS3_EEEElS3_NS0_5__ops14_Iter_less_valEEvT_T0_SC_T1_T2_
FNDA:0,_ZSt13__adjust_heapIN9__gnu_cxx17__normal_iteratorIPcSt6vectorIcSaIcEEEElcNS0_5__ops15_Iter_less_iterEEvT_T0_SA_T1_T2_
FNDA:0,_ZSt13__adjust_heapIN9__gnu_cxx17__normal_iteratorIPN5Catch8TestCaseESt6vectorIS3_SaIS3_EEEElS3_NS0_5__ops15_Iter_less_iterEEvT_T0_SC_T1_T2_
FNDA:0,_ZSt10__pop_heapIN9__gnu_cxx17__normal_iteratorIPcSt6vectorIcSaIcEEEENS0_5__ops15_Iter_less_iterEEvT_S9_S9_T0_
FNDA:0,_ZSt10__pop_heapIN9__gnu_cxx17__normal_iteratorIPN5Catch8TestCaseESt6vectorIS3_SaIS3_EEEENS0_5__ops15_Iter_less_iterEEvT_SB_SB_T0_
FNDA:0,_ZSt11__make_heapIN9__gnu_cxx17__normal_iteratorIPcSt6vectorIcSaIcEEEENS0_5__ops15_Iter_less_iterEEvT_S9_T0_
FNDA:0,_ZSt11__make_heapIN9__gnu_cxx17__normal_iteratorIPN5Catch8TestCaseESt6vectorIS3_SaIS3_EEEENS0_5__ops15_Iter_less_iterEEvT_SB_T0_
FNDA:0,_ZSt11__sort_heapIN9__gnu_cxx17__normal_iteratorIPcSt6vectorIcSaIcEEEENS0_5__ops15_Iter_less_iterEEvT_S9_T0_
FNDA:0,_ZSt11__sort_heapIN9__gnu_cxx17__normal_iteratorIPN5Catch8TestCaseESt6vectorIS3_SaIS3_EEEENS0_5__ops15_Iter_less_iterEEvT_SB_T0_
FNF:10
FNH:0
DA:124,0
DA:128,0
DA:129,0
DA:131,0
DA:132,0
DA:133,0
DA:135,0
DA:136,0
DA:207,0
DA:210,0
DA:211,0
DA:212,0
DA:214,0
DA:215,0
DA:217,0
DA:218,0
DA:219,0
DA:221,0
DA:223,0
DA:224,0
DA:226,0
DA:228,0
DA:229,0
DA:230,0
DA:231,0
DA:235,0
DA:243,0
DA:244,0
DA:245,0
DA:247,0
DA:248,0
DA:317,0
DA:325,0
DA:326,0
DA:328,0
DA:329,0
DA:330,0
DA:332,0
DA:333,0
DA:335,0
DA:336,0
DA:337,0
DA:390,0
DA:393,0
DA:395,0
DA:396,0
DA:398,0
LF:47
LH:0
end_of_record
SF:/usr/include/c++/5/bits/stl_iterator.h
FN:127,_ZNSt16reverse_iteratorIN9__gnu_cxx17__normal_iteratorIPN5Catch14SectionEndInfoESt6vectorIS3_SaIS3_EEEEEC2ES8_
FN:132,_ZNSt16reverse_iteratorIN9__gnu_cxx17__normal_iteratorIPKcNSt7__cxx1112basic_stringIcSt11char_traitsIcESaIcEEEEEEC2ERKSB_
FN:140,_ZNSt16reverse_iteratorIN9__gnu_cxx17__normal_iteratorIPKN5Catch14SectionEndInfoESt6vectorIS3_SaIS3_EEEEEC2INS1_IPS3_S8_EEEERKS_IT_E
FN:147,_ZNKSt16reverse_iteratorIN9__gnu_cxx17__normal_iteratorIPKN5Catch14SectionEndInfoESt6vectorIS3_SaIS3_EEEEE4baseEv
FN:147,_ZNKSt16reverse_iteratorIN9__gnu_cxx17__normal_iteratorIPKcNSt7__cxx1112basic_stringIcSt11char_traitsIcESaIcEEEEEE4baseEv
FN:147,_ZNKSt16reverse_iteratorIN9__gnu_cxx17__normal_iteratorIPN5Catch14SectionEndInfoESt6vectorIS3_SaIS3_EEEEE4baseEv
FN:161,_ZNKSt16reverse_iteratorIN9__gnu_cxx17__normal_iteratorIPKN5Catch14SectionEndInfoESt6vectorIS3_SaIS3_EEEEEdeEv
FN:161,_ZNKSt16reverse_iteratorIN9__gnu_cxx17__normal_iteratorIPKcNSt7__cxx1112basic_stringIcSt11char_traitsIcESaIcEEEEEEdeEv
FN:182,_ZNSt16reverse_iteratorIN9__gnu_cxx17__normal_iteratorIPKcNSt7__cxx1112basic_stringIcSt11char_traitsIcESaIcEEEEEEppEv
FN:182,_ZNSt16reverse_iteratorIN9__gnu_cxx17__normal_iteratorIPKN5Catch14SectionEndInfoESt6vectorIS3_SaIS3_EEEEEppEv
FN:292,_ZSteqIN9__gnu_cxx17__normal_iteratorIPKcNSt7__cxx1112basic_stringIcSt11char_traitsIcESaIcEEEEEEbRKSt16reverse_iteratorIT_ESF_
FN:292,_ZSteqIN9__gnu_cxx17__normal_iteratorIPKN5Catch14SectionEndInfoESt6vectorIS3_SaIS3_EEEEEbRKSt16reverse_iteratorIT_ESE_
FN:304,_ZStneIN9__gnu_cxx17__normal_iteratorIPKcNSt7__cxx1112basic_stringIcSt11char_traitsIcESaIcEEEEEEbRKSt16reverse_iteratorIT_ESF_
FN:304,_ZStneIN9__gnu_cxx17__normal_iteratorIPKN5Catch14SectionEndInfoESt6vectorIS3_SaIS3_EEEEEbRKSt16reverse_iteratorIT_ESE_
FN:736,_ZN9__gnu_cxx17__normal_iteratorIPKcNSt7__cxx1112basic_stringIcSt11char_traitsIcESaIcEEEEC2Ev
FN:740,_ZN9__gnu_cxx17__normal_iteratorIPKN5Catch8TestSpec6FilterESt6vectorIS3_SaIS3_EEEC2ERKS5_
FN:740,_ZN9__gnu_cxx17__normal_iteratorIPKN5Catch14SectionEndInfoESt6vectorIS2_SaIS2_EEEC2ERKS4_
FN:740,_ZN9__gnu_cxx17__normal_iteratorIPKN5Catch3PtrINS1_16IReporterFactoryEEESt6vectorIS4_SaIS4_EEEC2ERKS6_
FN:740,_ZN9__gnu_cxx17__normal_iteratorIPKNSt7__cxx1112regex_traitsIcE10_RegexMaskESt6vectorIS4_SaIS4_EEEC2ERKS6_
FN:740,_ZN9__gnu_cxx17__normal_iteratorIPN5Catch14SectionEndInfoESt6vectorIS2_SaIS2_EEEC2ERKS3_
FN:740,_ZN9__gnu_cxx17__normal_iteratorIPKcSt6vectorIcSaIcEEEC2ERKS2_
FN:740,_ZN9__gnu_cxx17__normal_iteratorIPKN5Catch3PtrINS1_8TestSpec7PatternEEESt6vectorIS5_SaIS5_EEEC2ERKS7_
FN:740,_ZN9__gnu_cxx17__normal_iteratorIPN5Catch3PtrINS1_22CumulativeReporterBase11SectionNodeEEESt6vectorIS5_SaIS5_EEEC2ERKS6_
FN:740,_ZN9__gnu_cxx17__normal_iteratorIPN5Catch3PtrINS1_18IStreamingReporterEEESt6vectorIS4_SaIS4_EEEC2ERKS5_
FN:740,_ZN9__gnu_cxx17__normal_iteratorIPNSt7__cxx1112basic_stringIcSt11char_traitsIcESaIcEEESt6vectorIS6_SaIS6_EEEC2ERKS7_
FN:740,_ZN9__gnu_cxx17__normal_iteratorIPKNSt7__cxx1112basic_stringIcSt11char_traitsIcESaIcEEESt6vectorIS6_SaIS6_EEEC2ERKS8_
FN:740,_ZN9__gnu_cxx17__normal_iteratorIPKcNSt7__cxx1112basic_stringIcSt11char_traitsIcESaIcEEEEC2ERKS2_
FN:740,_ZN9__gnu_cxx17__normal_iteratorIPKN5Catch15ConsoleReporter13SummaryColumnESt6vectorIS3_SaIS3_EEEC2ERKS5_
FN:740,_ZN9__gnu_cxx17__normal_iteratorIPKP4UserSt6vectorIS2_SaIS2_EEEC2ERKS4_
FN:740,_ZN9__gnu_cxx17__normal_iteratorIPKN5Catch8TestCaseESt6vectorIS2_SaIS2_EEEC2ERKS4_
FN:740,_ZN9__gnu_cxx17__normal_iteratorIPKSt4pairIlSt6vectorINSt7__cxx119sub_matchINS0_IPKcNS3_12basic_stringIcSt11char_traitsIcESaIcEEEEEEESaISD_EEES2_ISG_SaISG_EEEC2ERKSI_
FN:740,_ZN9__gnu_cxx17__normal_iteratorIPPN5Catch16TestCaseTracking8ITrackerESt6vectorIS4_SaIS4_EEEC2ERKS5_
FN:740,_ZN9__gnu_cxx17__normal_iteratorIPN5Catch11SectionInfoESt6vectorIS2_SaIS2_EEEC2ERKS3_
FN:740,_ZN9__gnu_cxx17__normal_iteratorIPKN5Catch11SectionInfoESt6vectorIS2_SaIS2_EEEC2ERKS4_
FN:740,_ZN9__gnu_cxx17__normal_iteratorIPKN5Catch3PtrINS1_22CumulativeReporterBase11SectionNodeEEESt6vectorIS5_SaIS5_EEEC2ERKS7_
FN:740,_ZN9__gnu_cxx17__normal_iteratorIPNSt8__detail6_StateINSt7__cxx1112regex_traitsIcEEEESt6vectorIS6_SaIS6_EEEC2ERKS7_
FN:740,_ZN9__gnu_cxx17__normal_iteratorIPKN5Catch5Clara6Parser5TokenESt6vectorIS4_SaIS4_EEEC2ERKS6_
FN:740,_ZN9__gnu_cxx17__normal_iteratorIPKPN5Catch16TestCaseTracking8ITrackerESt6vectorIS4_SaIS4_EEEC2ERKS6_
FN:740,_ZN9__gnu_cxx17__normal_iteratorIPKN5Catch3PtrINS1_16TestCaseTracking8ITrackerEEESt6vectorIS5_SaIS5_EEEC2ERKS7_
FN:740,_ZN9__gnu_cxx17__normal_iteratorIPmSt6vectorImSaImEEEC2ERKS1_
FN:740,_ZN9__gnu_cxx17__normal_iteratorIPcSt6vectorIcSaIcEEEC2ERKS1_
FN:740,_ZN9__gnu_cxx17__normal_iteratorIPN5Catch11MessageInfoESt6vectorIS2_SaIS2_EEEC2ERKS3_
FN:740,_ZN9__gnu_cxx17__normal_iteratorIPKSt4pairINSt7__cxx1112basic_stringIcSt11char_traitsIcESaIcEEES7_ESt6vectorIS8_SaIS8_EEEC2ERKSA_
FN:740,_ZN9__gnu_cxx17__normal_iteratorIPKN5Catch5Clara11CommandLineINS1_10ConfigDataEE3ArgESt6vectorIS6_SaIS6_EEEC2ERKS8_
FN:740,_ZN9__gnu_cxx17__normal_iteratorIPPN5Catch14IGeneratorInfoESt6vectorIS3_SaIS3_EEEC2ERKS4_
FN:740,_ZN9__gnu_cxx17__normal_iteratorIPN5Catch8TestCaseESt6vectorIS2_SaIS2_EEEC2ERKS3_
FN:740,_ZN9__gnu_cxx17__normal_iteratorIPN5Catch14AssertionStatsESt6vectorIS2_SaIS2_EEEC2ERKS3_
FN:740,_ZN9__gnu_cxx17__normal_iteratorIPKNSt7__cxx119sub_matchINS0_IPKcNS1_12basic_stringIcSt11char_traitsIcESaIcEEEEEEESt6vectorISB_SaISB_EEEC2ERKSD_
FN:740,_ZN9__gnu_cxx17__normal_iteratorIPSt4pairIlSt6vectorINSt7__cxx119sub_matchINS0_IPKcNS3_12basic_stringIcSt11char_traitsIcESaIcEEEEEEESaISD_EEES2_ISG_SaISG_EEEC2ERKSH_
FN:740,_ZN9__gnu_cxx17__normal_iteratorIPN5Catch3PtrINS1_16IReporterFactoryEEESt6vectorIS4_SaIS4_EEEC2ERKS5_
FN:740,_ZN9__gnu_cxx17__normal_iteratorIPPKN5Catch20IExceptionTranslatorESt6vectorIS4_SaIS4_EEEC2ERKS5_
FN:740,_ZN9__gnu_cxx17__normal_iteratorIPKN5Catch3PtrINS1_22CumulativeReporterBase4NodeINS1_13TestCaseStatsENS3_11SectionNodeEEEEESt6vectorIS8_SaIS8_EEEC2ERKSA_
FN:740,_ZN9__gnu_cxx17__normal_iteratorIPN5Catch3PtrINS1_16TestCaseTracking8ITrackerEEESt6vectorIS5_SaIS5_EEEC2ERKS6_
FN:740,_ZN9__gnu_cxx17__normal_iteratorIPNSt7__cxx119sub_matchINS0_IPKcNS1_12basic_stringIcSt11char_traitsIcESaIcEEEEEEESt6vectorISB_SaISB_EEEC2ERKSC_
FN:740,_ZN9__gnu_cxx17__normal_iteratorIPN5Catch3PtrINS1_22CumulativeReporterBase4NodeINS1_14TestGroupStatsENS4_INS1_13TestCaseStatsENS3_11SectionNodeEEEEEEESt6vectorISA_SaISA_EEEC2ERKSB_
FN:740,_ZN9__gnu_cxx17__normal_iteratorIPK3JobSt6vectorIS1_SaIS1_EEEC2ERKS3_
FN:740,_ZN9__gnu_cxx17__normal_iteratorIPKPKN5Catch20IExceptionTranslatorESt6vectorIS4_SaIS4_EEEC2ERKS6_
FN:740,_ZN9__gnu_cxx17__normal_iteratorIPKSt4pairIccESt6vectorIS2_SaIS2_EEEC2ERKS4_
FN:740,_ZN9__gnu_cxx17__normal_iteratorIPKN5Catch11MessageInfoESt6vectorIS2_SaIS2_EEEC2ERKS4_
FN:740,_ZN9__gnu_cxx17__normal_iteratorIPN5Catch5Clara11CommandLineINS1_10ConfigDataEE3ArgESt6vectorIS6_SaIS6_EEEC2ERKS7_
FN:740,_ZN9__gnu_cxx17__normal_iteratorIPKN5Catch14AssertionStatsESt6vectorIS2_SaIS2_EEEC2ERKS4_
FN:745,_ZN9__gnu_cxx17__normal_iteratorIPKN5Catch3PtrINS1_22CumulativeReporterBase11SectionNodeEEESt6vectorIS5_SaIS5_EEEC2IPS5_EERKNS0_IT_NS_11__enable_ifIXsrSt10__are_sameISE_SD_E7__valueESA_E6__typeEEE
FN:745,_ZN9__gnu_cxx17__normal_iteratorIPKPKN5Catch20IExceptionTranslatorESt6vectorIS4_SaIS4_EEEC2IPS4_EERKNS0_IT_NS_11__enable_ifIXsrSt10__are_sameISD_SC_E7__valueES9_E6__typeEEE
FN:745,_ZN9__gnu_cxx17__normal_iteratorIPKN5Catch3PtrINS1_16IReporterFactoryEEESt6vectorIS4_SaIS4_EEEC2IPS4_EERKNS0_IT_NS_11__enable_ifIXsrSt10__are_sameISD_SC_E7__valueES9_E6__typeEEE
FN:745,_ZN9__gnu_cxx17__normal_iteratorIPKN5Catch14SectionEndInfoESt6vectorIS2_SaIS2_EEEC2IPS2_EERKNS0_IT_NS_11__enable_ifIXsrSt10__are_sameISB_SA_E7__valueES7_E6__typeEEE
FN:745,_ZN9__gnu_cxx17__normal_iteratorIPKN5Catch3PtrINS1_18IStreamingReporterEEESt6vectorIS4_SaIS4_EEEC2IPS4_EERKNS0_IT_NS_11__enable_ifIXsrSt10__are_sameISD_SC_E7__valueES9_E6__typeEEE
FN:745,_ZN9__gnu_cxx17__normal_iteratorIPKN5Catch11MessageInfoESt6vectorIS2_SaIS2_EEEC2IPS2_EERKNS0_IT_NS_11__enable_ifIXsrSt10__are_sameISB_SA_E7__valueES7_E6__typeEEE
FN:745,_ZN9__gnu_cxx17__normal_iteratorIPKcSt6vectorIcSaIcEEEC2IPcEERKNS0_IT_NS_11__enable_ifIXsrSt10__are_sameIS9_S8_E7__valueES5_E6__typeEEE
FN:745,_ZN9__gnu_cxx17__normal_iteratorIPKN5Catch8TestCaseESt6vectorIS2_SaIS2_EEEC2IPS2_EERKNS0_IT_NS_11__enable_ifIXsrSt10__are_sameISB_SA_E7__valueES7_E6__typeEEE
FN:745,_ZN9__gnu_cxx17__normal_iteratorIPKNSt7__cxx1112basic_stringIcSt11char_traitsIcESaIcEEESt6vectorIS6_SaIS6_EEEC2IPS6_EERKNS0_IT_NS_11__enable_ifIXsrSt10__are_sameISF_SE_E7__valueESB_E6__typeEEE
FN:745,_ZN9__gnu_cxx17__normal_iteratorIPKN5Catch11SectionInfoESt6vectorIS2_SaIS2_EEEC2IPS2_EERKNS0_IT_NS_11__enable_ifIXsrSt10__are_sameISB_SA_E7__valueES7_E6__typeEEE
FN:745,_ZN9__gnu_cxx17__normal_iteratorIPKN5Catch3PtrINS1_16TestCaseTracking8ITrackerEEESt6vectorIS5_SaIS5_EEEC2IPS5_EERKNS0_IT_NS_11__enable_ifIXsrSt10__are_sameISE_SD_E7__valueESA_E6__typeEEE
FN:745,_ZN9__gnu_cxx17__normal_iteratorIPKPN5Catch14IGeneratorInfoESt6vectorIS3_SaIS3_EEEC2IPS3_EERKNS0_IT_NS_11__enable_ifIXsrSt10__are_sameISC_SB_E7__valueES8_E6__typeEEE
FN:753,_ZNK9__gnu_cxx17__normal_iteratorIPK3JobSt6vectorIS1_SaIS1_EEEdeEv
FN:753,_ZNK9__gnu_cxx17__normal_iteratorIPKPKN5Catch20IExceptionTranslatorESt6vectorIS4_SaIS4_EEEdeEv
FN:753,_ZNK9__gnu_cxx17__normal_iteratorIPKN5Catch14AssertionStatsESt6vectorIS2_SaIS2_EEEdeEv
FN:753,_ZNK9__gnu_cxx17__normal_iteratorIPKNSt7__cxx1112basic_stringIcSt11char_traitsIcESaIcEEESt6vectorIS6_SaIS6_EEEdeEv
FN:753,_ZNK9__gnu_cxx17__normal_iteratorIPKcNSt7__cxx1112basic_stringIcSt11char_traitsIcESaIcEEEEdeEv
FN:753,_ZNK9__gnu_cxx17__normal_iteratorIPmSt6vectorImSaImEEEdeEv
FN:753,_ZNK9__gnu_cxx17__normal_iteratorIPN5Catch11MessageInfoESt6vectorIS2_SaIS2_EEEdeEv
FN:753,_ZNK9__gnu_cxx17__normal_iteratorIPN5Catch8TestCaseESt6vectorIS2_SaIS2_EEEdeEv
FN:753,_ZNK9__gnu_cxx17__normal_iteratorIPKNSt7__cxx119sub_matchINS0_IPKcNS1_12basic_stringIcSt11char_traitsIcESaIcEEEEEEESt6vectorISB_SaISB_EEEdeEv
FN:753,_ZNK9__gnu_cxx17__normal_iteratorIPKN5Catch11MessageInfoESt6vectorIS2_SaIS2_EEEdeEv
FN:753,_ZNK9__gnu_cxx17__normal_iteratorIPPN5Catch16TestCaseTracking8ITrackerESt6vectorIS4_SaIS4_EEEdeEv
FN:753,_ZNK9__gnu_cxx17__normal_iteratorIPKN5Catch14SectionEndInfoESt6vectorIS2_SaIS2_EEEdeEv
FN:753,_ZNK9__gnu_cxx17__normal_iteratorIPKN5Catch3PtrINS1_16IReporterFactoryEEESt6vectorIS4_SaIS4_EEEdeEv
FN:753,_ZNK9__gnu_cxx17__normal_iteratorIPN5Catch3PtrINS1_22CumulativeReporterBase11SectionNodeEEESt6vectorIS5_SaIS5_EEEdeEv
FN:753,_ZNK9__gnu_cxx17__normal_iteratorIPKN5Catch3PtrINS1_22CumulativeReporterBase4NodeINS1_13TestCaseStatsENS3_11SectionNodeEEEEESt6vectorIS8_SaIS8_EEEdeEv
FN:753,_ZNK9__gnu_cxx17__normal_iteratorIPKN5Catch8TestSpec6FilterESt6vectorIS3_SaIS3_EEEdeEv
FN:753,_ZNK9__gnu_cxx17__normal_iteratorIPKSt4pairIccESt6vectorIS2_SaIS2_EEEdeEv
FN:753,_ZNK9__gnu_cxx17__normal_iteratorIPNSt7__cxx1112basic_stringIcSt11char_traitsIcESaIcEEESt6vectorIS6_SaIS6_EEEdeEv
FN:753,_ZNK9__gnu_cxx17__normal_iteratorIPcSt6vectorIcSaIcEEEdeEv
FN:753,_ZNK9__gnu_cxx17__normal_iteratorIPKPN5Catch14IGeneratorInfoESt6vectorIS3_SaIS3_EEEdeEv
FN:753,_ZNK9__gnu_cxx17__normal_iteratorIPKNSt7__cxx1112regex_traitsIcE10_RegexMaskESt6vectorIS4_SaIS4_EEEdeEv
FN:753,_ZNK9__gnu_cxx17__normal_iteratorIPKN5Catch3PtrINS1_22CumulativeReporterBase11SectionNodeEEESt6vectorIS5_SaIS5_EEEdeEv
FN:753,_ZNK9__gnu_cxx17__normal_iteratorIPNSt7__cxx119sub_matchINS0_IPKcNS1_12basic_stringIcSt11char_traitsIcESaIcEEEEEEESt6vectorISB_SaISB_EEEdeEv
FN:753,_ZNK9__gnu_cxx17__normal_iteratorIPSt4pairIlSt6vectorINSt7__cxx119sub_matchINS0_IPKcNS3_12basic_stringIcSt11char_traitsIcESaIcEEEEEEESaISD_EEES2_ISG_SaISG_EEEdeEv
FN:753,_ZNK9__gnu_cxx17__normal_iteratorIPKN5Catch3PtrINS1_8TestSpec7PatternEEESt6vectorIS5_SaIS5_EEEdeEv
FN:753,_ZNK9__gnu_cxx17__normal_iteratorIPN5Catch11SectionInfoESt6vectorIS2_SaIS2_EEEdeEv
FN:753,_ZNK9__gnu_cxx17__normal_iteratorIPKSt4pairINSt7__cxx1112basic_stringIcSt11char_traitsIcESaIcEEES7_ESt6vectorIS8_SaIS8_EEEdeEv
FN:753,_ZNK9__gnu_cxx17__normal_iteratorIPKN5Catch5Clara11CommandLineINS1_10ConfigDataEE3ArgESt6vectorIS6_SaIS6_EEEdeEv
FN:753,_ZNK9__gnu_cxx17__normal_iteratorIPKN5Catch5Clara6Parser5TokenESt6vectorIS4_SaIS4_EEEdeEv
FN:753,_ZNK9__gnu_cxx17__normal_iteratorIPN5Catch5Clara11CommandLineINS1_10ConfigDataEE3ArgESt6vectorIS6_SaIS6_EEEdeEv
FN:753,_ZNK9__gnu_cxx17__normal_iteratorIPKN5Catch3PtrINS1_18IStreamingReporterEEESt6vectorIS4_SaIS4_EEEdeEv
FN:753,_ZNK9__gnu_cxx17__normal_iteratorIPN5Catch3PtrINS1_16TestCaseTracking8ITrackerEEESt6vectorIS5_SaIS5_EEEdeEv
FN:753,_ZNK9__gnu_cxx17__normal_iteratorIPNSt8__detail6_StateINSt7__cxx1112regex_traitsIcEEEESt6vectorIS6_SaIS6_EEEdeEv
FN:753,_ZNK9__gnu_cxx17__normal_iteratorIPN5Catch3PtrINS1_22CumulativeReporterBase4NodeINS1_14TestGroupStatsENS4_INS1_13TestCaseStatsENS3_11SectionNodeEEEEEEESt6vectorISA_SaISA_EEEdeEv
FN:753,_ZNK9__gnu_cxx17__normal_iteratorIPKcSt6vectorIcSaIcEEEdeEv
FN:753,_ZNK9__gnu_cxx17__normal_iteratorIPcNSt7__cxx1112basic_stringIcSt11char_traitsIcESaIcEEEEdeEv
FN:753,_ZNK9__gnu_cxx17__normal_iteratorIPKN5Catch8TestCaseESt6vectorIS2_SaIS2_EEEdeEv
FN:753,_ZNK9__gnu_cxx17__normal_iteratorIPN5Catch14AssertionStatsESt6vectorIS2_SaIS2_EEEdeEv
FN:757,_ZNK9__gnu_cxx17__normal_iteratorIPNSt7__cxx1112basic_stringIcSt11char_traitsIcESaIcEEESt6vectorIS6_SaIS6_EEEptEv
FN:757,_ZNK9__gnu_cxx17__normal_iteratorIPKN5Catch15ConsoleReporter13SummaryColumnESt6vectorIS3_SaIS3_EEEptEv
FN:757,_ZNK9__gnu_cxx17__normal_iteratorIPKN5Catch8TestCaseESt6vectorIS2_SaIS2_EEEptEv
FN:757,_ZNK9__gnu_cxx17__normal_iteratorIPKN5Catch8TestSpec6FilterESt6vectorIS3_SaIS3_EEEptEv
FN:757,_ZNK9__gnu_cxx17__normal_iteratorIPKN5Catch5Clara11CommandLineINS1_10ConfigDataEE3ArgESt6vectorIS6_SaIS6_EEEptEv
FN:757,_ZNK9__gnu_cxx17__normal_iteratorIPKN5Catch3PtrINS1_16TestCaseTracking8ITrackerEEESt6vectorIS5_SaIS5_EEEptEv
FN:757,_ZNK9__gnu_cxx17__normal_iteratorIPKN5Catch11MessageInfoESt6vectorIS2_SaIS2_EEEptEv
FN:757,_ZNK9__gnu_cxx17__normal_iteratorIPKN5Catch11SectionInfoESt6vectorIS2_SaIS2_EEEptEv
FN:761,_ZN9__gnu_cxx17__normal_iteratorIPKPKN5Catch20IExceptionTranslatorESt6vectorIS4_SaIS4_EEEppEv
FN:761,_ZN9__gnu_cxx17__normal_iteratorIPKN5Catch8TestCaseESt6vectorIS2_SaIS2_EEEppEv
FN:761,_ZN9__gnu_cxx17__normal_iteratorIPNSt7__cxx1112basic_stringIcSt11char_traitsIcESaIcEEESt6vectorIS6_SaIS6_EEEppEv
FN:761,_ZN9__gnu_cxx17__normal_iteratorIPN5Catch3PtrINS1_22CumulativeReporterBase11SectionNodeEEESt6vectorIS5_SaIS5_EEEppEv
FN:761,_ZN9__gnu_cxx17__normal_iteratorIPN5Catch8TestCaseESt6vectorIS2_SaIS2_EEEppEv
FN:761,_ZN9__gnu_cxx17__normal_iteratorIPcNSt7__cxx1112basic_stringIcSt11char_traitsIcESaIcEEEEppEv
FN:761,_ZN9__gnu_cxx17__normal_iteratorIPKN5Catch11MessageInfoESt6vectorIS2_SaIS2_EEEppEv
FN:761,_ZN9__gnu_cxx17__normal_iteratorIPKSt4pairIccESt6vectorIS2_SaIS2_EEEppEv
FN:761,_ZN9__gnu_cxx17__normal_iteratorIPKNSt7__cxx1112regex_traitsIcE10_RegexMaskESt6vectorIS4_SaIS4_EEEppEv
FN:761,_ZN9__gnu_cxx17__normal_iteratorIPK3JobSt6vectorIS1_SaIS1_EEEppEv
FN:761,_ZN9__gnu_cxx17__normal_iteratorIPKNSt7__cxx1112basic_stringIcSt11char_traitsIcESaIcEEESt6vectorIS6_SaIS6_EEEppEv
FN:761,_ZN9__gnu_cxx17__normal_iteratorIPKNSt7__cxx119sub_matchINS0_IPKcNS1_12basic_stringIcSt11char_traitsIcESaIcEEEEEEESt6vectorISB_SaISB_EEEppEv
FN:761,_ZN9__gnu_cxx17__normal_iteratorIPKN5Catch14AssertionStatsESt6vectorIS2_SaIS2_EEEppEv
FN:761,_ZN9__gnu_cxx17__normal_iteratorIPKSt4pairINSt7__cxx1112basic_stringIcSt11char_traitsIcESaIcEEES7_ESt6vectorIS8_SaIS8_EEEppEv
FN:761,_ZN9__gnu_cxx17__normal_iteratorIPKcSt6vectorIcSaIcEEEppEv
FN:761,_ZN9__gnu_cxx17__normal_iteratorIPKPN5Catch14IGeneratorInfoESt6vectorIS3_SaIS3_EEEppEv
FN:761,_ZN9__gnu_cxx17__normal_iteratorIPKN5Catch8TestSpec6FilterESt6vectorIS3_SaIS3_EEEppEv
FN:761,_ZN9__gnu_cxx17__normal_iteratorIPNSt8__detail6_StateINSt7__cxx1112regex_traitsIcEEEESt6vectorIS6_SaIS6_EEEppEv
FN:761,_ZN9__gnu_cxx17__normal_iteratorIPKN5Catch3PtrINS1_22CumulativeReporterBase4NodeINS1_13TestCaseStatsENS3_11SectionNodeEEEEESt6vectorIS8_SaIS8_EEEppEv
FN:761,_ZN9__gnu_cxx17__normal_iteratorIPKN5Catch11SectionInfoESt6vectorIS2_SaIS2_EEEppEv
FN:761,_ZN9__gnu_cxx17__normal_iteratorIPKN5Catch5Clara6Parser5TokenESt6vectorIS4_SaIS4_EEEppEv
FN:761,_ZN9__gnu_cxx17__normal_iteratorIPKN5Catch3PtrINS1_22CumulativeReporterBase11SectionNodeEEESt6vectorIS5_SaIS5_EEEppEv
FN:761,_ZN9__gnu_cxx17__normal_iteratorIPN5Catch3PtrINS1_16TestCaseTracking8ITrackerEEESt6vectorIS5_SaIS5_EEEppEv
FN:761,_ZN9__gnu_cxx17__normal_iteratorIPcSt6vectorIcSaIcEEEppEv
FN:761,_ZN9__gnu_cxx17__normal_iteratorIPSt4pairIlSt6vectorINSt7__cxx119sub_matchINS0_IPKcNS3_12basic_stringIcSt11char_traitsIcESaIcEEEEEEESaISD_EEES2_ISG_SaISG_EEEppEv
FN:761,_ZN9__gnu_cxx17__normal_iteratorIPKcNSt7__cxx1112basic_stringIcSt11char_traitsIcESaIcEEEEppEv
FN:761,_ZN9__gnu_cxx17__normal_iteratorIPKN5Catch3PtrINS1_18IStreamingReporterEEESt6vectorIS4_SaIS4_EEEppEv
FN:761,_ZN9__gnu_cxx17__normal_iteratorIPKN5Catch3PtrINS1_16IReporterFactoryEEESt6vectorIS4_SaIS4_EEEppEv
FN:761,_ZN9__gnu_cxx17__normal_iteratorIPN5Catch11MessageInfoESt6vectorIS2_SaIS2_EEEppEv
FN:761,_ZN9__gnu_cxx17__normal_iteratorIPNSt7__cxx119sub_matchINS0_IPKcNS1_12basic_stringIcSt11char_traitsIcESaIcEEEEEEESt6vectorISB_SaISB_EEEppEv
FN:761,_ZN9__gnu_cxx17__normal_iteratorIPmSt6vectorImSaImEEEppEv
FN:761,_ZN9__gnu_cxx17__normal_iteratorIPKN5Catch5Clara11CommandLineINS1_10ConfigDataEE3ArgESt6vectorIS6_SaIS6_EEEppEv
FN:761,_ZN9__gnu_cxx17__normal_iteratorIPKN5Catch3PtrINS1_8TestSpec7PatternEEESt6vectorIS5_SaIS5_EEEppEv
FN:761,_ZN9__gnu_cxx17__normal_iteratorIPKN5Catch15ConsoleReporter13SummaryColumnESt6vectorIS3_SaIS3_EEEppEv
FN:773,_ZN9__gnu_cxx17__normal_iteratorIPKcNSt7__cxx1112basic_stringIcSt11char_traitsIcESaIcEEEEmmEv
FN:773,_ZN9__gnu_cxx17__normal_iteratorIPN5Catch8TestCaseESt6vectorIS2_SaIS2_EEEmmEv
FN:773,_ZN9__gnu_cxx17__normal_iteratorIPKN5Catch14SectionEndInfoESt6vectorIS2_SaIS2_EEEmmEv
FN:773,_ZN9__gnu_cxx17__normal_iteratorIPcSt6vectorIcSaIcEEEmmEv
FN:789,_ZN9__gnu_cxx17__normal_iteratorIPKcNSt7__cxx1112basic_stringIcSt11char_traitsIcESaIcEEEEpLEl
FN:789,_ZN9__gnu_cxx17__normal_iteratorIPKNSt7__cxx1112basic_stringIcSt11char_traitsIcESaIcEEESt6vectorIS6_SaIS6_EEEpLEl
FN:789,_ZN9__gnu_cxx17__normal_iteratorIPKcSt6vectorIcSaIcEEEpLEl
FN:793,_ZNK9__gnu_cxx17__normal_iteratorIPN5Catch11SectionInfoESt6vectorIS2_SaIS2_EEEplEl
FN:793,_ZNK9__gnu_cxx17__normal_iteratorIPN5Catch8TestCaseESt6vectorIS2_SaIS2_EEEplEl
FN:793,_ZNK9__gnu_cxx17__normal_iteratorIPKPKN5Catch20IExceptionTranslatorESt6vectorIS4_SaIS4_EEEplEl
FN:793,_ZNK9__gnu_cxx17__normal_iteratorIPcSt6vectorIcSaIcEEEplEl
FN:793,_ZNK9__gnu_cxx17__normal_iteratorIPNSt7__cxx1112basic_stringIcSt11char_traitsIcESaIcEEESt6vectorIS6_SaIS6_EEEplEl
FN:793,_ZNK9__gnu_cxx17__normal_iteratorIPKcNSt7__cxx1112basic_stringIcSt11char_traitsIcESaIcEEEEplEl
FN:793,_ZNK9__gnu_cxx17__normal_iteratorIPN5Catch11MessageInfoESt6vectorIS2_SaIS2_EEEplEl
FN:801,_ZNK9__gnu_cxx17__normal_iteratorIPcSt6vectorIcSaIcEEEmiEl
FN:801,_ZNK9__gnu_cxx17__normal_iteratorIPmSt6vectorImSaImEEEmiEl
FN:801,_ZNK9__gnu_cxx17__normal_iteratorIPN5Catch8TestCaseESt6vectorIS2_SaIS2_EEEmiEl
FN:801,_ZNK9__gnu_cxx17__normal_iteratorIPN5Catch3PtrINS1_16TestCaseTracking8ITrackerEEESt6vectorIS5_SaIS5_EEEmiEl
FN:801,_ZNK9__gnu_cxx17__normal_iteratorIPN5Catch3PtrINS1_22CumulativeReporterBase11SectionNodeEEESt6vectorIS5_SaIS5_EEEmiEl
FN:801,_ZNK9__gnu_cxx17__normal_iteratorIPPN5Catch16TestCaseTracking8ITrackerESt6vectorIS4_SaIS4_EEEmiEl
FN:801,_ZNK9__gnu_cxx17__normal_iteratorIPN5Catch5Clara11CommandLineINS1_10ConfigDataEE3ArgESt6vectorIS6_SaIS6_EEEmiEl
FN:801,_ZNK9__gnu_cxx17__normal_iteratorIPKcNSt7__cxx1112basic_stringIcSt11char_traitsIcESaIcEEEEmiEl
FN:801,_ZNK9__gnu_cxx17__normal_iteratorIPN5Catch14AssertionStatsESt6vectorIS2_SaIS2_EEEmiEl
FN:801,_ZNK9__gnu_cxx17__normal_iteratorIPNSt7__cxx1112basic_stringIcSt11char_traitsIcESaIcEEESt6vectorIS6_SaIS6_EEEmiEl
FN:801,_ZNK9__gnu_cxx17__normal_iteratorIPN5Catch11SectionInfoESt6vectorIS2_SaIS2_EEEmiEl
FN:801,_ZNK9__gnu_cxx17__normal_iteratorIPN5Catch3PtrINS1_22CumulativeReporterBase4NodeINS1_14TestGroupStatsENS4_INS1_13TestCaseStatsENS3_11SectionNodeEEEEEEESt6vectorISA_SaISA_EEEmiEl
FN:805,_ZNK9__gnu_cxx17__normal_iteratorIPN5Catch3PtrINS1_16IReporterFactoryEEESt6vectorIS4_SaIS4_EEE4baseEv
FN:805,_ZNK9__gnu_cxx17__normal_iteratorIPKN5Catch3PtrINS1_8TestSpec7PatternEEESt6vectorIS5_SaIS5_EEE4baseEv
FN:805,_ZNK9__gnu_cxx17__normal_iteratorIPKNSt7__cxx1112regex_traitsIcE10_RegexMaskESt6vectorIS4_SaIS4_EEE4baseEv
FN:805,_ZNK9__gnu_cxx17__normal_iteratorIPKN5Catch11MessageInfoESt6vectorIS2_SaIS2_EEE4baseEv
FN:805,_ZNK9__gnu_cxx17__normal_iteratorIPSt4pairIlSt6vectorINSt7__cxx119sub_matchINS0_IPKcNS3_12basic_stringIcSt11char_traitsIcESaIcEEEEEEESaISD_EEES2_ISG_SaISG_EEE4baseEv
FN:805,_ZNK9__gnu_cxx17__normal_iteratorIPmSt6vectorImSaImEEE4baseEv
FN:805,_ZNK9__gnu_cxx17__normal_iteratorIPKP4UserSt6vectorIS2_SaIS2_EEE4baseEv
FN:805,_ZNK9__gnu_cxx17__normal_iteratorIPKN5Catch5Clara11CommandLineINS1_10ConfigDataEE3ArgESt6vectorIS6_SaIS6_EEE4baseEv
FN:805,_ZNK9__gnu_cxx17__normal_iteratorIPKPKN5Catch20IExceptionTranslatorESt6vectorIS4_SaIS4_EEE4baseEv
FN:805,_ZNK9__gnu_cxx17__normal_iteratorIPKcNSt7__cxx1112basic_stringIcSt11char_traitsIcESaIcEEEE4baseEv
FN:805,_ZNK9__gnu_cxx17__normal_iteratorIPKN5Catch15ConsoleReporter13SummaryColumnESt6vectorIS3_SaIS3_EEE4baseEv
FN:805,_ZNK9__gnu_cxx17__normal_iteratorIPKN5Catch3PtrINS1_16IReporterFactoryEEESt6vectorIS4_SaIS4_EEE4baseEv
FN:805,_ZNK9__gnu_cxx17__normal_iteratorIPKPN5Catch16TestCaseTracking8ITrackerESt6vectorIS4_SaIS4_EEE4baseEv
FN:805,_ZNK9__gnu_cxx17__normal_iteratorIPPN5Catch14IGeneratorInfoESt6vectorIS3_SaIS3_EEE4baseEv
FN:805,_ZNK9__gnu_cxx17__normal_iteratorIPN5Catch8TestCaseESt6vectorIS2_SaIS2_EEE4baseEv
FN:805,_ZNK9__gnu_cxx17__normal_iteratorIPKN5Catch14SectionEndInfoESt6vectorIS2_SaIS2_EEE4baseEv
FN:805,_ZNK9__gnu_cxx17__normal_iteratorIPKSt4pairIccESt6vectorIS2_SaIS2_EEE4baseEv
FN:805,_ZNK9__gnu_cxx17__normal_iteratorIPNSt8__detail6_StateINSt7__cxx1112regex_traitsIcEEEESt6vectorIS6_SaIS6_EEE4baseEv
FN:805,_ZNK9__gnu_cxx17__normal_iteratorIPKN5Catch3PtrINS1_22CumulativeReporterBase4NodeINS1_13TestCaseStatsENS3_11SectionNodeEEEEESt6vectorIS8_SaIS8_EEE4baseEv
FN:805,_ZNK9__gnu_cxx17__normal_iteratorIPKN5Catch14AssertionStatsESt6vectorIS2_SaIS2_EEE4baseEv
FN:805,_ZNK9__gnu_cxx17__normal_iteratorIPKPN5Catch14IGeneratorInfoESt6vectorIS3_SaIS3_EEE4baseEv
FN:805,_ZNK9__gnu_cxx17__normal_iteratorIPKNSt7__cxx119sub_matchINS0_IPKcNS1_12basic_stringIcSt11char_traitsIcESaIcEEEEEEESt6vectorISB_SaISB_EEE4baseEv
FN:805,_ZNK9__gnu_cxx17__normal_iteratorIPNSt7__cxx1112basic_stringIcSt11char_traitsIcESaIcEEESt6vectorIS6_SaIS6_EEE4baseEv
FN:805,_ZNK9__gnu_cxx17__normal_iteratorIPNSt7__cxx119sub_matchINS0_IPKcNS1_12basic_stringIcSt11char_traitsIcESaIcEEEEEEESt6vectorISB_SaISB_EEE4baseEv
FN:805,_ZNK9__gnu_cxx17__normal_iteratorIPN5Catch3PtrINS1_18IStreamingReporterEEESt6vectorIS4_SaIS4_EEE4baseEv
FN:805,_ZNK9__gnu_cxx17__normal_iteratorIPKSt4pairIlSt6vectorINSt7__cxx119sub_matchINS0_IPKcNS3_12basic_stringIcSt11char_traitsIcESaIcEEEEEEESaISD_EEES2_ISG_SaISG_EEE4baseEv
FN:805,_ZNK9__gnu_cxx17__normal_iteratorIPN5Catch14SectionEndInfoESt6vectorIS2_SaIS2_EEE4baseEv
FN:805,_ZNK9__gnu_cxx17__normal_iteratorIPK3JobSt6vectorIS1_SaIS1_EEE4baseEv
FN:805,_ZNK9__gnu_cxx17__normal_iteratorIPKN5Catch8TestSpec6FilterESt6vectorIS3_SaIS3_EEE4baseEv
FN:805,_ZNK9__gnu_cxx17__normal_iteratorIPPKN5Catch20IExceptionTranslatorESt6vectorIS4_SaIS4_EEE4baseEv
FN:805,_ZNK9__gnu_cxx17__normal_iteratorIPKNSt7__cxx1112basic_stringIcSt11char_traitsIcESaIcEEESt6vectorIS6_SaIS6_EEE4baseEv
FN:805,_ZNK9__gnu_cxx17__normal_iteratorIPKcSt6vectorIcSaIcEEE4baseEv
FN:805,_ZNK9__gnu_cxx17__normal_iteratorIPKN5Catch3PtrINS1_18IStreamingReporterEEESt6vectorIS4_SaIS4_EEE4baseEv
FN:805,_ZNK9__gnu_cxx17__normal_iteratorIPKN5Catch11SectionInfoESt6vectorIS2_SaIS2_EEE4baseEv
FN:805,_ZNK9__gnu_cxx17__normal_iteratorIPN5Catch11MessageInfoESt6vectorIS2_SaIS2_EEE4baseEv
FN:805,_ZNK9__gnu_cxx17__normal_iteratorIPN5Catch3PtrINS1_22CumulativeReporterBase11SectionNodeEEESt6vectorIS5_SaIS5_EEE4baseEv
FN:805,_ZNK9__gnu_cxx17__normal_iteratorIPKSt4pairINSt7__cxx1112basic_stringIcSt11char_traitsIcESaIcEEES7_ESt6vectorIS8_SaIS8_EEE4baseEv
FN:805,_ZNK9__gnu_cxx17__normal_iteratorIPcNSt7__cxx1112basic_stringIcSt11char_traitsIcESaIcEEEE4baseEv
FN:805,_ZNK9__gnu_cxx17__normal_iteratorIPKN5Catch3PtrINS1_16TestCaseTracking8ITrackerEEESt6vectorIS5_SaIS5_EEE4baseEv
FN:805,_ZNK9__gnu_cxx17__normal_iteratorIPKN5Catch8TestCaseESt6vectorIS2_SaIS2_EEE4baseEv
FN:805,_ZNK9__gnu_cxx17__normal_iteratorIPcSt6vectorIcSaIcEEE4baseEv
FN:805,_ZNK9__gnu_cxx17__normal_iteratorIPN5Catch11SectionInfoESt6vectorIS2_SaIS2_EEE4baseEv
FN:805,_ZNK9__gnu_cxx17__normal_iteratorIPKN5Catch5Clara6Parser5TokenESt6vectorIS4_SaIS4_EEE4baseEv
FN:805,_ZNK9__gnu_cxx17__normal_iteratorIPKN5Catch3PtrINS1_22CumulativeReporterBase11SectionNodeEEESt6vectorIS5_SaIS5_EEE4baseEv
FN:805,_ZNK9__gnu_cxx17__normal_iteratorIPN5Catch3PtrINS1_16TestCaseTracking8ITrackerEEESt6vectorIS5_SaIS5_EEE4baseEv
FN:820,_ZN9__gnu_cxxeqIPKN5Catch3PtrINS1_22CumulativeReporterBase11SectionNodeEEEPS5_St6vectorIS5_SaIS5_EEEEbRKNS_17__normal_iteratorIT_T1_EERKNSC_IT0_SE_EE
FN:820,_ZN9__gnu_cxxeqIPKN5Catch11MessageInfoEPS2_St6vectorIS2_SaIS2_EEEEbRKNS_17__normal_iteratorIT_T1_EERKNS9_IT0_SB_EE
FN:827,_ZN9__gnu_cxxeqIPKN5Catch11SectionInfoESt6vectorIS2_SaIS2_EEEEbRKNS_17__normal_iteratorIT_T0_EESD_
FN:827,_ZN9__gnu_cxxeqIPKN5Catch3PtrINS1_22CumulativeReporterBase11SectionNodeEEESt6vectorIS5_SaIS5_EEEEbRKNS_17__normal_iteratorIT_T0_EESG_
FN:827,_ZN9__gnu_cxxeqIPKN5Catch5Clara11CommandLineINS1_10ConfigDataEE3ArgESt6vectorIS6_SaIS6_EEEEbRKNS_17__normal_iteratorIT_T0_EESH_
FN:827,_ZN9__gnu_cxxeqIPN5Catch8TestCaseESt6vectorIS2_SaIS2_EEEEbRKNS_17__normal_iteratorIT_T0_EESC_
FN:827,_ZN9__gnu_cxxeqIPKPKN5Catch20IExceptionTranslatorESt6vectorIS4_SaIS4_EEEEbRKNS_17__normal_iteratorIT_T0_EESF_
FN:827,_ZN9__gnu_cxxeqIPKcNSt7__cxx1112basic_stringIcSt11char_traitsIcESaIcEEEEEbRKNS_17__normal_iteratorIT_T0_EESE_
FN:827,_ZN9__gnu_cxxeqIPKN5Catch3PtrINS1_16TestCaseTracking8ITrackerEEESt6vectorIS5_SaIS5_EEEEbRKNS_17__normal_iteratorIT_T0_EESG_
FN:827,_ZN9__gnu_cxxeqIPKN5Catch3PtrINS1_8TestSpec7PatternEEESt6vectorIS5_SaIS5_EEEEbRKNS_17__normal_iteratorIT_T0_EESG_
FN:827,_ZN9__gnu_cxxeqIPN5Catch11MessageInfoESt6vectorIS2_SaIS2_EEEEbRKNS_17__normal_iteratorIT_T0_EESC_
FN:827,_ZN9__gnu_cxxeqIPKPN5Catch16TestCaseTracking8ITrackerESt6vectorIS4_SaIS4_EEEEbRKNS_17__normal_iteratorIT_T0_EESF_
FN:827,_ZN9__gnu_cxxeqIPKN5Catch14SectionEndInfoESt6vectorIS2_SaIS2_EEEEbRKNS_17__normal_iteratorIT_T0_EESD_
FN:827,_ZN9__gnu_cxxeqIPKN5Catch8TestSpec6FilterESt6vectorIS3_SaIS3_EEEEbRKNS_17__normal_iteratorIT_T0_EESE_
FN:827,_ZN9__gnu_cxxeqIPcSt6vectorIcSaIcEEEEbRKNS_17__normal_iteratorIT_T0_EESA_
FN:827,_ZN9__gnu_cxxeqIPKN5Catch8TestCaseESt6vectorIS2_SaIS2_EEEEbRKNS_17__normal_iteratorIT_T0_EESD_
FN:827,_ZN9__gnu_cxxeqIPKSt4pairIlSt6vectorINSt7__cxx119sub_matchINS_17__normal_iteratorIPKcNS3_12basic_stringIcSt11char_traitsIcESaIcEEEEEEESaISE_EEES2_ISH_SaISH_EEEEbRKNS5_IT_T0_EESQ_
FN:827,_ZN9__gnu_cxxeqIPKN5Catch14AssertionStatsESt6vectorIS2_SaIS2_EEEEbRKNS_17__normal_iteratorIT_T0_EESD_
FN:827,_ZN9__gnu_cxxeqIPKNSt7__cxx1112basic_stringIcSt11char_traitsIcESaIcEEESt6vectorIS6_SaIS6_EEEEbRKNS_17__normal_iteratorIT_T0_EESH_
FN:834,_ZN9__gnu_cxxneIPKNSt7__cxx1112basic_stringIcSt11char_traitsIcESaIcEEEPS6_St6vectorIS6_SaIS6_EEEEbRKNS_17__normal_iteratorIT_T1_EERKNSD_IT0_SF_EE
FN:834,_ZN9__gnu_cxxneIPKN5Catch11MessageInfoEPS2_St6vectorIS2_SaIS2_EEEEbRKNS_17__normal_iteratorIT_T1_EERKNS9_IT0_SB_EE
FN:834,_ZN9__gnu_cxxneIPKN5Catch3PtrINS1_16TestCaseTracking8ITrackerEEEPS5_St6vectorIS5_SaIS5_EEEEbRKNS_17__normal_iteratorIT_T1_EERKNSC_IT0_SE_EE
FN:841,_ZN9__gnu_cxxneIPKN5Catch11SectionInfoESt6vectorIS2_SaIS2_EEEEbRKNS_17__normal_iteratorIT_T0_EESD_
FN:841,_ZN9__gnu_cxxneIPKN5Catch5Clara11CommandLineINS1_10ConfigDataEE3ArgESt6vectorIS6_SaIS6_EEEEbRKNS_17__normal_iteratorIT_T0_EESH_
FN:841,_ZN9__gnu_cxxneIPKNSt7__cxx119sub_matchINS_17__normal_iteratorIPKcNS1_12basic_stringIcSt11char_traitsIcESaIcEEEEEEESt6vectorISC_SaISC_EEEEbRKNS3_IT_T0_EESM_
FN:841,_ZN9__gnu_cxxneIPKPN5Catch14IGeneratorInfoESt6vectorIS3_SaIS3_EEEEbRKNS_17__normal_iteratorIT_T0_EESE_
FN:841,_ZN9__gnu_cxxneIPKNSt7__cxx1112basic_stringIcSt11char_traitsIcESaIcEEESt6vectorIS6_SaIS6_EEEEbRKNS_17__normal_iteratorIT_T0_EESH_
FN:841,_ZN9__gnu_cxxneIPcNSt7__cxx1112basic_stringIcSt11char_traitsIcESaIcEEEEEbRKNS_17__normal_iteratorIT_T0_EESD_
FN:841,_ZN9__gnu_cxxneIPNSt7__cxx119sub_matchINS_17__normal_iteratorIPKcNS1_12basic_stringIcSt11char_traitsIcESaIcEEEEEEESt6vectorISC_SaISC_EEEEbRKNS3_IT_T0_EESL_
FN:841,_ZN9__gnu_cxxneIPKN5Catch3PtrINS1_22CumulativeReporterBase4NodeINS1_13TestCaseStatsENS3_11SectionNodeEEEEESt6vectorIS8_SaIS8_EEEEbRKNS_17__normal_iteratorIT_T0_EESJ_
FN:841,_ZN9__gnu_cxxneIPNSt7__cxx1112basic_stringIcSt11char_traitsIcESaIcEEESt6vectorIS6_SaIS6_EEEEbRKNS_17__normal_iteratorIT_T0_EESG_
FN:841,_ZN9__gnu_cxxneIPKN5Catch3PtrINS1_8TestSpec7PatternEEESt6vectorIS5_SaIS5_EEEEbRKNS_17__normal_iteratorIT_T0_EESG_
FN:841,_ZN9__gnu_cxxneIPKN5Catch3PtrINS1_22CumulativeReporterBase11SectionNodeEEESt6vectorIS5_SaIS5_EEEEbRKNS_17__normal_iteratorIT_T0_EESG_
FN:841,_ZN9__gnu_cxxneIPKN5Catch14AssertionStatsESt6vectorIS2_SaIS2_EEEEbRKNS_17__normal_iteratorIT_T0_EESD_
FN:841,_ZN9__gnu_cxxneIPKN5Catch8TestCaseESt6vectorIS2_SaIS2_EEEEbRKNS_17__normal_iteratorIT_T0_EESD_
FN:841,_ZN9__gnu_cxxneIPKN5Catch15ConsoleReporter13SummaryColumnESt6vectorIS3_SaIS3_EEEEbRKNS_17__normal_iteratorIT_T0_EESE_
FN:841,_ZN9__gnu_cxxneIPKN5Catch3PtrINS1_16IReporterFactoryEEESt6vectorIS4_SaIS4_EEEEbRKNS_17__normal_iteratorIT_T0_EESF_
FN:841,_ZN9__gnu_cxxneIPKcSt6vectorIcSaIcEEEEbRKNS_17__normal_iteratorIT_T0_EESB_
FN:841,_ZN9__gnu_cxxneIPN5Catch8TestCaseESt6vectorIS2_SaIS2_EEEEbRKNS_17__normal_iteratorIT_T0_EESC_
FN:841,_ZN9__gnu_cxxneIPKN5Catch3PtrINS1_18IStreamingReporterEEESt6vectorIS4_SaIS4_EEEEbRKNS_17__normal_iteratorIT_T0_EESF_
FN:841,_ZN9__gnu_cxxneIPN5Catch11MessageInfoESt6vectorIS2_SaIS2_EEEEbRKNS_17__normal_iteratorIT_T0_EESC_
FN:841,_ZN9__gnu_cxxneIPKSt4pairIccESt6vectorIS2_SaIS2_EEEEbRKNS_17__normal_iteratorIT_T0_EESD_
FN:841,_ZN9__gnu_cxxneIPKSt4pairINSt7__cxx1112basic_stringIcSt11char_traitsIcESaIcEEES7_ESt6vectorIS8_SaIS8_EEEEbRKNS_17__normal_iteratorIT_T0_EESJ_
FN:841,_ZN9__gnu_cxxneIPSt4pairIlSt6vectorINSt7__cxx119sub_matchINS_17__normal_iteratorIPKcNS3_12basic_stringIcSt11char_traitsIcESaIcEEEEEEESaISE_EEES2_ISH_SaISH_EEEEbRKNS5_IT_T0_EESP_
FN:841,_ZN9__gnu_cxxneIPK3JobSt6vectorIS1_SaIS1_EEEEbRKNS_17__normal_iteratorIT_T0_EESC_
FN:841,_ZN9__gnu_cxxneIPKcNSt7__cxx1112basic_stringIcSt11char_traitsIcESaIcEEEEEbRKNS_17__normal_iteratorIT_T0_EESE_
FN:841,_ZN9__gnu_cxxneIPcSt6vectorIcSaIcEEEEbRKNS_17__normal_iteratorIT_T0_EESA_
FN:841,_ZN9__gnu_cxxneIPKN5Catch8TestSpec6FilterESt6vectorIS3_SaIS3_EEEEbRKNS_17__normal_iteratorIT_T0_EESE_
FN:841,_ZN9__gnu_cxxneIPKNSt7__cxx1112regex_traitsIcE10_RegexMaskESt6vectorIS4_SaIS4_EEEEbRKNS_17__normal_iteratorIT_T0_EESF_
FN:841,_ZN9__gnu_cxxneIPmSt6vectorImSaImEEEEbRKNS_17__normal_iteratorIT_T0_EESA_
FN:841,_ZN9__gnu_cxxneIPKN5Catch11MessageInfoESt6vectorIS2_SaIS2_EEEEbRKNS_17__normal_iteratorIT_T0_EESD_
FN:841,_ZN9__gnu_cxxneIPNSt8__detail6_StateINSt7__cxx1112regex_traitsIcEEEESt6vectorIS6_SaIS6_EEEEbRKNS_17__normal_iteratorIT_T0_EESG_
FN:841,_ZN9__gnu_cxxneIPKN5Catch5Clara6Parser5TokenESt6vectorIS4_SaIS4_EEEEbRKNS_17__normal_iteratorIT_T0_EESF_
FN:841,_ZN9__gnu_cxxneIPKPKN5Catch20IExceptionTranslatorESt6vectorIS4_SaIS4_EEEEbRKNS_17__normal_iteratorIT_T0_EESF_
FN:856,_ZN9__gnu_cxxltIPN5Catch8TestCaseESt6vectorIS2_SaIS2_EEEEbRKNS_17__normal_iteratorIT_T0_EESC_
FN:856,_ZN9__gnu_cxxltIPcSt6vectorIcSaIcEEEEbRKNS_17__normal_iteratorIT_T0_EESA_
FN:870,_ZN9__gnu_cxxgtIPKcNSt7__cxx1112basic_stringIcSt11char_traitsIcESaIcEEEEEbRKNS_17__normal_iteratorIT_T0_EESE_
FN:923,_ZN9__gnu_cxxmiIPKN5Catch11MessageInfoESt6vectorIS2_SaIS2_EEEENS_17__normal_iteratorIT_T0_E15difference_typeERKSB_SE_
FN:923,_ZN9__gnu_cxxmiIPN5Catch3PtrINS1_22CumulativeReporterBase11SectionNodeEEESt6vectorIS5_SaIS5_EEEENS_17__normal_iteratorIT_T0_E15difference_typeERKSD_SG_
FN:923,_ZN9__gnu_cxxmiIPN5Catch8TestCaseESt6vectorIS2_SaIS2_EEEENS_17__normal_iteratorIT_T0_E15difference_typeERKSA_SD_
FN:923,_ZN9__gnu_cxxmiIPN5Catch3PtrINS1_16TestCaseTracking8ITrackerEEESt6vectorIS5_SaIS5_EEEENS_17__normal_iteratorIT_T0_E15difference_typeERKSD_SG_
FN:923,_ZN9__gnu_cxxmiIPN5Catch11MessageInfoESt6vectorIS2_SaIS2_EEEENS_17__normal_iteratorIT_T0_E15difference_typeERKSA_SD_
FN:923,_ZN9__gnu_cxxmiIPKcSt6vectorIcSaIcEEEENS_17__normal_iteratorIT_T0_E15difference_typeERKS9_SC_
FN:923,_ZN9__gnu_cxxmiIPKNSt7__cxx1112basic_stringIcSt11char_traitsIcESaIcEEESt6vectorIS6_SaIS6_EEEENS_17__normal_iteratorIT_T0_E15difference_typeERKSF_SI_
FN:923,_ZN9__gnu_cxxmiIPKcNSt7__cxx1112basic_stringIcSt11char_traitsIcESaIcEEEEENS_17__normal_iteratorIT_T0_E15difference_typeERKSC_SF_
FN:923,_ZN9__gnu_cxxmiIPcNSt7__cxx1112basic_stringIcSt11char_traitsIcESaIcEEEEENS_17__normal_iteratorIT_T0_E15difference_typeERKSB_SE_
FN:923,_ZN9__gnu_cxxmiIPcSt6vectorIcSaIcEEEENS_17__normal_iteratorIT_T0_E15difference_typeERKS8_SB_
FN:923,_ZN9__gnu_cxxmiIPNSt7__cxx1112basic_stringIcSt11char_traitsIcESaIcEEESt6vectorIS6_SaIS6_EEEENS_17__normal_iteratorIT_T0_E15difference_typeERKSE_SH_
FN:984,_ZNSt13move_iteratorIPPKN5Catch20IExceptionTranslatorEEC2ES4_
FN:984,_ZNSt13move_iteratorIPN5Catch14AssertionStatsEEC2ES2_
FN:984,_ZNSt13move_iteratorIPmEC2ES0_
FN:984,_ZNSt13move_iteratorIPN5Catch5Clara6Parser5TokenEEC2ES4_
FN:984,_ZNSt13move_iteratorIPN5Catch14SectionEndInfoEEC2ES2_
FN:984,_ZNSt13move_iteratorIPNSt7__cxx119sub_matchIN9__gnu_cxx17__normal_iteratorIPKcNS0_12basic_stringIcSt11char_traitsIcESaIcEEEEEEEEC2ESD_
FN:984,_ZNSt13move_iteratorIPNSt7__cxx1112basic_stringIcSt11char_traitsIcESaIcEEEEC2ES6_
FN:984,_ZNSt13move_iteratorIPSt4pairIlSt6vectorINSt7__cxx119sub_matchIN9__gnu_cxx17__normal_iteratorIPKcNS2_12basic_stringIcSt11char_traitsIcESaIcEEEEEEESaISE_EEEEC2ESI_
FN:984,_ZNSt13move_iteratorIPSt4pairINSt7__cxx1112basic_stringIcSt11char_traitsIcESaIcEEES6_EEC2ES8_
FN:984,_ZNSt13move_iteratorIPN5Catch11MessageInfoEEC2ES2_
FN:984,_ZNSt13move_iteratorIPPN5Catch14IGeneratorInfoEEC2ES3_
FN:984,_ZNSt13move_iteratorIPN5Catch8TestSpec6FilterEEC2ES3_
FN:984,_ZNSt13move_iteratorIPPN5Catch16TestCaseTracking8ITrackerEEC2ES4_
FN:984,_ZNSt13move_iteratorIPNSt7__cxx1112regex_traitsIcE10_RegexMaskEEC2ES4_
FN:984,_ZNSt13move_iteratorIPSt4pairIccEEC2ES2_
FN:984,_ZNSt13move_iteratorIPN5Catch11SectionInfoEEC2ES2_
FN:984,_ZNSt13move_iteratorIPN5Catch15ConsoleReporter13SummaryColumnEEC2ES3_
FN:984,_ZNSt13move_iteratorIPcEC2ES0_
FN:992,_ZNKSt13move_iteratorIPmE4baseEv
FN:992,_ZNKSt13move_iteratorIPPN5Catch16TestCaseTracking8ITrackerEE4baseEv
FN:992,_ZNKSt13move_iteratorIPN5Catch5Clara6Parser5TokenEE4baseEv
FN:992,_ZNKSt13move_iteratorIPcE4baseEv
FN:992,_ZNKSt13move_iteratorIPSt4pairIccEE4baseEv
FN:992,_ZNKSt13move_iteratorIPSt4pairIlSt6vectorINSt7__cxx119sub_matchIN9__gnu_cxx17__normal_iteratorIPKcNS2_12basic_stringIcSt11char_traitsIcESaIcEEEEEEESaISE_EEEE4baseEv
FN:992,_ZNKSt13move_iteratorIPN5Catch14SectionEndInfoEE4baseEv
FN:992,_ZNKSt13move_iteratorIPPN5Catch14IGeneratorInfoEE4baseEv
FN:992,_ZNKSt13move_iteratorIPN5Catch8TestSpec6FilterEE4baseEv
FN:992,_ZNKSt13move_iteratorIPNSt7__cxx119sub_matchIN9__gnu_cxx17__normal_iteratorIPKcNS0_12basic_stringIcSt11char_traitsIcESaIcEEEEEEEE4baseEv
FN:992,_ZNKSt13move_iteratorIPN5Catch11SectionInfoEE4baseEv
FN:992,_ZNKSt13move_iteratorIPPKN5Catch20IExceptionTranslatorEE4baseEv
FN:992,_ZNKSt13move_iteratorIPNSt7__cxx1112regex_traitsIcE10_RegexMaskEE4baseEv
FN:992,_ZNKSt13move_iteratorIPNSt7__cxx1112basic_stringIcSt11char_traitsIcESaIcEEEE4baseEv
FN:992,_ZNKSt13move_iteratorIPSt4pairINSt7__cxx1112basic_stringIcSt11char_traitsIcESaIcEEES6_EE4baseEv
FN:992,_ZNKSt13move_iteratorIPN5Catch15ConsoleReporter13SummaryColumnEE4baseEv
FN:992,_ZNKSt13move_iteratorIPN5Catch11MessageInfoEE4baseEv
FN:992,_ZNKSt13move_iteratorIPN5Catch14AssertionStatsEE4baseEv
FN:996,_ZNKSt13move_iteratorIPNSt7__cxx119sub_matchIN9__gnu_cxx17__normal_iteratorIPKcNS0_12basic_stringIcSt11char_traitsIcESaIcEEEEEEEEdeEv
FN:996,_ZNKSt13move_iteratorIPN5Catch11MessageInfoEEdeEv
FN:996,_ZNKSt13move_iteratorIPSt4pairINSt7__cxx1112basic_stringIcSt11char_traitsIcESaIcEEES6_EEdeEv
FN:996,_ZNKSt13move_iteratorIPN5Catch11SectionInfoEEdeEv
FN:996,_ZNKSt13move_iteratorIPN5Catch14SectionEndInfoEEdeEv
FN:996,_ZNKSt13move_iteratorIPN5Catch8TestSpec6FilterEEdeEv
FN:996,_ZNKSt13move_iteratorIPNSt7__cxx1112basic_stringIcSt11char_traitsIcESaIcEEEEdeEv
FN:996,_ZNKSt13move_iteratorIPN5Catch5Clara6Parser5TokenEEdeEv
FN:996,_ZNKSt13move_iteratorIPSt4pairIccEEdeEv
FN:996,_ZNKSt13move_iteratorIPSt4pairIlSt6vectorINSt7__cxx119sub_matchIN9__gnu_cxx17__normal_iteratorIPKcNS2_12basic_stringIcSt11char_traitsIcESaIcEEEEEEESaISE_EEEEdeEv
FN:996,_ZNKSt13move_iteratorIPNSt7__cxx1112regex_traitsIcE10_RegexMaskEEdeEv
FN:996,_ZNKSt13move_iteratorIPN5Catch14AssertionStatsEEdeEv
FN:996,_ZNKSt13move_iteratorIPN5Catch15ConsoleReporter13SummaryColumnEEdeEv
FN:1004,_ZNSt13move_iteratorIPN5Catch14SectionEndInfoEEppEv
FN:1004,_ZNSt13move_iteratorIPNSt7__cxx119sub_matchIN9__gnu_cxx17__normal_iteratorIPKcNS0_12basic_stringIcSt11char_traitsIcESaIcEEEEEEEEppEv
FN:1004,_ZNSt13move_iteratorIPN5Catch11MessageInfoEEppEv
FN:1004,_ZNSt13move_iteratorIPN5Catch5Clara6Parser5TokenEEppEv
FN:1004,_ZNSt13move_iteratorIPNSt7__cxx1112regex_traitsIcE10_RegexMaskEEppEv
FN:1004,_ZNSt13move_iteratorIPSt4pairIlSt6vectorINSt7__cxx119sub_matchIN9__gnu_cxx17__normal_iteratorIPKcNS2_12basic_stringIcSt11char_traitsIcESaIcEEEEEEESaISE_EEEEppEv
FN:1004,_ZNSt13move_iteratorIPN5Catch15ConsoleReporter13SummaryColumnEEppEv
FN:1004,_ZNSt13move_iteratorIPSt4pairINSt7__cxx1112basic_stringIcSt11char_traitsIcESaIcEEES6_EEppEv
FN:1004,_ZNSt13move_iteratorIPSt4pairIccEEppEv
FN:1004,_ZNSt13move_iteratorIPN5Catch11SectionInfoEEppEv
FN:1004,_ZNSt13move_iteratorIPN5Catch14AssertionStatsEEppEv
FN:1004,_ZNSt13move_iteratorIPNSt7__cxx1112basic_stringIcSt11char_traitsIcESaIcEEEEppEv
FN:1004,_ZNSt13move_iteratorIPN5Catch8TestSpec6FilterEEppEv
FN:1071,_ZSteqIPN5Catch11SectionInfoEEbRKSt13move_iteratorIT_ES7_
FN:1071,_ZSteqIPN5Catch11MessageInfoEEbRKSt13move_iteratorIT_ES7_
FN:1071,_ZSteqIPNSt7__cxx1112regex_traitsIcE10_RegexMaskEEbRKSt13move_iteratorIT_ES9_
FN:1071,_ZSteqIPN5Catch14AssertionStatsEEbRKSt13move_iteratorIT_ES7_
FN:1071,_ZSteqIPSt4pairIccEEbRKSt13move_iteratorIT_ES7_
FN:1071,_ZSteqIPN5Catch15ConsoleReporter13SummaryColumnEEbRKSt13move_iteratorIT_ES8_
FN:1071,_ZSteqIPN5Catch8TestSpec6FilterEEbRKSt13move_iteratorIT_ES8_
FN:1071,_ZSteqIPN5Catch5Clara6Parser5TokenEEbRKSt13move_iteratorIT_ES9_
FN:1071,_ZSteqIPN5Catch14SectionEndInfoEEbRKSt13move_iteratorIT_ES7_
FN:1071,_ZSteqIPNSt7__cxx119sub_matchIN9__gnu_cxx17__normal_iteratorIPKcNS0_12basic_stringIcSt11char_traitsIcESaIcEEEEEEEEbRKSt13move_iteratorIT_ESI_
FN:1071,_ZSteqIPNSt7__cxx1112basic_stringIcSt11char_traitsIcESaIcEEEEbRKSt13move_iteratorIT_ESB_
FN:1071,_ZSteqIPSt4pairIlSt6vectorINSt7__cxx119sub_matchIN9__gnu_cxx17__normal_iteratorIPKcNS2_12basic_stringIcSt11char_traitsIcESaIcEEEEEEESaISE_EEEEbRKSt13move_iteratorIT_ESN_
FN:1071,_ZSteqIPSt4pairINSt7__cxx1112basic_stringIcSt11char_traitsIcESaIcEEES6_EEbRKSt13move_iteratorIT_ESD_
FN:1083,_ZStneIPNSt7__cxx1112basic_stringIcSt11char_traitsIcESaIcEEEEbRKSt13move_iteratorIT_ESB_
FN:1083,_ZStneIPSt4pairINSt7__cxx1112basic_stringIcSt11char_traitsIcESaIcEEES6_EEbRKSt13move_iteratorIT_ESD_
FN:1083,_ZStneIPN5Catch14AssertionStatsEEbRKSt13move_iteratorIT_ES7_
FN:1083,_ZStneIPN5Catch11MessageInfoEEbRKSt13move_iteratorIT_ES7_
FN:1083,_ZStneIPN5Catch15ConsoleReporter13SummaryColumnEEbRKSt13move_iteratorIT_ES8_
FN:1083,_ZStneIPN5Catch11SectionInfoEEbRKSt13move_iteratorIT_ES7_
FN:1083,_ZStneIPN5Catch14SectionEndInfoEEbRKSt13move_iteratorIT_ES7_
FN:1083,_ZStneIPSt4pairIccEEbRKSt13move_iteratorIT_ES7_
FN:1083,_ZStneIPNSt7__cxx1112regex_traitsIcE10_RegexMaskEEbRKSt13move_iteratorIT_ES9_
FN:1083,_ZStneIPN5Catch5Clara6Parser5TokenEEbRKSt13move_iteratorIT_ES9_
FN:1083,_ZStneIPN5Catch8TestSpec6FilterEEbRKSt13move_iteratorIT_ES8_
FN:1083,_ZStneIPNSt7__cxx119sub_matchIN9__gnu_cxx17__normal_iteratorIPKcNS0_12basic_stringIcSt11char_traitsIcESaIcEEEEEEEEbRKSt13move_iteratorIT_ESI_
FN:1083,_ZStneIPSt4pairIlSt6vectorINSt7__cxx119sub_matchIN9__gnu_cxx17__normal_iteratorIPKcNS2_12basic_stringIcSt11char_traitsIcESaIcEEEEEEESaISE_EEEEbRKSt13move_iteratorIT_ESN_
FN:1158,_ZSt18make_move_iteratorIPNSt7__cxx1112basic_stringIcSt11char_traitsIcESaIcEEEESt13move_iteratorIT_ES8_
FN:1166,_ZSt32__make_move_if_noexcept_iteratorIPN5Catch11SectionInfoESt13move_iteratorIS2_EET0_T_
FN:1166,_ZSt32__make_move_if_noexcept_iteratorIPN5Catch3PtrINS0_22CumulativeReporterBase4NodeINS0_13TestCaseStatsENS2_11SectionNodeEEEEES8_ET0_T_
FN:1166,_ZSt32__make_move_if_noexcept_iteratorIPN5Catch5Clara6Parser5TokenESt13move_iteratorIS4_EET0_T_
FN:1166,_ZSt32__make_move_if_noexcept_iteratorIPN5Catch3PtrINS0_22CumulativeReporterBase4NodeINS0_14TestGroupStatsENS3_INS0_13TestCaseStatsENS2_11SectionNodeEEEEEEESA_ET0_T_
FN:1166,_ZSt32__make_move_if_noexcept_iteratorIPN5Catch3PtrINS0_16IReporterFactoryEEES4_ET0_T_
FN:1166,_ZSt32__make_move_if_noexcept_iteratorIPN5Catch8TestSpec6FilterESt13move_iteratorIS3_EET0_T_
FN:1166,_ZSt32__make_move_if_noexcept_iteratorIPmSt13move_iteratorIS0_EET0_T_
FN:1166,_ZSt32__make_move_if_noexcept_iteratorIPSt4pairIccESt13move_iteratorIS2_EET0_T_
FN:1166,_ZSt32__make_move_if_noexcept_iteratorIPPN5Catch14IGeneratorInfoESt13move_iteratorIS3_EET0_T_
FN:1166,_ZSt32__make_move_if_noexcept_iteratorIPSt4pairIlSt6vectorINSt7__cxx119sub_matchIN9__gnu_cxx17__normal_iteratorIPKcNS2_12basic_stringIcSt11char_traitsIcESaIcEEEEEEESaISE_EEESt13move_iteratorISI_EET0_T_
FN:1166,_ZSt32__make_move_if_noexcept_iteratorIPNSt7__cxx119sub_matchIN9__gnu_cxx17__normal_iteratorIPKcNS0_12basic_stringIcSt11char_traitsIcESaIcEEEEEEESt13move_iteratorISD_EET0_T_
FN:1166,_ZSt32__make_move_if_noexcept_iteratorIPN5Catch3PtrINS0_8TestSpec7PatternEEES5_ET0_T_
FN:1166,_ZSt32__make_move_if_noexcept_iteratorIPN5Catch15ConsoleReporter13SummaryColumnESt13move_iteratorIS3_EET0_T_
FN:1166,_ZSt32__make_move_if_noexcept_iteratorIPN5Catch14AssertionStatsESt13move_iteratorIS2_EET0_T_
FN:1166,_ZSt32__make_move_if_noexcept_iteratorIPNSt8__detail6_StateINSt7__cxx1112regex_traitsIcEEEES6_ET0_T_
FN:1166,_ZSt32__make_move_if_noexcept_iteratorIPN5Catch3PtrINS0_18IStreamingReporterEEES4_ET0_T_
FN:1166,_ZSt32__make_move_if_noexcept_iteratorIPN5Catch14SectionEndInfoESt13move_iteratorIS2_EET0_T_
FN:1166,_ZSt32__make_move_if_noexcept_iteratorIPN5Catch11MessageInfoESt13move_iteratorIS2_EET0_T_
FN:1166,_ZSt32__make_move_if_noexcept_iteratorIPSt4pairINSt7__cxx1112basic_stringIcSt11char_traitsIcESaIcEEES6_ESt13move_iteratorIS8_EET0_T_
FN:1166,_ZSt32__make_move_if_noexcept_iteratorIPN5Catch3PtrINS0_22CumulativeReporterBase4NodeINS0_12TestRunStatsENS3_INS0_14TestGroupStatsENS3_INS0_13TestCaseStatsENS2_11SectionNodeEEEEEEEEESC_ET0_T_
FN:1166,_ZSt32__make_move_if_noexcept_iteratorIPN5Catch5Clara11CommandLineINS0_10ConfigDataEE3ArgES6_ET0_T_
FN:1166,_ZSt32__make_move_if_noexcept_iteratorIPN5Catch3PtrINS0_22CumulativeReporterBase11SectionNodeEEES5_ET0_T_
FN:1166,_ZSt32__make_move_if_noexcept_iteratorIPN5Catch3PtrINS0_16TestCaseTracking8ITrackerEEES5_ET0_T_
FN:1166,_ZSt32__make_move_if_noexcept_iteratorIPPN5Catch16TestCaseTracking8ITrackerESt13move_iteratorIS4_EET0_T_
FN:1166,_ZSt32__make_move_if_noexcept_iteratorIPNSt7__cxx1112basic_stringIcSt11char_traitsIcESaIcEEESt13move_iteratorIS6_EET0_T_
FN:1166,_ZSt32__make_move_if_noexcept_iteratorIPcSt13move_iteratorIS0_EET0_T_
FN:1166,_ZSt32__make_move_if_noexcept_iteratorIPNSt7__cxx1112regex_traitsIcE10_RegexMaskESt13move_iteratorIS4_EET0_T_
FN:1166,_ZSt32__make_move_if_noexcept_iteratorIPN5Catch8TestCaseES2_ET0_T_
FN:1166,_ZSt32__make_move_if_noexcept_iteratorIPPKN5Catch20IExceptionTranslatorESt13move_iteratorIS4_EET0_T_
FNDA:12,_ZNSt16reverse_iteratorIN9__gnu_cxx17__normal_iteratorIPN5Catch14SectionEndInfoESt6vectorIS3_SaIS3_EEEEEC2ES8_
FNDA:0,_ZNSt16reverse_iteratorIN9__gnu_cxx17__normal_iteratorIPKcNSt7__cxx1112basic_stringIcSt11char_traitsIcESaIcEEEEEEC2ERKSB_
FNDA:12,_ZNSt16reverse_iteratorIN9__gnu_cxx17__normal_iteratorIPKN5Catch14SectionEndInfoESt6vectorIS3_SaIS3_EEEEEC2INS1_IPS3_S8_EEEERKS_IT_E
FNDA:0,_ZNKSt16reverse_iteratorIN9__gnu_cxx17__normal_iteratorIPKcNSt7__cxx1112basic_stringIcSt11char_traitsIcESaIcEEEEEE4baseEv
FNDA:12,_ZNKSt16reverse_iteratorIN9__gnu_cxx17__normal_iteratorIPKN5Catch14SectionEndInfoESt6vectorIS3_SaIS3_EEEEE4baseEv
FNDA:12,_ZNKSt16reverse_iteratorIN9__gnu_cxx17__normal_iteratorIPN5Catch14SectionEndInfoESt6vectorIS3_SaIS3_EEEEE4baseEv
FNDA:0,_ZNKSt16reverse_iteratorIN9__gnu_cxx17__normal_iteratorIPKcNSt7__cxx1112basic_stringIcSt11char_traitsIcESaIcEEEEEEdeEv
FNDA:0,_ZNKSt16reverse_iteratorIN9__gnu_cxx17__normal_iteratorIPKN5Catch14SectionEndInfoESt6vectorIS3_SaIS3_EEEEEdeEv
FNDA:0,_ZNSt16reverse_iteratorIN9__gnu_cxx17__normal_iteratorIPKcNSt7__cxx1112basic_stringIcSt11char_traitsIcESaIcEEEEEEppEv
FNDA:0,_ZNSt16reverse_iteratorIN9__gnu_cxx17__normal_iteratorIPKN5Catch14SectionEndInfoESt6vectorIS3_SaIS3_EEEEEppEv
FNDA:0,_ZSteqIN9__gnu_cxx17__normal_iteratorIPKcNSt7__cxx1112basic_stringIcSt11char_traitsIcESaIcEEEEEEbRKSt16reverse_iteratorIT_ESF_
FNDA:6,_ZSteqIN9__gnu_cxx17__normal_iteratorIPKN5Catch14SectionEndInfoESt6vectorIS3_SaIS3_EEEEEbRKSt16reverse_iteratorIT_ESE_
FNDA:0,_ZStneIN9__gnu_cxx17__normal_iteratorIPKcNSt7__cxx1112basic_stringIcSt11char_traitsIcESaIcEEEEEEbRKSt16reverse_iteratorIT_ESF_
FNDA:6,_ZStneIN9__gnu_cxx17__normal_iteratorIPKN5Catch14SectionEndInfoESt6vectorIS3_SaIS3_EEEEEbRKSt16reverse_iteratorIT_ESE_
FNDA:335670,_ZN9__gnu_cxx17__normal_iteratorIPKcNSt7__cxx1112basic_stringIcSt11char_traitsIcESaIcEEEEC2Ev
FNDA:0,_ZN9__gnu_cxx17__normal_iteratorIPKSt4pairINSt7__cxx1112basic_stringIcSt11char_traitsIcESaIcEEES7_ESt6vectorIS8_SaIS8_EEEC2ERKSA_
FNDA:48200,_ZN9__gnu_cxx17__normal_iteratorIPKNSt7__cxx1112regex_traitsIcE10_RegexMaskESt6vectorIS4_SaIS4_EEEC2ERKS6_
