TN:Supercomputer_Simulation_test_coverage
SF:/mnt/7AAA6049AA60044B/GitHub/supercomputer-simulation/supercomputer/src/configuration/configuration.cpp
FN:3,_ZN13ConfigurationC2Ev
FN:35,_ZN13Configuration12get_users_nrEv
FN:42,_ZN13Configuration16get_users_nr_minEv
FN:45,_ZN13Configuration16get_users_nr_maxEv
FN:48,_ZN13Configuration18is_users_nr_randomEv
FN:52,_ZN13Configuration11get_jobs_nrEv
FN:59,_ZN13Configuration15get_jobs_nr_minEv
FN:62,_ZN13Configuration15get_jobs_nr_maxEv
FN:65,_ZN13Configuration17is_jobs_nr_randomEv
FN:69,_ZN13Configuration12get_cores_nrEv
FN:73,_ZN13Configuration12get_nodes_nrEv
FN:77,_ZN13Configuration18get_student_budgetEv
FN:84,_ZN13Configuration22get_student_budget_minEv
FN:87,_ZN13Configuration22get_student_budget_maxEv
FN:90,_ZN13Configuration24is_student_budget_randomEv
FN:94,_ZN13Configuration21get_researcher_budgetEv
FN:101,_ZN13Configuration25get_researcher_budget_minEv
FN:104,_ZN13Configuration25get_researcher_budget_maxEv
FN:107,_ZN13Configuration27is_researcher_budget_randomEv
FN:111,_ZN13Configuration15get_usage_priceEv
FN:115,_ZN13Configuration20get_operational_costEv
FN:119,_ZN13Configuration17get_requests_spanEv
FN:123,_ZN13Configuration18set_student_randomEb
FN:126,_ZN13Configuration21set_researcher_randomEb
FN:129,_ZN13Configuration16set_users_randomEb
FN:132,_ZN13Configuration15set_jobs_randomEb
FN:136,_ZN13Configuration15set_usage_priceEd
FN:139,_ZN13Configuration20set_operational_costEd
FN:142,_ZN13Configuration12set_nodes_nrEj
FN:151,_ZN13Configuration12set_cores_nrEj
FN:161,_ZN13Configuration18set_student_budgetEd
FN:164,_ZN13Configuration22set_student_budget_minEd
FN:171,_ZN13Configuration22set_student_budget_maxEd
FN:179,_ZN13Configuration21set_researcher_budgetEd
FN:182,_ZN13Configuration25set_researcher_budget_minEd
FN:189,_ZN13Configuration25set_researcher_budget_maxEd
FN:197,_ZN13Configuration11set_jobs_nrEj
FN:200,_ZN13Configuration15set_jobs_nr_minEj
FN:207,_ZN13Configuration15set_jobs_nr_maxEj
FN:215,_ZN13Configuration12set_users_nrEj
FN:218,_ZN13Configuration16set_users_nr_minEj
FN:225,_ZN13Configuration16set_users_nr_maxEj
FN:233,_ZN13Configuration17set_requests_spanEy
FN:237,_ZN13Configuration7set_nowEb
FN:240,_ZN13Configuration8set_timeEl
FN:244,_ZN13Configuration8get_timeEv
FN:250,_Z41__static_initialization_and_destruction_0ii
FN:250,_GLOBAL__sub_I__ZN13ConfigurationC2Ev
FNDA:2,_ZN13Configuration18is_users_nr_randomEv
FNDA:2,_ZN13Configuration22set_student_budget_maxEd
FNDA:2,_ZN13Configuration27is_researcher_budget_randomEv
FNDA:1,_ZN13Configuration21set_researcher_randomEb
FNDA:1,_ZN13Configuration7set_nowEb
FNDA:6,_ZN13Configuration11get_jobs_nrEv
FNDA:1010,_ZN13Configuration12get_nodes_nrEv
FNDA:1012,_ZN13Configuration12get_cores_nrEv
FNDA:3,_ZN13Configuration8get_timeEv
FNDA:4,_ZN13Configuration20get_operational_costEv
FNDA:1,_ZN13Configuration15set_usage_priceEd
FNDA:1,_ZN13Configuration21set_researcher_budgetEd
FNDA:2,_ZN13Configuration24is_student_budget_randomEv
FNDA:1,_ZN13Configuration20set_operational_costEd
FNDA:1,_Z41__static_initialization_and_destruction_0ii
FNDA:1,_ZN13Configuration16set_users_randomEb
FNDA:4,_ZN13Configuration15get_jobs_nr_maxEv
FNDA:4,_ZN13Configuration25get_researcher_budget_maxEv
FNDA:4,_ZN13Configuration12get_users_nrEv
FNDA:329,_ZN13Configuration18get_student_budgetEv
FNDA:4,_ZN13Configuration22get_student_budget_minEv
FNDA:1,_ZN13Configuration18set_student_budgetEd
FNDA:4,_ZN13Configuration16get_users_nr_maxEv
FNDA:2,_ZN13Configuration16set_users_nr_maxEj
FNDA:3,_ZN13Configuration8set_timeEl
FNDA:2,_ZN13Configuration25set_researcher_budget_minEd
FNDA:2017,_ZN13Configuration15get_usage_priceEv
FNDA:5,_ZN13Configuration16get_users_nr_minEv
FNDA:1,_ZN13Configuration18set_student_randomEb
FNDA:3,_ZN13Configuration11set_jobs_nrEj
FNDA:4,_ZN13Configuration22get_student_budget_maxEv
FNDA:3,_ZN13Configuration12set_nodes_nrEj
FNDA:2,_ZN13Configuration15set_jobs_nr_minEj
FNDA:2,_ZN13Configuration16set_users_nr_minEj
FNDA:1,_ZN13Configuration15set_jobs_randomEb
FNDA:333,_ZN13Configuration21get_researcher_budgetEv
FNDA:1,_ZN13Configuration12set_users_nrEj
FNDA:5,_ZN13Configuration15get_jobs_nr_minEv
FNDA:1,_ZN13Configuration17set_requests_spanEy
FNDA:1002,_ZN13Configuration17get_requests_spanEv
FNDA:1,_GLOBAL__sub_I__ZN13ConfigurationC2Ev
FNDA:2,_ZN13Configuration17is_jobs_nr_randomEv
FNDA:3,_ZN13Configuration12set_cores_nrEj
FNDA:2,_ZN13Configuration25set_researcher_budget_maxEd
FNDA:4,_ZN13Configuration25get_researcher_budget_minEv
FNDA:2,_ZN13Configuration15set_jobs_nr_maxEj
FNDA:4,_ZN13ConfigurationC2Ev
FNDA:2,_ZN13Configuration22set_student_budget_minEd
FNF:48
FNH:48
DA:3,4
DA:4,4
DA:5,4
DA:6,4
DA:7,4
DA:9,4
DA:10,4
DA:11,4
DA:12,4
DA:14,4
DA:15,4
DA:17,4
DA:18,4
DA:20,4
DA:21,4
DA:22,4
DA:23,4
DA:25,4
DA:26,4
DA:27,4
DA:28,4
DA:30,4
DA:32,4
DA:33,4
DA:35,4
DA:36,4
DA:37,2
DA:39,2
DA:42,5
DA:43,5
DA:45,4
DA:46,4
DA:48,2
DA:49,2
DA:52,6
DA:53,6
DA:54,4
DA:56,2
DA:59,5
DA:60,5
DA:62,4
DA:63,4
DA:65,2
DA:66,2
DA:69,1012
DA:70,1012
DA:73,1010
DA:74,1010
DA:77,329
DA:78,329
DA:79,327
DA:81,2
DA:84,4
DA:85,4
DA:87,4
DA:88,4
DA:90,2
DA:91,2
DA:94,333
DA:95,333
DA:96,331
DA:98,2
DA:101,4
DA:102,4
DA:104,4
DA:105,4
DA:107,2
DA:108,2
DA:111,2017
DA:112,2017
DA:115,4
DA:116,4
DA:119,1002
DA:120,1002
DA:123,1
DA:124,1
DA:125,1
DA:126,1
DA:127,1
DA:128,1
DA:129,1
DA:130,1
DA:131,1
DA:132,1
DA:133,1
DA:134,1
DA:136,1
DA:137,1
DA:138,1
DA:139,1
DA:140,1
DA:141,1
DA:142,3
DA:143,3
DA:144,1
DA:145,2
DA:146,1
DA:148,1
DA:150,3
DA:151,3
DA:152,3
DA:153,1
DA:154,2
DA:155,1
DA:157,1
DA:159,3
DA:161,1
DA:162,1
DA:163,1
DA:164,2
DA:165,2
DA:166,1
DA:168,1
DA:170,2
DA:171,2
DA:172,2
DA:173,1
DA:175,1
DA:177,2
DA:179,1
DA:180,1
DA:181,1
DA:182,2
DA:183,2
DA:184,1
DA:186,1
DA:188,2
DA:189,2
DA:190,2
DA:191,1
DA:193,1
DA:195,2
DA:197,3
DA:198,3
DA:199,3
DA:200,2
DA:201,2
DA:202,1
DA:204,1
DA:206,2
DA:207,2
DA:208,2
DA:209,1
DA:211,1
DA:213,2
DA:215,1
DA:216,1
DA:217,1
DA:218,2
DA:219,2
DA:220,1
DA:222,1
DA:224,2
DA:225,2
DA:226,2
DA:227,1
DA:229,1
DA:231,2
DA:233,1
DA:234,1
DA:235,1
DA:237,1
DA:238,1
DA:239,1
DA:240,3
DA:241,3
DA:242,3
DA:244,3
DA:245,3
DA:246,1
DA:248,2
DA:250,3
LF:172
LH:172
end_of_record
TN:Supercomputer_Simulation_test_coverage
SF:/mnt/7AAA6049AA60044B/GitHub/supercomputer-simulation/supercomputer/src/jobs/job.cpp
FN:3,_ZN3JobC2EP13Configurationly
FN:23,_ZN3Job8is_shortEv
FN:24,_ZN3Job9is_mediumEv
FN:25,_ZN3Job8is_largeEv
FN:26,_ZN3Job7is_hugeEv
FN:28,_ZN3Job8get_timeEv
FN:32,_ZN3Job9get_coresEv
FN:36,_ZN3Job9get_priceEv
FN:40,_ZN3Job8set_userEP4User
FN:43,_ZN3Job12get_durationEv
FN:45,_GLOBAL__sub_I__ZN3JobC2EP13Configurationly
FN:45,_Z41__static_initialization_and_destruction_0ii
FNDA:721695,_ZN3Job8is_shortEv
FNDA:1005,_ZN3JobC2EP13Configurationly
FNDA:696459,_ZN3Job9is_mediumEv
FNDA:2010,_ZN3Job8get_timeEv
FNDA:584463,_ZN3Job12get_durationEv
FNDA:1,_GLOBAL__sub_I__ZN3JobC2EP13Configurationly
FNDA:196162,_ZN3Job8is_largeEv
FNDA:1005,_ZN3Job8set_userEP4User
FNDA:2015,_ZN3Job9get_priceEv
FNDA:1,_Z41__static_initialization_and_destruction_0ii
FNDA:2077,_ZN3Job7is_hugeEv
FNDA:724174,_ZN3Job9get_coresEv
FNF:12
FNH:12
DA:3,1005
DA:4,1005
DA:5,1005
DA:6,1005
DA:7,1005
DA:8,153
DA:9,153
DA:10,852
DA:11,557
DA:12,557
DA:13,295
DA:14,228
DA:15,228
DA:17,67
DA:18,67
DA:20,1005
DA:21,1005
DA:23,721695
DA:24,696459
DA:25,196162
DA:26,2077
DA:28,2010
DA:29,2010
DA:32,724174
DA:33,724174
DA:36,2015
DA:37,2015
DA:40,1005
DA:41,1005
DA:42,1005
DA:43,584463
DA:44,584463
DA:45,3
LF:33
LH:33
end_of_record
TN:Supercomputer_Simulation_test_coverage
SF:/mnt/7AAA6049AA60044B/GitHub/supercomputer-simulation/supercomputer/src/jobs/job.h
FN:34,_ZNK3JobltERKS_
FNDA:8639,_ZNK3JobltERKS_
FNF:1
FNH:1
DA:34,8639
DA:35,8639
LF:2
LH:2
end_of_record
TN:Supercomputer_Simulation_test_coverage
SF:/mnt/7AAA6049AA60044B/GitHub/supercomputer-simulation/supercomputer/src/statistics/statistics.cpp
FN:3,_ZN10StatisticsC2EP13Configuration
FN:10,_ZN10Statistics15add_usage_priceEd
FN:14,_ZN10Statistics20add_operational_costEd
FN:18,_ZN10Statistics16add_machine_timeEy
FN:22,_ZN10Statistics7add_jobEl3Job
FN:65,_ZN10Statistics12get_short_taB5cxx11Ev
FN:73,_ZN10Statistics13get_medium_taB5cxx11Ev
FN:81,_ZN10Statistics12get_large_taB5cxx11Ev
FN:89,_ZN10Statistics11get_huge_taB5cxx11Ev
FN:99,_ZN10Statistics12get_short_wtB5cxx11Ev
FN:107,_ZN10Statistics13get_medium_wtB5cxx11Ev
FN:115,_ZN10Statistics12get_large_wtB5cxx11Ev
FN:123,_ZN10Statistics11get_huge_wtB5cxx11Ev
FN:132,_ZN10Statistics20get_operational_costB5cxx11Ev
FN:138,_ZN10Statistics20get_economic_balanceB5cxx11Ev
FN:144,_ZN10Statistics16get_machine_timeB5cxx11Ev
FN:156,_ZN10Statistics15get_usage_priceB5cxx11Ev
FN:162,_ZN10Statistics16get_weekly_usageB5cxx11Ev
FN:168,_GLOBAL__sub_I__ZN10StatisticsC2EP13Configuration
FN:168,_Z41__static_initialization_and_destruction_0ii
FNDA:94,_ZN10Statistics16add_machine_timeEy
FNDA:1,_Z41__static_initialization_and_destruction_0ii
FNDA:2,_ZN10Statistics12get_large_taB5cxx11Ev
FNDA:2,_ZN10Statistics12get_large_wtB5cxx11Ev
FNDA:2,_ZN10Statistics20add_operational_costEd
FNDA:2,_ZN10Statistics16get_weekly_usageB5cxx11Ev
FNDA:2,_ZN10Statistics20get_operational_costB5cxx11Ev
FNDA:2,_ZN10Statistics20get_economic_balanceB5cxx11Ev
FNDA:2,_ZN10Statistics13get_medium_wtB5cxx11Ev
FNDA:2,_ZN10Statistics13get_medium_taB5cxx11Ev
FNDA:1,_GLOBAL__sub_I__ZN10StatisticsC2EP13Configuration
FNDA:1005,_ZN10Statistics7add_jobEl3Job
FNDA:1005,_ZN10Statistics15add_usage_priceEd
FNDA:2,_ZN10Statistics12get_short_wtB5cxx11Ev
FNDA:2,_ZN10Statistics16get_machine_timeB5cxx11Ev
FNDA:2,_ZN10StatisticsC2EP13Configuration
FNDA:2,_ZN10Statistics12get_short_taB5cxx11Ev
FNDA:2,_ZN10Statistics11get_huge_wtB5cxx11Ev
FNDA:2,_ZN10Statistics11get_huge_taB5cxx11Ev
FNDA:2,_ZN10Statistics15get_usage_priceB5cxx11Ev
FNF:20
FNH:20
DA:3,2
DA:4,2
DA:5,2
DA:6,2
DA:7,2
DA:8,2
DA:10,1005
DA:11,1005
DA:12,1005
DA:14,2
DA:15,2
DA:16,2
DA:18,94
DA:19,94
DA:20,94
DA:22,1005
DA:23,1005
DA:24,1005
DA:25,1005
DA:26,153
DA:27,153
DA:28,852
DA:29,557
DA:30,557
DA:31,295
DA:32,228
DA:33,228
DA:35,67
DA:36,67
DA:39,1005
DA:40,32346
DA:41,31341
DA:42,936
DA:43,936
DA:44,30405
DA:45,2
DA:46,2
DA:47,2
DA:50,1005
DA:52,67
DA:53,67
DA:54,2
DA:56,65
DA:58,67
DA:59,67
DA:60,67
DA:61,67
DA:63,1005
DA:65,2
DA:66,2
DA:68,2
DA:69,4
DA:70,2
DA:71,2
DA:73,2
DA:74,2
DA:76,2
DA:77,4
DA:78,2
DA:79,2
DA:81,2
DA:82,2
DA:84,2
DA:85,4
DA:86,2
DA:87,2
DA:89,2
DA:90,2
DA:92,2
DA:93,4
DA:94,2
DA:95,2
DA:99,2
DA:100,2
DA:102,2
DA:103,4
DA:104,2
DA:105,2
DA:107,2
DA:108,2
DA:110,2
DA:111,4
DA:112,2
DA:113,2
DA:115,2
DA:116,2
DA:118,2
DA:119,4
DA:120,2
DA:121,2
DA:123,2
DA:124,2
DA:126,2
DA:127,4
DA:128,2
DA:129,2
DA:132,2
DA:133,4
DA:134,2
DA:135,4
DA:138,2
DA:139,4
DA:140,2
DA:141,4
DA:144,2
DA:145,2
DA:146,2
DA:147,2
DA:148,2
DA:149,4
DA:150,4
DA:151,6
DA:152,6
DA:153,6
DA:154,4
DA:156,2
DA:157,4
DA:158,2
DA:159,4
DA:162,2
DA:163,4
DA:164,69
DA:165,67
DA:167,4
DA:168,3
LF:125
LH:125
end_of_record
TN:Supercomputer_Simulation_test_coverage
SF:/mnt/7AAA6049AA60044B/GitHub/supercomputer-simulation/supercomputer/src/statistics/week.cpp
FN:3,_ZN4WeekC2Ell
FN:13,_ZN4Week9get_startEv
FN:16,_ZN4Week7get_endEv
FN:20,_ZN4Week9set_startEl
FN:24,_ZN4Week7add_jobE3Job
FN:36,_ZlsRSoRK4Week
FN:53,_Z41__static_initialization_and_destruction_0ii
FN:53,_GLOBAL__sub_I__ZN4WeekC2Ell
FNDA:1,_Z41__static_initialization_and_destruction_0ii
FNDA:1,_GLOBAL__sub_I__ZN4WeekC2Ell
FNDA:67,_ZlsRSoRK4Week
FNDA:61746,_ZN4Week9get_startEv
FNDA:2,_ZN4Week9set_startEl
FNDA:67,_ZN4WeekC2Ell
FNDA:1005,_ZN4Week7add_jobE3Job
FNDA:5582,_ZN4Week7get_endEv
FNF:8
FNH:8
DA:3,67
DA:4,67
DA:5,67
DA:7,67
DA:8,67
DA:9,67
DA:10,67
DA:11,67
DA:13,61746
DA:14,61746
DA:16,5582
DA:17,5582
DA:20,2
DA:21,2
DA:22,2
DA:24,1005
DA:25,1005
DA:26,153
DA:27,852
DA:28,557
DA:29,295
DA:30,228
DA:32,67
DA:34,1005
DA:36,67
DA:37,67
DA:39,67
DA:41,67
DA:43,67
DA:45,67
DA:47,67
DA:48,67
DA:49,67
DA:50,67
DA:51,67
DA:52,67
DA:53,3
LF:37
LH:37
end_of_record
TN:Supercomputer_Simulation_test_coverage
SF:/mnt/7AAA6049AA60044B/GitHub/supercomputer-simulation/supercomputer/src/system/state.cpp
FN:3,_ZN5StateC2Exl9StateType
FN:14,_ZN5StateC2ES_l9StateType
FN:25,_ZN5State10insert_jobE3Job
FN:40,_ZN5State14can_insert_jobE3Job
FN:52,_ZN5State8get_timeEv
FN:56,_ZN5State8get_typeEv
FN:60,_ZN5State15get_short_coresEv
FN:61,_ZN5State16get_medium_coresEv
FN:62,_ZN5State15get_large_coresEv
FN:63,_ZN5State15get_total_coresEv
FN:64,_GLOBAL__sub_I__ZN5StateC2Exl9StateType
FN:64,_Z41__static_initialization_and_destruction_0ii
FN:64,_ZN5State14get_used_coresEv
FNDA:4556,_ZN5State10insert_jobE3Job
FNDA:3947,_ZN5State15get_short_coresEv
FNDA:1937,_ZN5StateC2ES_l9StateType
FNDA:1,_GLOBAL__sub_I__ZN5StateC2Exl9StateType
FNDA:2010,_ZN5State8get_typeEv
FNDA:73,_ZN5StateC2Exl9StateType
FNDA:1937,_ZN5State14get_used_coresEv
FNDA:1,_Z41__static_initialization_and_destruction_0ii
FNDA:1937,_ZN5State15get_total_coresEv
FNDA:3947,_ZN5State16get_medium_coresEv
FNDA:715129,_ZN5State14can_insert_jobE3Job
FNDA:839690,_ZN5State8get_timeEv
FNDA:3947,_ZN5State15get_large_coresEv
FNF:13
FNH:13
DA:3,73
DA:4,73
DA:5,73
DA:6,73
DA:7,73
DA:8,73
DA:10,73
DA:11,73
DA:12,73
DA:14,1937
DA:15,1937
DA:16,1937
DA:17,1937
DA:18,1937
DA:19,1937
DA:21,1937
DA:22,1937
DA:23,1937
DA:25,4556
DA:26,4556
DA:27,1442
DA:28,3114
DA:29,2300
DA:30,814
DA:31,747
DA:32,67
DA:33,67
DA:34,67
DA:35,67
DA:37,4556
DA:38,4556
DA:40,715129
DA:41,715129
DA:42,715129
DA:43,23488
DA:44,691641
DA:45,496883
DA:46,194758
DA:47,194758
DA:49,715129
DA:52,839690
DA:53,839690
DA:56,2010
DA:57,2010
DA:60,3947
DA:61,3947
DA:62,3947
DA:63,1937
DA:64,1940
LF:49
LH:49
end_of_record
TN:Supercomputer_Simulation_test_coverage
SF:/mnt/7AAA6049AA60044B/GitHub/supercomputer-simulation/supercomputer/src/system/state.h
FN:40,_ZNK5StateltERKS_
FNDA:2008,_ZNK5StateltERKS_
FNF:1
FNH:1
DA:40,2008
DA:41,2008
LF:2
LH:2
end_of_record
TN:Supercomputer_Simulation_test_coverage
SF:/mnt/7AAA6049AA60044B/GitHub/supercomputer-simulation/supercomputer/src/system/system.cpp
FN:3,_ZN6SystemC2EP13Configuration
FN:13,_ZN6SystemC2EP13ConfigurationSt6vectorIP4UserSaIS4_EES2_I3JobSaIS7_EE
FN:32,_ZN6System15exist_negativesEv
FN:43,_ZN6System12create_usersEv
FN:51,_ZN6System11create_jobsEv
FN:84,_ZN6System23insert_state_and_updateEiill3Job
FN:98,_ZN6System17insert_week_stateEli3Job
FN:138,_ZN6System20insert_weekend_stateEli3Job
FN:154,_ZN6System12insert_stateERi3Job
FN:166,_ZN6System8scheduleEv
FN:173,_ZN6System17calculate_op_costEv
FN:194,_ZN6System11get_resultsB5cxx11Ev
FN:207,_Z41__static_initialization_and_destruction_0ii
FN:207,_GLOBAL__sub_I__ZN6SystemC2EP13Configuration
FNDA:938,_ZN6System17insert_week_stateEli3Job
FNDA:1005,_ZN6System12insert_stateERi3Job
FNDA:1,_ZN6SystemC2EP13Configuration
FNDA:2,_ZN6System8scheduleEv
FNDA:1,_GLOBAL__sub_I__ZN6SystemC2EP13Configuration
FNDA:67,_ZN6System20insert_weekend_stateEli3Job
FNDA:2,_ZN6System11get_resultsB5cxx11Ev
FNDA:1005,_ZN6System23insert_state_and_updateEiill3Job
FNDA:1,_ZN6SystemC2EP13ConfigurationSt6vectorIP4UserSaIS4_EES2_I3JobSaIS7_EE
FNDA:1,_ZN6System12create_usersEv
FNDA:2,_ZN6System15exist_negativesEv
FNDA:1,_Z41__static_initialization_and_destruction_0ii
FNDA:1,_ZN6System11create_jobsEv
FNDA:2,_ZN6System17calculate_op_costEv
FNF:14
FNH:14
DA:3,1
DA:4,1
DA:5,1
DA:6,1
DA:7,1
DA:8,1
DA:9,1
DA:10,1
DA:11,1
DA:13,1
DA:14,1
DA:15,1
DA:16,1
DA:17,1
DA:18,1
DA:19,6
DA:20,5
DA:21,11
DA:22,3
DA:24,5
DA:25,5
DA:26,5
DA:28,1
DA:29,1
DA:30,1
DA:32,2
DA:33,2012
DA:34,6030
DA:35,4020
DA:36,2010
DA:37,0
DA:40,2
DA:43,1
DA:44,1
DA:45,1001
DA:46,1000
DA:48,1
DA:49,1
DA:51,1
DA:52,1
DA:53,1
DA:54,1
DA:56,2
DA:57,1
DA:58,1
DA:60,1001
DA:61,1000
DA:62,1002
DA:63,1
DA:65,1006
DA:66,3
DA:68,1000
DA:69,1000
DA:70,1000
DA:71,1000
DA:72,1000
DA:73,0
DA:75,1000
DA:76,1000
DA:77,1000
DA:79,1000
DA:81,1
DA:82,1
DA:84,1005
DA:85,1005
DA:87,1005
DA:88,1005
DA:89,1005
DA:90,4556
DA:91,3551
DA:93,1005
DA:94,1005
DA:95,1005
DA:98,938
DA:99,938
DA:100,193820
DA:101,96441
DA:102,96441
DA:103,96441
DA:104,96441
DA:105,17
DA:106,17
DA:107,1269
DA:108,626
DA:112,938
DA:113,280712
DA:114,139887
DA:115,94715
DA:116,94715
DA:117,94715
DA:118,861015
DA:119,383150
DA:120,383150
DA:121,383150
DA:122,383150
DA:123,2548
DA:124,2548
DA:125,102678
DA:126,50065
DA:130,94715
DA:132,45172
DA:135,938
DA:136,938
DA:138,67
DA:139,67
DA:140,67
DA:141,31509
DA:142,15721
DA:144,4229
DA:145,2081
DA:146,102493
DA:147,50206
DA:150,67
DA:151,67
DA:152,67
DA:154,1005
DA:155,1005
DA:156,1051
DA:157,23
DA:159,1005
DA:160,938
DA:162,67
DA:164,1005
DA:166,2
DA:167,2
DA:168,1007
DA:169,1005
DA:171,2
DA:173,2
DA:174,2
DA:175,2
DA:176,2012
DA:177,2010
DA:178,1005
DA:179,94
DA:181,1005
DA:183,1005
DA:184,1005
DA:185,94
DA:189,2
DA:190,2
DA:192,2
DA:194,2
DA:195,4
DA:196,2
DA:197,2
DA:198,2
DA:199,2
DA:200,2
DA:201,2
DA:202,2
DA:203,2
DA:204,2
DA:205,2
DA:206,4
DA:207,3
LF:156
LH:154
end_of_record
TN:Supercomputer_Simulation_test_coverage
SF:/mnt/7AAA6049AA60044B/GitHub/supercomputer-simulation/supercomputer/src/users/user.cpp
FN:4,_ZN4UserC2EP13Configurationib
FN:11,_ZN4User14generate_groupEb
FN:25,_ZN4User10can_affordEP3Job
FN:29,_ZN4User3payEP3Job
FN:33,_Z41__static_initialization_and_destruction_0ii
FN:33,_GLOBAL__sub_I__ZN4UserC2EP13Configurationib
FNDA:1003,_ZN4User14generate_groupEb
FNDA:1003,_ZN4UserC2EP13Configurationib
FNDA:1,_GLOBAL__sub_I__ZN4UserC2EP13Configurationib
FNDA:1,_Z41__static_initialization_and_destruction_0ii
FNDA:1005,_ZN4User3payEP3Job
FNDA:1008,_ZN4User10can_affordEP3Job
FNF:6
FNH:6
DA:4,1003
DA:5,1003
DA:6,1003
DA:7,1003
DA:8,1003
DA:11,1003
DA:12,1003
DA:13,1003
DA:14,349
DA:15,349
DA:16,654
DA:17,329
DA:18,329
DA:20,325
DA:21,325
DA:23,1003
DA:25,1008
DA:26,1008
DA:29,1005
DA:30,1005
DA:31,2
DA:33,1008
LF:22
LH:22
end_of_record
TN:Supercomputer_Simulation_test_coverage
SF:/mnt/7AAA6049AA60044B/GitHub/supercomputer-simulation/supercomputer/src/utils/utils.cpp
FN:5,_Z15generate_randomii
FN:12,_Z15generate_randomjj
FN:19,_Z15generate_randomdd
FN:30,_Z10is_weekendll
FN:44,_Z15advance_weekendl
FN:61,_Z17advance_to_fridayl
FN:77,_Z18get_back_to_sundayl
FN:91,_GLOBAL__sub_I__Z15generate_randomii
FN:91,_Z41__static_initialization_and_destruction_0ii
FNDA:32553,_Z17advance_to_fridayl
FNDA:2632,_Z15advance_weekendl
FNDA:65,_Z18get_back_to_sundayl
FNDA:1,_GLOBAL__sub_I__Z15generate_randomii
FNDA:1939,_Z15generate_randomii
FNDA:1,_Z41__static_initialization_and_destruction_0ii
FNDA:4,_Z15generate_randomjj
FNDA:479591,_Z10is_weekendll
FNDA:4,_Z15generate_randomdd
FNF:9
FNH:9
DA:5,1939
DA:6,1939
DA:7,1939
DA:8,1939
DA:9,1939
DA:12,4
DA:13,4
DA:14,4
DA:15,4
DA:16,4
DA:19,4
DA:20,4
DA:21,4
DA:22,4
DA:30,479591
DA:31,479591
DA:32,479591
DA:33,479591
DA:34,479591
DA:35,86
DA:36,479505
DA:37,2479
DA:38,477026
DA:39,0
DA:41,477026
DA:44,2632
DA:45,2632
DA:46,2632
DA:47,65
DA:48,65
DA:51,13680
DA:52,5524
DA:53,5524
DA:55,2632
DA:56,2632
DA:57,2632
DA:58,2632
DA:61,32553
DA:62,32553
DA:63,32553
DA:64,4162
DA:65,4162
DA:67,208577
DA:68,88012
DA:69,88012
DA:71,32553
DA:72,32553
DA:73,32553
DA:74,32553
DA:77,65
DA:78,65
DA:79,65
DA:80,0
DA:81,0
DA:83,705
DA:84,320
DA:85,320
DA:87,65
DA:88,65
DA:89,65
DA:90,65
DA:91,3
LF:62
LH:59
end_of_record
TN:Supercomputer_Simulation_test_coverage
SF:/mnt/7AAA6049AA60044B/GitHub/supercomputer-simulation/testing/test_config.cpp
FN:3,_ZL29____C_A_T_C_H____T_E_S_T____0v
FN:36,_ZL29____C_A_T_C_H____T_E_S_T____2v
FN:122,_GLOBAL__sub_I_test_config.cpp
FN:122,_Z41__static_initialization_and_destruction_0ii
FNDA:1,_GLOBAL__sub_I_test_config.cpp
FNDA:1,_ZL29____C_A_T_C_H____T_E_S_T____2v
FNDA:1,_ZL29____C_A_T_C_H____T_E_S_T____0v
FNDA:1,_Z41__static_initialization_and_destruction_0ii
FNF:4
FNH:4
DA:3,2
DA:4,1
DA:6,1
DA:7,1
DA:8,1
DA:9,1
DA:11,1
DA:12,1
DA:13,1
DA:14,1
DA:16,1
DA:17,1
DA:19,1
DA:20,1
DA:22,1
DA:23,1
DA:24,1
DA:25,1
DA:27,1
DA:28,1
DA:29,1
DA:30,1
DA:32,1
DA:33,1
DA:34,1
DA:36,2
DA:37,1
DA:39,1
DA:40,1
DA:41,1
DA:42,1
DA:43,1
DA:44,1
DA:45,1
DA:46,1
DA:47,1
DA:48,1
DA:49,1
DA:51,1
DA:52,1
DA:54,1
DA:55,1
DA:56,1
DA:57,1
DA:58,1
DA:59,1
DA:60,1
DA:61,1
DA:62,1
DA:63,1
DA:64,1
DA:66,1
DA:67,1
DA:69,1
DA:70,1
DA:71,1
DA:72,1
DA:73,1
DA:74,1
DA:75,1
DA:76,1
DA:77,1
DA:78,1
DA:79,1
DA:80,1
DA:82,1
DA:83,1
DA:84,1
DA:85,1
DA:87,1
DA:88,1
DA:89,1
DA:90,1
DA:91,1
DA:92,1
DA:93,1
DA:94,1
DA:95,1
DA:96,1
DA:98,1
DA:99,1
DA:101,1
DA:102,1
DA:103,1
DA:104,1
DA:105,1
DA:106,1
DA:107,1
DA:108,1
DA:109,1
DA:110,1
DA:112,1
DA:113,1
DA:115,1
DA:116,1
DA:118,1
DA:119,1
DA:120,1
DA:121,1
DA:122,4
LF:100
LH:100
end_of_record
TN:Supercomputer_Simulation_test_coverage
SF:/mnt/7AAA6049AA60044B/GitHub/supercomputer-simulation/testing/test_supercomputer.cpp
FN:7,_ZL29____C_A_T_C_H____T_E_S_T____0v
FN:29,_ZL29____C_A_T_C_H____T_E_S_T____2v
FN:47,_GLOBAL__sub_I_leakDetector
FNDA:1,_ZL29____C_A_T_C_H____T_E_S_T____0v
FNDA:1,_ZL29____C_A_T_C_H____T_E_S_T____2v
FNDA:1,_Z41__static_initialization_and_destruction_0ii
FNDA:1,_GLOBAL__sub_I_leakDetector
FNF:4
FNH:4
DA:7,2
DA:8,1
DA:9,1
DA:10,1
DA:11,1
DA:12,2
DA:13,2
DA:14,1
DA:17,2
DA:18,4
DA:19,4
DA:20,4
DA:21,4
DA:22,4
DA:23,4
DA:25,2
DA:26,1
DA:27,1
DA:29,2
DA:30,1
DA:31,1
DA:32,1
DA:33,1
DA:34,1
DA:37,2
DA:38,4
DA:39,4
DA:40,4
DA:41,4
DA:42,4
DA:43,4
DA:45,2
DA:46,1
DA:47,4
LF:34
LH:34
end_of_record
